

Microchip MPLAB XC8 Assembler V2.32 build 20210201212658 
                                                                                               Sun Dec 12 22:06:19 2021

Microchip MPLAB XC8 C Compiler v2.32 (Free license) build 20210201212658 Og1 
     1                           	processor	18F4550
     2                           	fnconf	rparam,??,?,0
     3                           	pagewidth 120
     4                           	opt	flic
     5                           	psect	smallconst,global,reloc=2,class=SMALLCONST,delta=1,noexec
     6                           	psect	cinit,global,reloc=2,class=CODE,delta=1
     7                           	psect	bssCOMRAM,global,class=COMRAM,space=1,delta=1,lowdata,noexec
     8                           	psect	bssBANK0,global,class=BANK0,space=1,delta=1,lowdata,noexec
     9                           	psect	bssBANK1,global,class=BANK1,space=1,delta=1,lowdata,noexec
    10                           	psect	cstackBANK1,global,class=BANK1,space=1,delta=1,lowdata,noexec
    11                           	psect	cstackBANK0,global,class=BANK0,space=1,delta=1,lowdata,noexec
    12                           	psect	cstackCOMRAM,global,class=COMRAM,space=1,delta=1,lowdata,noexec
    13                           	psect	text0,global,reloc=2,class=CODE,delta=1
    14                           	psect	text1,global,reloc=2,class=CODE,delta=1,group=3
    15                           	psect	text2,global,reloc=2,class=CODE,delta=1,group=1
    16                           	psect	text3,global,reloc=2,class=CODE,delta=1,group=1
    17                           	psect	text4,global,reloc=2,class=CODE,delta=1,group=3
    18                           	psect	text5,global,reloc=2,class=CODE,delta=1,group=1
    19                           	psect	text6,global,reloc=2,class=CODE,delta=1,group=3
    20                           	psect	text7,global,reloc=2,class=CODE,delta=1,group=3
    21                           	psect	text8,global,reloc=2,class=CODE,delta=1,group=3
    22                           	psect	text9,global,reloc=2,class=CODE,delta=1,group=1
    23                           	psect	text10,global,reloc=2,class=CODE,delta=1,group=3
    24                           	psect	text11,global,reloc=2,class=CODE,delta=1,group=3
    25                           	psect	text12,global,reloc=2,class=CODE,delta=1,group=3
    26                           	psect	text13,global,reloc=2,class=CODE,delta=1,group=3
    27                           	psect	text14,global,reloc=2,class=CODE,delta=1,group=3
    28                           	psect	text15,global,reloc=2,class=CODE,delta=1,group=3
    29                           	psect	text16,global,reloc=2,class=CODE,delta=1,group=2
    30                           	psect	text17,global,reloc=2,class=CODE,delta=1,group=2
    31                           	psect	text18,global,reloc=2,class=CODE,delta=1,group=2
    32                           	psect	text19,global,reloc=2,class=CODE,delta=1,group=2
    33                           	psect	text20,global,reloc=2,class=CODE,delta=1,group=2
    34                           	psect	text21,global,reloc=2,class=CODE,delta=1,group=2
    35                           	psect	text22,global,reloc=2,class=CODE,delta=1,group=2
    36                           	psect	text23,global,reloc=2,class=CODE,delta=1,group=3
    37                           	psect	text24,global,reloc=2,class=CODE,delta=1,group=3
    38                           	psect	text25,global,reloc=2,class=CODE,delta=1,group=3
    39                           	psect	text26,global,reloc=2,class=CODE,delta=1,group=2
    40                           	psect	text27,global,reloc=2,class=CODE,delta=1
    41                           	psect	text28,global,reloc=2,class=CODE,delta=1,group=2
    42                           	psect	text29,global,reloc=2,class=CODE,delta=1,group=2
    43                           	psect	text30,global,reloc=2,class=CODE,delta=1,group=2
    44                           	psect	text31,global,reloc=2,class=CODE,delta=1
    45                           	psect	text32,global,reloc=2,class=CODE,delta=1
    46                           	psect	text33,global,reloc=2,class=CODE,delta=1
    47                           	psect	text34,global,reloc=2,class=CODE,delta=1,group=2
    48                           	psect	text35,global,reloc=2,class=CODE,delta=1
    49                           	psect	text36,global,reloc=2,class=CODE,delta=1
    50                           	psect	text37,global,reloc=2,class=CODE,delta=1,group=2
    51                           	psect	text38,global,reloc=2,class=CODE,delta=1
    52                           	psect	text39,global,reloc=2,class=CODE,delta=1
    53                           	psect	intcode,global,reloc=2,class=CODE,delta=1
    54                           	psect	intcode_body,global,reloc=2,class=CODE,delta=1
    55                           	psect	text41,global,reloc=2,class=CODE,delta=1
    56                           	psect	intsave_regs,global,class=BIGRAM,space=1,delta=1,noexec
    57                           	psect	rparam,global,class=COMRAM,space=1,delta=1,noexec
    58                           	psect	temp,global,ovrld,common,class=COMRAM,space=1,delta=1
    59                           	psect	idloc,global,abs,ovrld,class=IDLOC,space=5,delta=1,noexec
    60                           	psect	config,global,abs,ovrld,class=CONFIG,space=4,delta=1,noexec
    61  0000                     
    62                           ; Version 2.20
    63                           ; Generated 12/02/2020 GMT
    64                           ; 
    65                           ; Copyright © 2020, Microchip Technology Inc. and its subsidiaries ("Microchip")
    66                           ; All rights reserved.
    67                           ; 
    68                           ; This software is developed by Microchip Technology Inc. and its subsidiaries ("Microch
      +                          ip").
    69                           ; 
    70                           ; Redistribution and use in source and binary forms, with or without modification, are
    71                           ; permitted provided that the following conditions are met:
    72                           ; 
    73                           ;     1. Redistributions of source code must retain the above copyright notice, this lis
      +                          t of
    74                           ;        conditions and the following disclaimer.
    75                           ; 
    76                           ;     2. Redistributions in binary form must reproduce the above copyright notice, this 
      +                          list
    77                           ;        of conditions and the following disclaimer in the documentation and/or other
    78                           ;        materials provided with the distribution.
    79                           ; 
    80                           ;     3. Microchip's name may not be used to endorse or promote products derived from th
      +                          is
    81                           ;        software without specific prior written permission.
    82                           ; 
    83                           ; THIS SOFTWARE IS PROVIDED BY MICROCHIP "AS IS" AND ANY EXPRESS OR IMPLIED WARRANTIES,
    84                           ; INCLUDING, BUT NOT LIMITED TO, THE IMPLIED WARRANTIES OF MERCHANTABILITY AND FITNESS F
      +                          OR
    85                           ; PURPOSE ARE DISCLAIMED.  IN NO EVENT SHALL MICROCHIP BE LIABLE FOR ANY DIRECT, INDIREC
      +                          T,
    86                           ; INCIDENTAL, SPECIAL, EXEMPLARY, OR CONSEQUENTIAL DAMAGES (INCLUDING BUT NOT LIMITED TO
    87                           ; PROCUREMENT OF SUBSTITUTE GOODS OR SERVICES; LOSS OF USE, DATA OR PROFITS; OR BUSINESS
    88                           ; INTERRUPTION) HOWSOEVER CAUSED AND ON ANY THEORY OF LIABILITY, WHETHER IN CONTRACT, ST
      +                          RICT
    89                           ; LIABILITY, OR TORT (INCLUDING NEGLIGENCE OR OTHERWISE) ARISING IN ANY WAY OUT OF THE U
      +                          SE OF
    90                           ; THIS SOFTWARE, EVEN IF ADVISED OF THE POSSIBILITY OF SUCH DAMAGE.
    91                           ; 
    92                           ; 
    93                           ; Code-generator required, PIC18F4550 Definitions
    94                           ; 
    95                           ; SFR Addresses
    96  0000                     _ADRES	set	4035
    97  0000                     _TMR2	set	4044
    98  0000                     _T2CONbits	set	4042
    99  0000                     _T2CON	set	4042
   100  0000                     _CCPR2L	set	4027
   101  0000                     _CCP2CON	set	4026
   102  0000                     _CCPR1L	set	4030
   103  0000                     _CCP1CON	set	4029
   104  0000                     _PR2	set	4043
   105  0000                     _TXREG	set	4013
   106  0000                     _PIE1bits	set	3997
   107  0000                     _RCSTAbits	set	4011
   108  0000                     _TXSTAbits	set	4012
   109  0000                     _SPBRG	set	4015
   110  0000                     _ADCON0bits	set	4034
   111  0000                     _ADCON2bits	set	4032
   112  0000                     _ADCON0	set	4034
   113  0000                     _ADCON1bits	set	4033
   114  0000                     _INTCON3bits	set	4080
   115  0000                     _INTCON2bits	set	4081
   116  0000                     _TRISBbits	set	3987
   117  0000                     _INTCONbits	set	4082
   118  0000                     _TRISAbits	set	3986
   119  0000                     _TRISC	set	3988
   120  0000                     _ADCON1	set	4033
   121                           
   122                           	psect	smallconst
   123  000800                     __psmallconst:
   124                           	callstack 0
   125  000800  00                 	db	0
   126  000801                     STR_1:
   127  000801  52                 	db	82	;'R'
   128  000802  70                 	db	112	;'p'
   129  000803  6D                 	db	109	;'m'
   130  000804  20                 	db	32
   131  000805  3A                 	db	58	;':'
   132  000806  20                 	db	32
   133  000807  25                 	db	37
   134  000808  2E                 	db	46
   135  000809  30                 	db	48	;'0'
   136  00080A  66                 	db	102	;'f'
   137  00080B  0D                 	db	13
   138  00080C  00                 	db	0
   139  00080D                     STR_2:
   140  00080D  49                 	db	73	;'I'
   141  00080E  4E                 	db	78	;'N'
   142  00080F  46                 	db	70	;'F'
   143  000810  00                 	db	0
   144  000811                     STR_6:
   145  000811  4E                 	db	78	;'N'
   146  000812  41                 	db	65	;'A'
   147  000813  4E                 	db	78	;'N'
   148  000814  00                 	db	0
   149  000815                     STR_3:
   150  000815  69                 	db	105	;'i'
   151  000816  6E                 	db	110	;'n'
   152  000817  66                 	db	102	;'f'
   153  000818  00                 	db	0
   154  000819                     STR_7:
   155  000819  6E                 	db	110	;'n'
   156  00081A  61                 	db	97	;'a'
   157  00081B  6E                 	db	110	;'n'
   158  00081C  00                 	db	0
   159  00081D                     STR_10:
   160  00081D  6C                 	db	108	;'l'
   161  00081E  66                 	db	102	;'f'
   162  00081F  00                 	db	0
   163  000820  00                 	db	0	; dummy byte at the end
   164  0000                     
   165                           ; #config settings
   166                           
   167                           	psect	cinit
   168  003E4E                     __pcinit:
   169                           	callstack 0
   170  003E4E                     start_initialization:
   171                           	callstack 0
   172  003E4E                     __initialization:
   173                           	callstack 0
   174                           
   175                           ; Clear objects allocated to BANK1 (95 bytes)
   176  003E4E  EE01  F000         	lfsr	0,__pbssBANK1
   177  003E52  0E5F               	movlw	95
   178  003E54                     clear_0:
   179  003E54  6AEE               	clrf	postinc0,c
   180  003E56  06E8               	decf	wreg,f,c
   181  003E58  E1FD               	bnz	clear_0
   182                           
   183                           ; Clear objects allocated to BANK0 (14 bytes)
   184  003E5A  EE00  F0F1         	lfsr	0,__pbssBANK0
   185  003E5E  0E0E               	movlw	14
   186  003E60                     clear_1:
   187  003E60  6AEE               	clrf	postinc0,c
   188  003E62  06E8               	decf	wreg,f,c
   189  003E64  E1FD               	bnz	clear_1
   190                           
   191                           ; Clear objects allocated to COMRAM (14 bytes)
   192  003E66  EE00  F040         	lfsr	0,__pbssCOMRAM
   193  003E6A  0E0E               	movlw	14
   194  003E6C                     clear_2:
   195  003E6C  6AEE               	clrf	postinc0,c
   196  003E6E  06E8               	decf	wreg,f,c
   197  003E70  E1FD               	bnz	clear_2
   198  003E72                     end_of_initialization:
   199                           	callstack 0
   200  003E72                     __end_of__initialization:
   201                           	callstack 0
   202  003E72  904E               	bcf	int$flags,0,c	;clear compiler interrupt flag (level 1)
   203  003E74  924E               	bcf	int$flags,1,c	;clear compiler interrupt flag (level 2)
   204  003E76  0E00               	movlw	low (__Lmediumconst shr (0+16))
   205  003E78  6EF8               	movwf	tblptru,c
   206  003E7A  0100               	movlb	0
   207  003E7C  EFC8  F017         	goto	_main	;jump to C main() function
   208                           
   209                           	psect	bssCOMRAM
   210  000040                     __pbssCOMRAM:
   211                           	callstack 0
   212  000040                     floorf@F527:
   213                           	callstack 0
   214  000040                     	ds	4
   215  000044                     ___fpclassifyf@F465:
   216                           	callstack 0
   217  000044                     	ds	4
   218  000048                     _velocidad:
   219                           	callstack 0
   220  000048                     	ds	4
   221  00004C                     _flags:
   222                           	callstack 0
   223  00004C                     	ds	2
   224                           
   225                           	psect	bssBANK0
   226  0000F1                     __pbssBANK0:
   227                           	callstack 0
   228  0000F1                     _RPM:
   229                           	callstack 0
   230  0000F1                     	ds	4
   231  0000F5                     _nout:
   232                           	callstack 0
   233  0000F5                     	ds	2
   234  0000F7                     _width:
   235                           	callstack 0
   236  0000F7                     	ds	2
   237  0000F9                     _prec:
   238                           	callstack 0
   239  0000F9                     	ds	2
   240  0000FB                     _pulses:
   241                           	callstack 0
   242  0000FB                     	ds	4
   243                           
   244                           	psect	bssBANK1
   245  000100                     __pbssBANK1:
   246                           	callstack 0
   247  000100                     _dbuf:
   248                           	callstack 0
   249  000100                     	ds	80
   250  000150                     _cadena:
   251                           	callstack 0
   252  000150                     	ds	15
   253                           
   254                           	psect	cstackBANK1
   255  00015F                     __pcstackBANK1:
   256                           	callstack 0
   257  00015F                     ?_sprintf:
   258                           	callstack 0
   259  00015F                     sprintf@s:
   260                           	callstack 0
   261                           
   262                           ; 2 bytes @ 0x0
   263  00015F                     	ds	2
   264  000161                     sprintf@fmt:
   265                           	callstack 0
   266                           
   267                           ; 2 bytes @ 0x2
   268  000161                     	ds	6
   269  000167                     sprintf@ap:
   270                           	callstack 0
   271                           
   272                           ; 2 bytes @ 0x8
   273  000167                     	ds	2
   274  000169                     sprintf@f:
   275                           	callstack 0
   276                           
   277                           ; 6 bytes @ 0xA
   278  000169                     	ds	6
   279                           
   280                           	psect	cstackBANK0
   281  000060                     __pcstackBANK0:
   282                           	callstack 0
   283  000060                     ?___fldiv:
   284                           	callstack 0
   285  000060                     ?___flsub:
   286                           	callstack 0
   287  000060                     ___flge@ff1:
   288                           	callstack 0
   289  000060                     ___flsub@b:
   290                           	callstack 0
   291  000060                     ___fldiv@b:
   292                           	callstack 0
   293                           
   294                           ; 4 bytes @ 0x0
   295  000060                     	ds	4
   296  000064                     ___flge@ff2:
   297                           	callstack 0
   298  000064                     ___flsub@a:
   299                           	callstack 0
   300  000064                     ___fldiv@a:
   301                           	callstack 0
   302                           
   303                           ; 4 bytes @ 0x4
   304  000064                     	ds	4
   305  000068                     ??___fldiv:
   306  000068                     ??___flge:
   307                           
   308                           ; 1 bytes @ 0x8
   309  000068                     	ds	4
   310  00006C                     ___fldiv@rem:
   311                           	callstack 0
   312                           
   313                           ; 4 bytes @ 0xC
   314  00006C                     	ds	4
   315  000070                     ___fldiv@sign:
   316                           	callstack 0
   317                           
   318                           ; 1 bytes @ 0x10
   319  000070                     	ds	1
   320  000071                     ___fldiv@new_exp:
   321                           	callstack 0
   322                           
   323                           ; 2 bytes @ 0x11
   324  000071                     	ds	2
   325  000073                     ___fldiv@grs:
   326                           	callstack 0
   327                           
   328                           ; 4 bytes @ 0x13
   329  000073                     	ds	4
   330  000077                     ___fldiv@bexp:
   331                           	callstack 0
   332                           
   333                           ; 1 bytes @ 0x17
   334  000077                     	ds	1
   335  000078                     ___fldiv@aexp:
   336                           	callstack 0
   337                           
   338                           ; 1 bytes @ 0x18
   339  000078                     	ds	1
   340  000079                     ?_floorf:
   341                           	callstack 0
   342  000079                     ?___fltol:
   343                           	callstack 0
   344  000079                     ___fltol@f1:
   345                           	callstack 0
   346  000079                     floorf@x:
   347                           	callstack 0
   348                           
   349                           ; 4 bytes @ 0x19
   350  000079                     	ds	4
   351  00007D                     ??_floorf:
   352  00007D                     ??___fltol:
   353                           
   354                           ; 1 bytes @ 0x1D
   355  00007D                     	ds	4
   356  000081                     set_duty_cpp1@duty:
   357                           	callstack 0
   358                           
   359                           ; 4 bytes @ 0x21
   360  000081                     	ds	2
   361  000083                     floorf@m:
   362                           	callstack 0
   363                           
   364                           ; 4 bytes @ 0x23
   365  000083                     	ds	4
   366  000087                     floorf@e:
   367                           	callstack 0
   368                           
   369                           ; 2 bytes @ 0x27
   370  000087                     	ds	2
   371  000089                     floorf@u:
   372                           	callstack 0
   373                           
   374                           ; 4 bytes @ 0x29
   375  000089                     	ds	4
   376  00008D                     ?_efgtoa:
   377                           	callstack 0
   378  00008D                     efgtoa@fp:
   379                           	callstack 0
   380                           
   381                           ; 2 bytes @ 0x2D
   382  00008D                     	ds	2
   383  00008F                     efgtoa@f:
   384                           	callstack 0
   385                           
   386                           ; 4 bytes @ 0x2F
   387  00008F                     	ds	4
   388  000093                     efgtoa@c:
   389                           	callstack 0
   390                           
   391                           ; 1 bytes @ 0x33
   392  000093                     	ds	1
   393  000094                     ??_efgtoa:
   394                           
   395                           ; 1 bytes @ 0x34
   396  000094                     	ds	5
   397  000099                     _efgtoa$1324:
   398                           	callstack 0
   399                           
   400                           ; 2 bytes @ 0x39
   401  000099                     	ds	2
   402  00009B                     _efgtoa$1325:
   403                           	callstack 0
   404                           
   405                           ; 2 bytes @ 0x3B
   406  00009B                     	ds	2
   407  00009D                     _efgtoa$1330:
   408                           	callstack 0
   409                           
   410                           ; 2 bytes @ 0x3D
   411  00009D                     	ds	2
   412  00009F                     _efgtoa$1334:
   413                           	callstack 0
   414                           
   415                           ; 2 bytes @ 0x3F
   416  00009F                     	ds	2
   417  0000A1                     _efgtoa$1335:
   418                           	callstack 0
   419                           
   420                           ; 2 bytes @ 0x41
   421  0000A1                     	ds	2
   422  0000A3                     _efgtoa$1336:
   423                           	callstack 0
   424                           
   425                           ; 2 bytes @ 0x43
   426  0000A3                     	ds	2
   427  0000A5                     efgtoa@t:
   428                           	callstack 0
   429                           
   430                           ; 2 bytes @ 0x45
   431  0000A5                     	ds	2
   432  0000A7                     efgtoa@pp:
   433                           	callstack 0
   434                           
   435                           ; 2 bytes @ 0x47
   436  0000A7                     	ds	2
   437  0000A9                     efgtoa@ne:
   438                           	callstack 0
   439                           
   440                           ; 2 bytes @ 0x49
   441  0000A9                     	ds	2
   442  0000AB                     efgtoa@m:
   443                           	callstack 0
   444                           
   445                           ; 2 bytes @ 0x4B
   446  0000AB                     	ds	2
   447  0000AD                     efgtoa@ou:
   448                           	callstack 0
   449                           
   450                           ; 4 bytes @ 0x4D
   451  0000AD                     	ds	4
   452  0000B1                     efgtoa@d:
   453                           	callstack 0
   454                           
   455                           ; 2 bytes @ 0x51
   456  0000B1                     	ds	2
   457  0000B3                     efgtoa@sign:
   458                           	callstack 0
   459                           
   460                           ; 2 bytes @ 0x53
   461  0000B3                     	ds	2
   462  0000B5                     efgtoa@p:
   463                           	callstack 0
   464                           
   465                           ; 2 bytes @ 0x55
   466  0000B5                     	ds	2
   467  0000B7                     efgtoa@w:
   468                           	callstack 0
   469                           
   470                           ; 2 bytes @ 0x57
   471  0000B7                     	ds	2
   472  0000B9                     efgtoa@nmode:
   473                           	callstack 0
   474                           
   475                           ; 1 bytes @ 0x59
   476  0000B9                     	ds	1
   477  0000BA                     efgtoa@mode:
   478                           	callstack 0
   479                           
   480                           ; 1 bytes @ 0x5A
   481  0000BA                     	ds	1
   482  0000BB                     efgtoa@h:
   483                           	callstack 0
   484                           
   485                           ; 4 bytes @ 0x5B
   486  0000BB                     	ds	4
   487  0000BF                     efgtoa@l:
   488                           	callstack 0
   489                           
   490                           ; 4 bytes @ 0x5F
   491  0000BF                     	ds	4
   492  0000C3                     efgtoa@i:
   493                           	callstack 0
   494                           
   495                           ; 2 bytes @ 0x63
   496  0000C3                     	ds	2
   497  0000C5                     efgtoa@g:
   498                           	callstack 0
   499                           
   500                           ; 4 bytes @ 0x65
   501  0000C5                     	ds	4
   502  0000C9                     efgtoa@e:
   503                           	callstack 0
   504                           
   505                           ; 2 bytes @ 0x69
   506  0000C9                     	ds	2
   507  0000CB                     efgtoa@n:
   508                           	callstack 0
   509                           
   510                           ; 2 bytes @ 0x6B
   511  0000CB                     	ds	2
   512  0000CD                     efgtoa@u:
   513                           	callstack 0
   514                           
   515                           ; 4 bytes @ 0x6D
   516  0000CD                     	ds	4
   517  0000D1                     ?_vfpfcnvrt:
   518                           	callstack 0
   519  0000D1                     vfpfcnvrt@fp:
   520                           	callstack 0
   521                           
   522                           ; 2 bytes @ 0x71
   523  0000D1                     	ds	2
   524  0000D3                     vfpfcnvrt@fmt:
   525                           	callstack 0
   526                           
   527                           ; 2 bytes @ 0x73
   528  0000D3                     	ds	2
   529  0000D5                     vfpfcnvrt@ap:
   530                           	callstack 0
   531                           
   532                           ; 2 bytes @ 0x75
   533  0000D5                     	ds	2
   534  0000D7                     ??_vfpfcnvrt:
   535                           
   536                           ; 1 bytes @ 0x77
   537  0000D7                     	ds	4
   538  0000DB                     _vfpfcnvrt$1350:
   539                           	callstack 0
   540                           
   541                           ; 2 bytes @ 0x7B
   542  0000DB                     	ds	2
   543  0000DD                     _vfpfcnvrt$1354:
   544                           	callstack 0
   545                           
   546                           ; 2 bytes @ 0x7D
   547  0000DD                     	ds	2
   548  0000DF                     vfpfcnvrt@f:
   549                           	callstack 0
   550                           
   551                           ; 4 bytes @ 0x7F
   552  0000DF                     	ds	4
   553  0000E3                     vfpfcnvrt@ct:
   554                           	callstack 0
   555                           
   556                           ; 3 bytes @ 0x83
   557  0000E3                     	ds	3
   558  0000E6                     vfpfcnvrt@c:
   559                           	callstack 0
   560                           
   561                           ; 1 bytes @ 0x86
   562  0000E6                     	ds	1
   563  0000E7                     ?_vfprintf:
   564                           	callstack 0
   565  0000E7                     vfprintf@fp:
   566                           	callstack 0
   567                           
   568                           ; 2 bytes @ 0x87
   569  0000E7                     	ds	2
   570  0000E9                     vfprintf@fmt:
   571                           	callstack 0
   572                           
   573                           ; 2 bytes @ 0x89
   574  0000E9                     	ds	2
   575  0000EB                     vfprintf@ap:
   576                           	callstack 0
   577                           
   578                           ; 2 bytes @ 0x8B
   579  0000EB                     	ds	2
   580  0000ED                     vfprintf@cfmt:
   581                           	callstack 0
   582                           
   583                           ; 2 bytes @ 0x8D
   584  0000ED                     	ds	2
   585  0000EF                     ??_main:
   586                           
   587                           ; 1 bytes @ 0x8F
   588  0000EF                     	ds	2
   589                           
   590                           	psect	cstackCOMRAM
   591  000001                     __pcstackCOMRAM:
   592                           	callstack 0
   593  000001                     ?i2___fladd:
   594                           	callstack 0
   595  000001                     i2___fladd@b:
   596                           	callstack 0
   597                           
   598                           ; 4 bytes @ 0x0
   599  000001                     	ds	4
   600  000005                     i2___fladd@a:
   601                           	callstack 0
   602                           
   603                           ; 4 bytes @ 0x4
   604  000005                     	ds	4
   605  000009                     ??i2___fladd:
   606                           
   607                           ; 1 bytes @ 0x8
   608  000009                     	ds	4
   609  00000D                     i2___fladd@signs:
   610                           	callstack 0
   611                           
   612                           ; 1 bytes @ 0xC
   613  00000D                     	ds	1
   614  00000E                     i2___fladd@aexp:
   615                           	callstack 0
   616                           
   617                           ; 1 bytes @ 0xD
   618  00000E                     	ds	1
   619  00000F                     i2___fladd@bexp:
   620                           	callstack 0
   621                           
   622                           ; 1 bytes @ 0xE
   623  00000F                     	ds	1
   624  000010                     i2___fladd@grs:
   625                           	callstack 0
   626                           
   627                           ; 1 bytes @ 0xF
   628  000010                     	ds	1
   629  000011                     ?_strlen:
   630                           	callstack 0
   631  000011                     ?___fpclassifyf:
   632                           	callstack 0
   633  000011                     ?_isupper:
   634                           	callstack 0
   635  000011                     ?_isdigit:
   636                           	callstack 0
   637  000011                     ?_strncmp:
   638                           	callstack 0
   639  000011                     ?_isspace:
   640                           	callstack 0
   641  000011                     ?___wmul:
   642                           	callstack 0
   643  000011                     ?___awdiv:
   644                           	callstack 0
   645  000011                     ?___awmod:
   646                           	callstack 0
   647  000011                     ?___fladd:
   648                           	callstack 0
   649  000011                     ?___lldiv:
   650                           	callstack 0
   651  000011                     ?___flneg:
   652                           	callstack 0
   653  000011                     ?___xxtofl:
   654                           	callstack 0
   655  000011                     config_interrup_cero@edge:
   656                           	callstack 0
   657  000011                     USART_PutChar@Ch:
   658                           	callstack 0
   659  000011                     pwm_init@pwm2:
   660                           	callstack 0
   661  000011                     ___wmul@multiplier:
   662                           	callstack 0
   663  000011                     ___awdiv@dividend:
   664                           	callstack 0
   665  000011                     ___awmod@dividend:
   666                           	callstack 0
   667  000011                     isdigit@c:
   668                           	callstack 0
   669  000011                     isspace@c:
   670                           	callstack 0
   671  000011                     isupper@c:
   672                           	callstack 0
   673  000011                     fputc@c:
   674                           	callstack 0
   675  000011                     strcpy@dest:
   676                           	callstack 0
   677  000011                     strlen@s:
   678                           	callstack 0
   679  000011                     strncmp@_l:
   680                           	callstack 0
   681  000011                     ___lldiv@dividend:
   682                           	callstack 0
   683  000011                     ___fleq@ff1:
   684                           	callstack 0
   685  000011                     ___flneg@f1:
   686                           	callstack 0
   687  000011                     ___fladd@b:
   688                           	callstack 0
   689  000011                     ___xxtofl@val:
   690                           	callstack 0
   691  000011                     ___fpclassifyf@x:
   692                           	callstack 0
   693                           
   694                           ; 4 bytes @ 0x10
   695  000011                     	ds	1
   696  000012                     pwm_init@pwm1:
   697                           	callstack 0
   698  000012                     USART_PutString@str:
   699                           	callstack 0
   700                           
   701                           ; 2 bytes @ 0x11
   702  000012                     	ds	1
   703  000013                     ??_isupper:
   704  000013                     ??_isdigit:
   705  000013                     ??_isspace:
   706  000013                     ___wmul@multiplicand:
   707                           	callstack 0
   708  000013                     ___awdiv@divisor:
   709                           	callstack 0
   710  000013                     ___awmod@divisor:
   711                           	callstack 0
   712  000013                     fputc@fp:
   713                           	callstack 0
   714  000013                     strcpy@src:
   715                           	callstack 0
   716  000013                     strlen@a:
   717                           	callstack 0
   718  000013                     strncmp@_r:
   719                           	callstack 0
   720                           
   721                           ; 2 bytes @ 0x12
   722  000013                     	ds	1
   723  000014                     
   724                           ; 1 bytes @ 0x13
   725  000014                     	ds	1
   726  000015                     ??_fputc:
   727  000015                     ??___fpclassifyf:
   728  000015                     ??_strcpy:
   729  000015                     ??___xxtofl:
   730  000015                     ___awdiv@counter:
   731                           	callstack 0
   732  000015                     ___awmod@counter:
   733                           	callstack 0
   734  000015                     ___wmul@product:
   735                           	callstack 0
   736  000015                     strncmp@n:
   737                           	callstack 0
   738  000015                     ___lldiv@divisor:
   739                           	callstack 0
   740  000015                     ___fleq@ff2:
   741                           	callstack 0
   742  000015                     ___fladd@a:
   743                           	callstack 0
   744                           
   745                           ; 4 bytes @ 0x14
   746  000015                     	ds	1
   747  000016                     ___awdiv@sign:
   748                           	callstack 0
   749  000016                     ___awmod@sign:
   750                           	callstack 0
   751                           
   752                           ; 1 bytes @ 0x15
   753  000016                     	ds	1
   754  000017                     ??_strncmp:
   755  000017                     ?_tolower:
   756                           	callstack 0
   757  000017                     _isspace$1419:
   758                           	callstack 0
   759  000017                     ___awdiv@quotient:
   760                           	callstack 0
   761  000017                     strcpy@s:
   762                           	callstack 0
   763  000017                     tolower@c:
   764                           	callstack 0
   765                           
   766                           ; 2 bytes @ 0x16
   767  000017                     	ds	1
   768  000018                     ?_atoi:
   769                           	callstack 0
   770  000018                     atoi@s:
   771                           	callstack 0
   772  000018                     strncmp@l:
   773                           	callstack 0
   774                           
   775                           ; 2 bytes @ 0x17
   776  000018                     	ds	1
   777  000019                     ??___fladd:
   778  000019                     ??_tolower:
   779  000019                     ??___fleq:
   780  000019                     ___xxtofl@sign:
   781                           	callstack 0
   782  000019                     ___fpclassifyf@e:
   783                           	callstack 0
   784  000019                     strcpy@d:
   785                           	callstack 0
   786  000019                     ___lldiv@quotient:
   787                           	callstack 0
   788                           
   789                           ; 4 bytes @ 0x18
   790  000019                     	ds	1
   791  00001A                     ??_atoi:
   792  00001A                     ___xxtofl@exp:
   793                           	callstack 0
   794  00001A                     fputs@s:
   795                           	callstack 0
   796  00001A                     strncmp@r:
   797                           	callstack 0
   798                           
   799                           ; 2 bytes @ 0x19
   800  00001A                     	ds	1
   801  00001B                     ___xxtofl@arg:
   802                           	callstack 0
   803  00001B                     ___fpclassifyf@u:
   804                           	callstack 0
   805                           
   806                           ; 4 bytes @ 0x1A
   807  00001B                     	ds	1
   808  00001C                     fputs@fp:
   809                           	callstack 0
   810                           
   811                           ; 2 bytes @ 0x1B
   812  00001C                     	ds	1
   813  00001D                     ___lldiv@counter:
   814                           	callstack 0
   815  00001D                     ___fladd@signs:
   816                           	callstack 0
   817  00001D                     _tolower$1483:
   818                           	callstack 0
   819                           
   820                           ; 2 bytes @ 0x1C
   821  00001D                     	ds	1
   822  00001E                     ___fladd@aexp:
   823                           	callstack 0
   824  00001E                     fputs@c:
   825                           	callstack 0
   826  00001E                     USART_init@baudrate:
   827                           	callstack 0
   828  00001E                     atoi@neg:
   829                           	callstack 0
   830                           
   831                           ; 2 bytes @ 0x1D
   832  00001E                     	ds	1
   833  00001F                     ?_analogic_read:
   834                           	callstack 0
   835  00001F                     ___fladd@bexp:
   836                           	callstack 0
   837  00001F                     fputs@i:
   838                           	callstack 0
   839                           
   840                           ; 2 bytes @ 0x1E
   841  00001F                     	ds	1
   842  000020                     ___fladd@grs:
   843                           	callstack 0
   844  000020                     _atoi$1388:
   845                           	callstack 0
   846                           
   847                           ; 2 bytes @ 0x1F
   848  000020                     	ds	1
   849  000021                     ?_pad:
   850                           	callstack 0
   851  000021                     pad@fp:
   852                           	callstack 0
   853                           
   854                           ; 2 bytes @ 0x20
   855  000021                     	ds	1
   856  000022                     _atoi$1390:
   857                           	callstack 0
   858                           
   859                           ; 2 bytes @ 0x21
   860  000022                     	ds	1
   861  000023                     ??_analogic_read:
   862  000023                     pad@buf:
   863                           	callstack 0
   864                           
   865                           ; 2 bytes @ 0x22
   866  000023                     	ds	1
   867  000024                     analogic_read@channel:
   868                           	callstack 0
   869  000024                     _atoi$1389:
   870                           	callstack 0
   871                           
   872                           ; 1 bytes @ 0x23
   873  000024                     	ds	1
   874  000025                     ?___flmul:
   875                           	callstack 0
   876  000025                     pad@p:
   877                           	callstack 0
   878  000025                     atoi@n:
   879                           	callstack 0
   880  000025                     ___flmul@b:
   881                           	callstack 0
   882                           
   883                           ; 4 bytes @ 0x24
   884  000025                     	ds	2
   885  000027                     ??_pad:
   886                           
   887                           ; 1 bytes @ 0x26
   888  000027                     	ds	1
   889  000028                     pad@i:
   890                           	callstack 0
   891                           
   892                           ; 2 bytes @ 0x27
   893  000028                     	ds	1
   894  000029                     ___flmul@a:
   895                           	callstack 0
   896                           
   897                           ; 4 bytes @ 0x28
   898  000029                     	ds	1
   899  00002A                     pad@w:
   900                           	callstack 0
   901                           
   902                           ; 2 bytes @ 0x29
   903  00002A                     	ds	3
   904  00002D                     ??___flmul:
   905                           
   906                           ; 1 bytes @ 0x2C
   907  00002D                     	ds	4
   908  000031                     ___flmul@sign:
   909                           	callstack 0
   910                           
   911                           ; 1 bytes @ 0x30
   912  000031                     	ds	1
   913  000032                     ___flmul@aexp:
   914                           	callstack 0
   915                           
   916                           ; 1 bytes @ 0x31
   917  000032                     	ds	1
   918  000033                     ___flmul@grs:
   919                           	callstack 0
   920                           
   921                           ; 4 bytes @ 0x32
   922  000033                     	ds	4
   923  000037                     ___flmul@bexp:
   924                           	callstack 0
   925                           
   926                           ; 1 bytes @ 0x36
   927  000037                     	ds	1
   928  000038                     ___flmul@prod:
   929                           	callstack 0
   930                           
   931                           ; 4 bytes @ 0x37
   932  000038                     	ds	4
   933  00003C                     ___flmul@temp:
   934                           	callstack 0
   935                           
   936                           ; 2 bytes @ 0x3B
   937  00003C                     	ds	2
   938  00003E                     ___fltol@sign1:
   939                           	callstack 0
   940                           
   941                           ; 1 bytes @ 0x3D
   942  00003E                     	ds	1
   943  00003F                     ___fltol@exp1:
   944                           	callstack 0
   945                           
   946                           ; 1 bytes @ 0x3E
   947  00003F                     	ds	1
   948  000040                     
   949                           ; 1 bytes @ 0x3F
   950 ;;
   951 ;;Main: autosize = 0, tempsize = 2, incstack = 0, save=0
   952 ;;
   953 ;; *************** function _main *****************
   954 ;; Defined at:
   955 ;;		line 24 in file "main.c"
   956 ;; Parameters:    Size  Location     Type
   957 ;;		None
   958 ;; Auto vars:     Size  Location     Type
   959 ;;		None
   960 ;; Return value:  Size  Location     Type
   961 ;;                  1    wreg      void 
   962 ;; Registers used:
   963 ;;		wreg, fsr1l, fsr1h, fsr2l, fsr2h, status,2, status,0, tblptrl, tblptrh, tblptru, prodl, prodh, cstack
   964 ;; Tracked objects:
   965 ;;		On entry : 0/0
   966 ;;		On exit  : 0/0
   967 ;;		Unchanged: 0/0
   968 ;; Data sizes:     COMRAM   BANK0   BANK1   BANK2   BANK3   BANK4   BANK5   BANK6   BANK7
   969 ;;      Params:         0       0       0       0       0       0       0       0       0
   970 ;;      Locals:         0       0       0       0       0       0       0       0       0
   971 ;;      Temps:          0       2       0       0       0       0       0       0       0
   972 ;;      Totals:         0       2       0       0       0       0       0       0       0
   973 ;;Total ram usage:        2 bytes
   974 ;; Hardware stack levels required when called: 10
   975 ;; This function calls:
   976 ;;		_USART_PutString
   977 ;;		_USART_init
   978 ;;		___fldiv
   979 ;;		___flmul
   980 ;;		_adc_init
   981 ;;		_analogic_read
   982 ;;		_config_interrup_cero
   983 ;;		_pwm_init
   984 ;;		_set_duty_cpp1
   985 ;;		_sprintf
   986 ;; This function is called by:
   987 ;;		Startup code after reset
   988 ;; This function uses a non-reentrant model
   989 ;;
   990                           
   991                           	psect	text0
   992  002F90                     __ptext0:
   993                           	callstack 0
   994  002F90                     _main:
   995                           	callstack 21
   996  002F90                     
   997                           ;main.c: 27:     ADCON1 = 0x0E;
   998  002F90  0E0E               	movlw	14
   999  002F92  6EC1               	movwf	193,c	;volatile
  1000                           
  1001                           ;main.c: 28:     TRISC = 0;
  1002  002F94  0E00               	movlw	0
  1003  002F96  6E94               	movwf	148,c	;volatile
  1004  002F98                     
  1005                           ;main.c: 29:     TRISAbits.RA0 = 1;
  1006  002F98  8092               	bsf	146,0,c	;volatile
  1007  002F9A                     
  1008                           ;main.c: 32:     config_interrup_cero(1);
  1009  002F9A  0E01               	movlw	1
  1010  002F9C  EC79  F01F         	call	_config_interrup_cero
  1011  002FA0                     
  1012                           ;main.c: 33:     USART_init(9600);
  1013  002FA0  0E25               	movlw	37
  1014  002FA2  6E1F               	movwf	(USART_init@baudrate+1)^0,c
  1015  002FA4  0E80               	movlw	128
  1016  002FA6  6E1E               	movwf	USART_init@baudrate^0,c
  1017  002FA8  EC25  F01E         	call	_USART_init	;wreg free
  1018  002FAC                     
  1019                           ;main.c: 34:     adc_init();
  1020  002FAC  EC6B  F01F         	call	_adc_init	;wreg free
  1021  002FB0                     
  1022                           ;main.c: 35:     pwm_init(1,0);
  1023  002FB0  0E00               	movlw	0
  1024  002FB2  6E11               	movwf	pwm_init@pwm2^0,c
  1025  002FB4  0E01               	movlw	1
  1026  002FB6  EC8F  F01C         	call	_pwm_init
  1027  002FBA                     l5791:
  1028                           
  1029                           ;main.c: 40:         pulses = 0;
  1030  002FBA  0E00               	movlw	0
  1031  002FBC  0100               	movlb	0	; () banked
  1032  002FBE  6FFB               	movwf	_pulses& (0+255),b	;volatile
  1033  002FC0  0E00               	movlw	0
  1034  002FC2  6FFC               	movwf	(_pulses+1)& (0+255),b	;volatile
  1035  002FC4  0E00               	movlw	0
  1036  002FC6  6FFD               	movwf	(_pulses+2)& (0+255),b	;volatile
  1037  002FC8  0E00               	movlw	0
  1038  002FCA  6FFE               	movwf	(_pulses+3)& (0+255),b	;volatile
  1039  002FCC                     
  1040                           ; BSR set to: 0
  1041                           ;main.c: 41:         _delay((unsigned long)((1000)*(8000000UL/4000.0)));
  1042  002FCC  0E0B               	movlw	11
  1043  002FCE  0100               	movlb	0	; () banked
  1044  002FD0  6FF0               	movwf	(??_main+1)& (0+255),b
  1045  002FD2  0E26               	movlw	38
  1046  002FD4  6FEF               	movwf	??_main& (0+255),b
  1047  002FD6  0E5D               	movlw	93
  1048  002FD8                     u8157:
  1049  002FD8  2EE8               	decfsz	wreg,f,c
  1050  002FDA  D7FE               	bra	u8157
  1051  002FDC  2FEF               	decfsz	??_main& (0+255),f,b
  1052  002FDE  D7FC               	bra	u8157
  1053  002FE0  2FF0               	decfsz	(??_main+1)& (0+255),f,b
  1054  002FE2  D7FA               	bra	u8157
  1055  002FE4  D000               	nop2	
  1056  002FE6                     
  1057                           ;main.c: 43:         RPM = (60*pulses)/100;
  1058  002FE6  0E00               	movlw	0
  1059  002FE8  6E29               	movwf	___flmul@a^0,c
  1060  002FEA  0E00               	movlw	0
  1061  002FEC  6E2A               	movwf	(___flmul@a+1)^0,c
  1062  002FEE  0E70               	movlw	112
  1063  002FF0  6E2B               	movwf	(___flmul@a+2)^0,c
  1064  002FF2  0E42               	movlw	66
  1065  002FF4  6E2C               	movwf	(___flmul@a+3)^0,c
  1066  002FF6  C0FB  F025         	movff	_pulses,___flmul@b	;volatile
  1067  002FFA  C0FC  F026         	movff	_pulses+1,___flmul@b+1	;volatile
  1068  002FFE  C0FD  F027         	movff	_pulses+2,___flmul@b+2	;volatile
  1069  003002  C0FE  F028         	movff	_pulses+3,___flmul@b+3	;volatile
  1070  003006  EC38  F011         	call	___flmul	;wreg free
  1071  00300A  C025  F060         	movff	?___flmul,___fldiv@b
  1072  00300E  C026  F061         	movff	?___flmul+1,___fldiv@b+1
  1073  003012  C027  F062         	movff	?___flmul+2,___fldiv@b+2
  1074  003016  C028  F063         	movff	?___flmul+3,___fldiv@b+3
  1075  00301A  0E00               	movlw	0
  1076  00301C  0100               	movlb	0	; () banked
  1077  00301E  6F64               	movwf	___fldiv@a& (0+255),b
  1078  003020  0E00               	movlw	0
  1079  003022  6F65               	movwf	(___fldiv@a+1)& (0+255),b
  1080  003024  0EC8               	movlw	200
  1081  003026  6F66               	movwf	(___fldiv@a+2)& (0+255),b
  1082  003028  0E42               	movlw	66
  1083  00302A  6F67               	movwf	(___fldiv@a+3)& (0+255),b
  1084  00302C  EC4D  F013         	call	___fldiv	;wreg free
  1085  003030  C060  F0F1         	movff	?___fldiv,_RPM
  1086  003034  C061  F0F2         	movff	?___fldiv+1,_RPM+1
  1087  003038  C062  F0F3         	movff	?___fldiv+2,_RPM+2
  1088  00303C  C063  F0F4         	movff	?___fldiv+3,_RPM+3
  1089  003040                     
  1090                           ;main.c: 44:         velocidad = (analogic_read(0)*100)/1023;
  1091  003040  0E00               	movlw	0
  1092  003042  6E29               	movwf	___flmul@a^0,c
  1093  003044  0E00               	movlw	0
  1094  003046  6E2A               	movwf	(___flmul@a+1)^0,c
  1095  003048  0EC8               	movlw	200
  1096  00304A  6E2B               	movwf	(___flmul@a+2)^0,c
  1097  00304C  0E42               	movlw	66
  1098  00304E  6E2C               	movwf	(___flmul@a+3)^0,c
  1099  003050  0E00               	movlw	0
  1100  003052  ECFD  F01D         	call	_analogic_read
  1101  003056  C01F  F025         	movff	?_analogic_read,___flmul@b
  1102  00305A  C020  F026         	movff	?_analogic_read+1,___flmul@b+1
  1103  00305E  C021  F027         	movff	?_analogic_read+2,___flmul@b+2
  1104  003062  C022  F028         	movff	?_analogic_read+3,___flmul@b+3
  1105  003066  EC38  F011         	call	___flmul	;wreg free
  1106  00306A  C025  F060         	movff	?___flmul,___fldiv@b
  1107  00306E  C026  F061         	movff	?___flmul+1,___fldiv@b+1
  1108  003072  C027  F062         	movff	?___flmul+2,___fldiv@b+2
  1109  003076  C028  F063         	movff	?___flmul+3,___fldiv@b+3
  1110  00307A  0E00               	movlw	0
  1111  00307C  0100               	movlb	0	; () banked
  1112  00307E  6F64               	movwf	___fldiv@a& (0+255),b
  1113  003080  0EC0               	movlw	192
  1114  003082  6F65               	movwf	(___fldiv@a+1)& (0+255),b
  1115  003084  0E7F               	movlw	127
  1116  003086  6F66               	movwf	(___fldiv@a+2)& (0+255),b
  1117  003088  0E44               	movlw	68
  1118  00308A  6F67               	movwf	(___fldiv@a+3)& (0+255),b
  1119  00308C  EC4D  F013         	call	___fldiv	;wreg free
  1120  003090  C060  F048         	movff	?___fldiv,_velocidad
  1121  003094  C061  F049         	movff	?___fldiv+1,_velocidad+1
  1122  003098  C062  F04A         	movff	?___fldiv+2,_velocidad+2
  1123  00309C  C063  F04B         	movff	?___fldiv+3,_velocidad+3
  1124  0030A0                     
  1125                           ;main.c: 45:         set_duty_cpp1(velocidad);
  1126  0030A0  C048  F081         	movff	_velocidad,set_duty_cpp1@duty
  1127  0030A4  C049  F082         	movff	_velocidad+1,set_duty_cpp1@duty+1
  1128  0030A8  C04A  F083         	movff	_velocidad+2,set_duty_cpp1@duty+2
  1129  0030AC  C04B  F084         	movff	_velocidad+3,set_duty_cpp1@duty+3
  1130  0030B0  ECE0  F01C         	call	_set_duty_cpp1	;wreg free
  1131  0030B4                     
  1132                           ;main.c: 46:         sprintf(cadena,"Rpm : %.0f\r",(double)RPM);
  1133  0030B4  0E50               	movlw	low _cadena
  1134  0030B6  0101               	movlb	1	; () banked
  1135  0030B8  6F5F               	movwf	sprintf@s& (0+255),b
  1136  0030BA  0E01               	movlw	high _cadena
  1137  0030BC  6F60               	movwf	(sprintf@s+1)& (0+255),b
  1138  0030BE  0E01               	movlw	low STR_1
  1139  0030C0  6F61               	movwf	sprintf@fmt& (0+255),b
  1140  0030C2  0E08               	movlw	high STR_1
  1141  0030C4  6F62               	movwf	(sprintf@fmt+1)& (0+255),b
  1142  0030C6  C0F1  F163         	movff	_RPM,?_sprintf+4
  1143  0030CA  C0F2  F164         	movff	_RPM+1,?_sprintf+5
  1144  0030CE  C0F3  F165         	movff	_RPM+2,?_sprintf+6
  1145  0030D2  C0F4  F166         	movff	_RPM+3,?_sprintf+7
  1146  0030D6  ECAA  F01D         	call	_sprintf	;wreg free
  1147  0030DA                     
  1148                           ;main.c: 47:         USART_PutString(cadena);
  1149  0030DA  0E50               	movlw	low _cadena
  1150  0030DC  6E12               	movwf	USART_PutString@str^0,c
  1151  0030DE  0E01               	movlw	high _cadena
  1152  0030E0  6E13               	movwf	(USART_PutString@str+1)^0,c
  1153  0030E2  EC40  F01F         	call	_USART_PutString	;wreg free
  1154  0030E6  EFDD  F017         	goto	l5791
  1155  0030EA  EF07  F000         	goto	start
  1156  0030EE                     __end_of_main:
  1157                           	callstack 0
  1158                           
  1159 ;; *************** function _sprintf *****************
  1160 ;; Defined at:
  1161 ;;		line 9 in file "E:\MPLAB\pic\sources\c99\common\nf_sprintf.c"
  1162 ;; Parameters:    Size  Location     Type
  1163 ;;  s               2    0[BANK1 ] PTR unsigned char 
  1164 ;;		 -> cadena(15), 
  1165 ;;  fmt             2    2[BANK1 ] PTR const unsigned char 
  1166 ;;		 -> STR_1(12), 
  1167 ;; Auto vars:     Size  Location     Type
  1168 ;;  f               6   10[BANK1 ] struct _IO_FILE
  1169 ;;  ap              2    8[BANK1 ] PTR void [1]
  1170 ;;		 -> ?_sprintf(2), 
  1171 ;;  ret             2    0        int 
  1172 ;; Return value:  Size  Location     Type
  1173 ;;                  2    0[BANK1 ] int 
  1174 ;; Registers used:
  1175 ;;		wreg, fsr1l, fsr1h, fsr2l, fsr2h, status,2, status,0, tblptrl, tblptrh, tblptru, prodl, prodh, cstack
  1176 ;; Tracked objects:
  1177 ;;		On entry : 0/0
  1178 ;;		On exit  : 0/0
  1179 ;;		Unchanged: 0/0
  1180 ;; Data sizes:     COMRAM   BANK0   BANK1   BANK2   BANK3   BANK4   BANK5   BANK6   BANK7
  1181 ;;      Params:         0       0       8       0       0       0       0       0       0
  1182 ;;      Locals:         0       0       8       0       0       0       0       0       0
  1183 ;;      Temps:          0       0       0       0       0       0       0       0       0
  1184 ;;      Totals:         0       0      16       0       0       0       0       0       0
  1185 ;;Total ram usage:       16 bytes
  1186 ;; Hardware stack levels used: 1
  1187 ;; Hardware stack levels required when called: 9
  1188 ;; This function calls:
  1189 ;;		_vfprintf
  1190 ;; This function is called by:
  1191 ;;		_main
  1192 ;; This function uses a non-reentrant model
  1193 ;;
  1194                           
  1195                           	psect	text1
  1196  003B54                     __ptext1:
  1197                           	callstack 0
  1198  003B54                     _sprintf:
  1199                           	callstack 21
  1200  003B54  0E63               	movlw	low (?_sprintf+4)
  1201  003B56  0101               	movlb	1	; () banked
  1202  003B58  6F67               	movwf	sprintf@ap& (0+255),b
  1203  003B5A  0E01               	movlw	high (?_sprintf+4)
  1204  003B5C  6F68               	movwf	(sprintf@ap+1)& (0+255),b
  1205  003B5E  C15F  F169         	movff	sprintf@s,sprintf@f
  1206  003B62  C160  F16A         	movff	sprintf@s+1,sprintf@f+1
  1207  003B66                     
  1208                           ; BSR set to: 1
  1209  003B66  0E00               	movlw	0
  1210  003B68  6F6C               	movwf	(sprintf@f+3)& (0+255),b
  1211  003B6A  0E00               	movlw	0
  1212  003B6C  6F6B               	movwf	(sprintf@f+2)& (0+255),b
  1213  003B6E                     
  1214                           ; BSR set to: 1
  1215  003B6E  0E00               	movlw	0
  1216  003B70  6F6E               	movwf	(sprintf@f+5)& (0+255),b
  1217  003B72  0E00               	movlw	0
  1218  003B74  6F6D               	movwf	(sprintf@f+4)& (0+255),b
  1219  003B76                     
  1220                           ; BSR set to: 1
  1221  003B76  0E69               	movlw	low sprintf@f
  1222  003B78  0100               	movlb	0	; () banked
  1223  003B7A  6FE7               	movwf	vfprintf@fp& (0+255),b
  1224  003B7C  0E01               	movlw	high sprintf@f
  1225  003B7E  6FE8               	movwf	(vfprintf@fp+1)& (0+255),b
  1226  003B80  C161  F0E9         	movff	sprintf@fmt,vfprintf@fmt
  1227  003B84  C162  F0EA         	movff	sprintf@fmt+1,vfprintf@fmt+1
  1228  003B88  0E67               	movlw	low sprintf@ap
  1229  003B8A  6FEB               	movwf	vfprintf@ap& (0+255),b
  1230  003B8C  0E01               	movlw	high sprintf@ap
  1231  003B8E  6FEC               	movwf	(vfprintf@ap+1)& (0+255),b
  1232  003B90  EC1B  F01D         	call	_vfprintf	;wreg free
  1233  003B94  0101               	movlb	1	; () banked
  1234  003B96  516B               	movf	(sprintf@f+2)& (0+255),w,b
  1235  003B98  255F               	addwf	sprintf@s& (0+255),w,b
  1236  003B9A  6ED9               	movwf	fsr2l,c
  1237  003B9C  516C               	movf	(sprintf@f+3)& (0+255),w,b
  1238  003B9E  2160               	addwfc	(sprintf@s+1)& (0+255),w,b
  1239  003BA0  6EDA               	movwf	fsr2h,c
  1240  003BA2  0E00               	movlw	0
  1241  003BA4  6EDF               	movwf	indf2,c
  1242  003BA6                     
  1243                           ; BSR set to: 1
  1244  003BA6  0012               	return		;funcret
  1245  003BA8                     __end_of_sprintf:
  1246                           	callstack 0
  1247                           
  1248 ;; *************** function _vfprintf *****************
  1249 ;; Defined at:
  1250 ;;		line 1390 in file "E:\MPLAB\pic\sources\c99\common\doprnt.c"
  1251 ;; Parameters:    Size  Location     Type
  1252 ;;  fp              2  135[BANK0 ] PTR struct _IO_FILE
  1253 ;;		 -> sprintf@f(6), 
  1254 ;;  fmt             2  137[BANK0 ] PTR const unsigned char 
  1255 ;;		 -> STR_1(12), 
  1256 ;;  ap              2  139[BANK0 ] PTR PTR void 
  1257 ;;		 -> sprintf@ap(2), 
  1258 ;; Auto vars:     Size  Location     Type
  1259 ;;  cfmt            2  141[BANK0 ] PTR unsigned char 
  1260 ;;		 -> STR_1(12), 
  1261 ;; Return value:  Size  Location     Type
  1262 ;;                  2  135[BANK0 ] int 
  1263 ;; Registers used:
  1264 ;;		wreg, fsr1l, fsr1h, fsr2l, fsr2h, status,2, status,0, tblptrl, tblptrh, tblptru, prodl, prodh, cstack
  1265 ;; Tracked objects:
  1266 ;;		On entry : 0/0
  1267 ;;		On exit  : 0/0
  1268 ;;		Unchanged: 0/0
  1269 ;; Data sizes:     COMRAM   BANK0   BANK1   BANK2   BANK3   BANK4   BANK5   BANK6   BANK7
  1270 ;;      Params:         0       6       0       0       0       0       0       0       0
  1271 ;;      Locals:         0       2       0       0       0       0       0       0       0
  1272 ;;      Temps:          0       0       0       0       0       0       0       0       0
  1273 ;;      Totals:         0       8       0       0       0       0       0       0       0
  1274 ;;Total ram usage:        8 bytes
  1275 ;; Hardware stack levels used: 1
  1276 ;; Hardware stack levels required when called: 8
  1277 ;; This function calls:
  1278 ;;		_vfpfcnvrt
  1279 ;; This function is called by:
  1280 ;;		_sprintf
  1281 ;; This function uses a non-reentrant model
  1282 ;;
  1283                           
  1284                           	psect	text2
  1285  003A36                     __ptext2:
  1286                           	callstack 0
  1287  003A36                     _vfprintf:
  1288                           	callstack 21
  1289  003A36                     
  1290                           ;E:\MPLAB\pic\sources\c99\common\doprnt.c: 1390: int vfprintf(FILE *fp, const char *fmt,
      +                           va_list ap);E:\MPLAB\pic\sources\c99\common\doprnt.c: 1391: {;E:\MPLAB\pic\sources\c99\
      +                          common\doprnt.c: 1393:     char *cfmt;;E:\MPLAB\pic\sources\c99\common\doprnt.c: 1395:  
      +                             cfmt = (char *)fmt;
  1291  003A36  C0E9  F0ED         	movff	vfprintf@fmt,vfprintf@cfmt
  1292  003A3A  C0EA  F0EE         	movff	vfprintf@fmt+1,vfprintf@cfmt+1
  1293  003A3E                     
  1294                           ;E:\MPLAB\pic\sources\c99\common\doprnt.c: 1396:     nout = 0;
  1295  003A3E  0E00               	movlw	0
  1296  003A40  0100               	movlb	0	; () banked
  1297  003A42  6FF6               	movwf	(_nout+1)& (0+255),b
  1298  003A44  0E00               	movlw	0
  1299  003A46  6FF5               	movwf	_nout& (0+255),b
  1300                           
  1301                           ;E:\MPLAB\pic\sources\c99\common\doprnt.c: 1397:     while (*cfmt) {
  1302  003A48  EF39  F01D         	goto	l5763
  1303  003A4C                     l5761:
  1304                           
  1305                           ; BSR set to: 0
  1306                           ;E:\MPLAB\pic\sources\c99\common\doprnt.c: 1398:         nout += vfpfcnvrt(fp, &cfmt, ap
      +                          );
  1307  003A4C  C0E7  F0D1         	movff	vfprintf@fp,vfpfcnvrt@fp
  1308  003A50  C0E8  F0D2         	movff	vfprintf@fp+1,vfpfcnvrt@fp+1
  1309  003A54  0EED               	movlw	low vfprintf@cfmt
  1310  003A56  6FD3               	movwf	vfpfcnvrt@fmt& (0+255),b
  1311  003A58  0E00               	movlw	high vfprintf@cfmt
  1312  003A5A  6FD4               	movwf	(vfpfcnvrt@fmt+1)& (0+255),b
  1313  003A5C  C0EB  F0D5         	movff	vfprintf@ap,vfpfcnvrt@ap
  1314  003A60  C0EC  F0D6         	movff	vfprintf@ap+1,vfpfcnvrt@ap+1
  1315  003A64  EC01  F00F         	call	_vfpfcnvrt	;wreg free
  1316  003A68  0100               	movlb	0	; () banked
  1317  003A6A  51D1               	movf	?_vfpfcnvrt& (0+255),w,b
  1318  003A6C  27F5               	addwf	_nout& (0+255),f,b
  1319  003A6E  51D2               	movf	(?_vfpfcnvrt+1)& (0+255),w,b
  1320  003A70  23F6               	addwfc	(_nout+1)& (0+255),f,b
  1321  003A72                     l5763:
  1322                           
  1323                           ; BSR set to: 0
  1324                           ;E:\MPLAB\pic\sources\c99\common\doprnt.c: 1397:     while (*cfmt) {
  1325  003A72  C0ED  FFF6         	movff	vfprintf@cfmt,tblptrl
  1326  003A76  C0EE  FFF7         	movff	vfprintf@cfmt+1,tblptrh
  1327  003A7A                     	if	0	;tblptru may be non-zero
  1328  003A7A                     	endif
  1329  003A7A                     	if	0	;tblptru may be non-zero
  1330  003A7A                     	endif
  1331  003A7A  0008               	tblrd		*
  1332  003A7C  50F5               	movf	tablat,w,c
  1333  003A7E  0900               	iorlw	0
  1334  003A80  A4D8               	btfss	status,2,c
  1335  003A82  EF45  F01D         	goto	u8141
  1336  003A86  EF47  F01D         	goto	u8140
  1337  003A8A                     u8141:
  1338  003A8A  EF26  F01D         	goto	l5761
  1339  003A8E                     u8140:
  1340  003A8E                     
  1341                           ; BSR set to: 0
  1342                           ;E:\MPLAB\pic\sources\c99\common\doprnt.c: 1400:     return nout;
  1343  003A8E  C0F5  F0E7         	movff	_nout,?_vfprintf
  1344  003A92  C0F6  F0E8         	movff	_nout+1,?_vfprintf+1
  1345  003A96                     
  1346                           ; BSR set to: 0
  1347  003A96  0012               	return		;funcret
  1348  003A98                     __end_of_vfprintf:
  1349                           	callstack 0
  1350                           
  1351 ;; *************** function _vfpfcnvrt *****************
  1352 ;; Defined at:
  1353 ;;		line 692 in file "E:\MPLAB\pic\sources\c99\common\doprnt.c"
  1354 ;; Parameters:    Size  Location     Type
  1355 ;;  fp              2  113[BANK0 ] PTR struct _IO_FILE
  1356 ;;		 -> sprintf@f(6), 
  1357 ;;  fmt             2  115[BANK0 ] PTR PTR unsigned char 
  1358 ;;		 -> vfprintf@cfmt(2), 
  1359 ;;  ap              2  117[BANK0 ] PTR PTR void 
  1360 ;;		 -> sprintf@ap(2), 
  1361 ;; Auto vars:     Size  Location     Type
  1362 ;;  llu             8    0        unsigned long long 
  1363 ;;  ll              8    0        long long 
  1364 ;;  f               4  127[BANK0 ] long long 
  1365 ;;  ct              3  131[BANK0 ] unsigned char [3]
  1366 ;;  vp              3    0        PTR void 
  1367 ;;  cp              3    0        PTR unsigned char 
  1368 ;;  i               2    0        int 
  1369 ;;  done            2    0        int 
  1370 ;;  c               1  134[BANK0 ] unsigned char 
  1371 ;; Return value:  Size  Location     Type
  1372 ;;                  2  113[BANK0 ] int 
  1373 ;; Registers used:
  1374 ;;		wreg, fsr1l, fsr1h, fsr2l, fsr2h, status,2, status,0, tblptrl, tblptrh, tblptru, prodl, prodh, cstack
  1375 ;; Tracked objects:
  1376 ;;		On entry : 0/0
  1377 ;;		On exit  : 0/0
  1378 ;;		Unchanged: 0/0
  1379 ;; Data sizes:     COMRAM   BANK0   BANK1   BANK2   BANK3   BANK4   BANK5   BANK6   BANK7
  1380 ;;      Params:         0       6       0       0       0       0       0       0       0
  1381 ;;      Locals:         0      12       0       0       0       0       0       0       0
  1382 ;;      Temps:          0       4       0       0       0       0       0       0       0
  1383 ;;      Totals:         0      22       0       0       0       0       0       0       0
  1384 ;;Total ram usage:       22 bytes
  1385 ;; Hardware stack levels used: 1
  1386 ;; Hardware stack levels required when called: 7
  1387 ;; This function calls:
  1388 ;;		_atoi
  1389 ;;		_efgtoa
  1390 ;;		_fputc
  1391 ;;		_isdigit
  1392 ;;		_isupper
  1393 ;;		_strncmp
  1394 ;;		_tolower
  1395 ;; This function is called by:
  1396 ;;		_vfprintf
  1397 ;; This function uses a non-reentrant model
  1398 ;;
  1399                           
  1400                           	psect	text3
  1401  001E02                     __ptext3:
  1402                           	callstack 0
  1403  001E02                     _vfpfcnvrt:
  1404                           	callstack 21
  1405  001E02                     
  1406                           ;E:\MPLAB\pic\sources\c99\common\doprnt.c: 692: static int vfpfcnvrt(FILE *fp, char *fmt
      +                          [], va_list ap);E:\MPLAB\pic\sources\c99\common\doprnt.c: 693: {;E:\MPLAB\pic\sources\c9
      +                          9\common\doprnt.c: 694:     char c, *cp, ct[3];;E:\MPLAB\pic\sources\c99\common\doprnt.c
      +                          : 695:     int done, i;;E:\MPLAB\pic\sources\c99\common\doprnt.c: 696:     long long ll;
      +                          ;E:\MPLAB\pic\sources\c99\common\doprnt.c: 697:     unsigned long long llu;;E:\MPLAB\pic
      +                          \sources\c99\common\doprnt.c: 698:     long double f;;E:\MPLAB\pic\sources\c99\common\do
      +                          prnt.c: 699:     void *vp;
  1407  001E02  C0D3  FFD9         	movff	vfpfcnvrt@fmt,fsr2l
  1408  001E06  C0D4  FFDA         	movff	vfpfcnvrt@fmt+1,fsr2h
  1409  001E0A  CFDE FFF6          	movff	postinc2,tblptrl
  1410  001E0E  CFDD FFF7          	movff	postdec2,tblptrh
  1411  001E12                     	if	0	;tblptru may be non-zero
  1412  001E12                     	endif
  1413  001E12                     	if	0	;tblptru may be non-zero
  1414  001E12                     	endif
  1415  001E12  0008               	tblrd		*
  1416  001E14  50F5               	movf	tablat,w,c
  1417  001E16  0A25               	xorlw	37
  1418  001E18  A4D8               	btfss	status,2,c
  1419  001E1A  EF11  F00F         	goto	u8001
  1420  001E1E  EF13  F00F         	goto	u8000
  1421  001E22                     u8001:
  1422  001E22  EF1C  F011         	goto	l5749
  1423  001E26                     u8000:
  1424  001E26                     
  1425                           ;E:\MPLAB\pic\sources\c99\common\doprnt.c: 703:         ++*fmt;
  1426  001E26  C0D3  FFD9         	movff	vfpfcnvrt@fmt,fsr2l
  1427  001E2A  C0D4  FFDA         	movff	vfpfcnvrt@fmt+1,fsr2h
  1428  001E2E  2ADE               	incf	postinc2,f,c
  1429  001E30  0E00               	movlw	0
  1430  001E32  22DD               	addwfc	postdec2,f,c
  1431  001E34                     
  1432                           ;E:\MPLAB\pic\sources\c99\common\doprnt.c: 705:         flags = width = 0;
  1433  001E34  0E00               	movlw	0
  1434  001E36  0100               	movlb	0	; () banked
  1435  001E38  6FF8               	movwf	(_width+1)& (0+255),b
  1436  001E3A  0E00               	movlw	0
  1437  001E3C  6FF7               	movwf	_width& (0+255),b
  1438  001E3E  C0F7  F04C         	movff	_width,_flags
  1439  001E42  C0F8  F04D         	movff	_width+1,_flags+1
  1440  001E46                     
  1441                           ; BSR set to: 0
  1442                           ;E:\MPLAB\pic\sources\c99\common\doprnt.c: 706:         prec = -1;
  1443  001E46  69F9               	setf	_prec& (0+255),b
  1444  001E48  69FA               	setf	(_prec+1)& (0+255),b
  1445  001E4A                     
  1446                           ; BSR set to: 0
  1447                           ;E:\MPLAB\pic\sources\c99\common\doprnt.c: 762:         if ((*fmt)[0] == '.') {
  1448  001E4A  C0D3  FFD9         	movff	vfpfcnvrt@fmt,fsr2l
  1449  001E4E  C0D4  FFDA         	movff	vfpfcnvrt@fmt+1,fsr2h
  1450  001E52  CFDE FFF6          	movff	postinc2,tblptrl
  1451  001E56  CFDD FFF7          	movff	postdec2,tblptrh
  1452  001E5A                     	if	0	;tblptru may be non-zero
  1453  001E5A                     	endif
  1454  001E5A                     	if	0	;tblptru may be non-zero
  1455  001E5A                     	endif
  1456  001E5A  0008               	tblrd		*
  1457  001E5C  50F5               	movf	tablat,w,c
  1458  001E5E  0A2E               	xorlw	46
  1459  001E60  A4D8               	btfss	status,2,c
  1460  001E62  EF35  F00F         	goto	u8011
  1461  001E66  EF37  F00F         	goto	u8010
  1462  001E6A                     u8011:
  1463  001E6A  EFB5  F00F         	goto	l5695
  1464  001E6E                     u8010:
  1465  001E6E                     
  1466                           ; BSR set to: 0
  1467                           ;E:\MPLAB\pic\sources\c99\common\doprnt.c: 763:             prec = 0;
  1468  001E6E  0E00               	movlw	0
  1469  001E70  6FFA               	movwf	(_prec+1)& (0+255),b
  1470  001E72  0E00               	movlw	0
  1471  001E74  6FF9               	movwf	_prec& (0+255),b
  1472  001E76                     
  1473                           ; BSR set to: 0
  1474                           ;E:\MPLAB\pic\sources\c99\common\doprnt.c: 764:             ++*fmt;
  1475  001E76  C0D3  FFD9         	movff	vfpfcnvrt@fmt,fsr2l
  1476  001E7A  C0D4  FFDA         	movff	vfpfcnvrt@fmt+1,fsr2h
  1477  001E7E  2ADE               	incf	postinc2,f,c
  1478  001E80  0E00               	movlw	0
  1479  001E82  22DD               	addwfc	postdec2,f,c
  1480  001E84                     
  1481                           ; BSR set to: 0
  1482                           ;E:\MPLAB\pic\sources\c99\common\doprnt.c: 765:             if ((*fmt)[0] == '*') {
  1483  001E84  C0D3  FFD9         	movff	vfpfcnvrt@fmt,fsr2l
  1484  001E88  C0D4  FFDA         	movff	vfpfcnvrt@fmt+1,fsr2h
  1485  001E8C  CFDE FFF6          	movff	postinc2,tblptrl
  1486  001E90  CFDD FFF7          	movff	postdec2,tblptrh
  1487  001E94                     	if	0	;tblptru may be non-zero
  1488  001E94                     	endif
  1489  001E94                     	if	0	;tblptru may be non-zero
  1490  001E94                     	endif
  1491  001E94  0008               	tblrd		*
  1492  001E96  50F5               	movf	tablat,w,c
  1493  001E98  0A2A               	xorlw	42
  1494  001E9A  A4D8               	btfss	status,2,c
  1495  001E9C  EF52  F00F         	goto	u8021
  1496  001EA0  EF54  F00F         	goto	u8020
  1497  001EA4                     u8021:
  1498  001EA4  EF71  F00F         	goto	l5685
  1499  001EA8                     u8020:
  1500  001EA8                     
  1501                           ; BSR set to: 0
  1502                           ;E:\MPLAB\pic\sources\c99\common\doprnt.c: 766:                 ++*fmt;
  1503  001EA8  C0D3  FFD9         	movff	vfpfcnvrt@fmt,fsr2l
  1504  001EAC  C0D4  FFDA         	movff	vfpfcnvrt@fmt+1,fsr2h
  1505  001EB0  2ADE               	incf	postinc2,f,c
  1506  001EB2  0E00               	movlw	0
  1507  001EB4  22DD               	addwfc	postdec2,f,c
  1508                           
  1509                           ;E:\MPLAB\pic\sources\c99\common\doprnt.c: 767:                 prec = (*(int *)__va_arg
      +                          (*(int **)ap, (int)0));
  1510  001EB6  C0D5  FFD9         	movff	vfpfcnvrt@ap,fsr2l
  1511  001EBA  C0D6  FFDA         	movff	vfpfcnvrt@ap+1,fsr2h
  1512  001EBE  CFDF F0D7          	movff	indf2,??_vfpfcnvrt
  1513  001EC2  0E02               	movlw	2
  1514  001EC4  26DE               	addwf	postinc2,f,c
  1515  001EC6  CFDF F0D8          	movff	indf2,??_vfpfcnvrt+1
  1516  001ECA  0E00               	movlw	0
  1517  001ECC  22DD               	addwfc	postdec2,f,c
  1518  001ECE  C0D7  FFD9         	movff	??_vfpfcnvrt,fsr2l
  1519  001ED2  C0D8  FFDA         	movff	??_vfpfcnvrt+1,fsr2h
  1520  001ED6  CFDE F0F9          	movff	postinc2,_prec
  1521  001EDA  CFDD F0FA          	movff	postdec2,_prec+1
  1522                           
  1523                           ;E:\MPLAB\pic\sources\c99\common\doprnt.c: 768:             } else {
  1524  001EDE  EFB5  F00F         	goto	l5695
  1525  001EE2                     l5685:
  1526                           
  1527                           ; BSR set to: 0
  1528                           ;E:\MPLAB\pic\sources\c99\common\doprnt.c: 769:                 prec = atoi(*fmt);
  1529  001EE2  C0D3  FFD9         	movff	vfpfcnvrt@fmt,fsr2l
  1530  001EE6  C0D4  FFDA         	movff	vfpfcnvrt@fmt+1,fsr2h
  1531  001EEA  CFDE F018          	movff	postinc2,atoi@s
  1532  001EEE  CFDD F019          	movff	postdec2,atoi@s+1
  1533  001EF2  EC00  F017         	call	_atoi	;wreg free
  1534  001EF6  C018  F0F9         	movff	?_atoi,_prec
  1535  001EFA  C019  F0FA         	movff	?_atoi+1,_prec+1
  1536                           
  1537                           ;E:\MPLAB\pic\sources\c99\common\doprnt.c: 770:                 while ((0 ? isdigit((*fm
      +                          t)[0]) : ((unsigned)((*fmt)[0])-'0') < 10)) {
  1538  001EFE  EF88  F00F         	goto	l5689
  1539  001F02                     l5687:
  1540                           
  1541                           ; BSR set to: 0
  1542                           ;E:\MPLAB\pic\sources\c99\common\doprnt.c: 771:                     ++*fmt;
  1543  001F02  C0D3  FFD9         	movff	vfpfcnvrt@fmt,fsr2l
  1544  001F06  C0D4  FFDA         	movff	vfpfcnvrt@fmt+1,fsr2h
  1545  001F0A  2ADE               	incf	postinc2,f,c
  1546  001F0C  0E00               	movlw	0
  1547  001F0E  22DD               	addwfc	postdec2,f,c
  1548  001F10                     l5689:
  1549  001F10  0ED0               	movlw	208
  1550  001F12  0100               	movlb	0	; () banked
  1551  001F14  6FD7               	movwf	??_vfpfcnvrt& (0+255),b
  1552  001F16  0EFF               	movlw	255
  1553  001F18  6FD8               	movwf	(??_vfpfcnvrt+1)& (0+255),b
  1554  001F1A  C0D3  FFD9         	movff	vfpfcnvrt@fmt,fsr2l
  1555  001F1E  C0D4  FFDA         	movff	vfpfcnvrt@fmt+1,fsr2h
  1556  001F22  CFDE FFF6          	movff	postinc2,tblptrl
  1557  001F26  CFDD FFF7          	movff	postdec2,tblptrh
  1558  001F2A                     	if	0	;tblptru may be non-zero
  1559  001F2A                     	endif
  1560  001F2A                     	if	0	;tblptru may be non-zero
  1561  001F2A                     	endif
  1562  001F2A  0008               	tblrd		*
  1563  001F2C  50F5               	movf	tablat,w,c
  1564  001F2E  6FD9               	movwf	(??_vfpfcnvrt+2)& (0+255),b
  1565  001F30  6BDA               	clrf	(??_vfpfcnvrt+3)& (0+255),b
  1566  001F32  51D7               	movf	??_vfpfcnvrt& (0+255),w,b
  1567  001F34  27D9               	addwf	(??_vfpfcnvrt+2)& (0+255),f,b
  1568  001F36  51D8               	movf	(??_vfpfcnvrt+1)& (0+255),w,b
  1569  001F38  23DA               	addwfc	(??_vfpfcnvrt+3)& (0+255),f,b
  1570  001F3A  51DA               	movf	(??_vfpfcnvrt+3)& (0+255),w,b
  1571  001F3C  E10A               	bnz	u8030
  1572  001F3E  0E0A               	movlw	10
  1573  001F40  5DD9               	subwf	(??_vfpfcnvrt+2)& (0+255),w,b
  1574  001F42  A0D8               	btfss	status,0,c
  1575  001F44  EFA6  F00F         	goto	u8031
  1576  001F48  EFA9  F00F         	goto	u8030
  1577  001F4C                     u8031:
  1578  001F4C  0E01               	movlw	1
  1579  001F4E  EFAA  F00F         	goto	u8040
  1580  001F52                     u8030:
  1581  001F52  0E00               	movlw	0
  1582  001F54                     u8040:
  1583  001F54  6FDB               	movwf	_vfpfcnvrt$1350& (0+255),b
  1584  001F56  6BDC               	clrf	(_vfpfcnvrt$1350+1)& (0+255),b
  1585  001F58                     
  1586                           ; BSR set to: 0
  1587  001F58  51DB               	movf	_vfpfcnvrt$1350& (0+255),w,b
  1588  001F5A  11DC               	iorwf	(_vfpfcnvrt$1350+1)& (0+255),w,b
  1589  001F5C  A4D8               	btfss	status,2,c
  1590  001F5E  EFB3  F00F         	goto	u8051
  1591  001F62  EFB5  F00F         	goto	u8050
  1592  001F66                     u8051:
  1593  001F66  EF81  F00F         	goto	l5687
  1594  001F6A                     u8050:
  1595  001F6A                     l5695:
  1596                           
  1597                           ; BSR set to: 0
  1598                           ;E:\MPLAB\pic\sources\c99\common\doprnt.c: 779:         ct[0] = (char)tolower((int)(*fmt
      +                          )[0]);
  1599  001F6A  C0D3  FFD9         	movff	vfpfcnvrt@fmt,fsr2l
  1600  001F6E  C0D4  FFDA         	movff	vfpfcnvrt@fmt+1,fsr2h
  1601  001F72  CFDE FFF6          	movff	postinc2,tblptrl
  1602  001F76  CFDD FFF7          	movff	postdec2,tblptrh
  1603  001F7A                     	if	0	;tblptru may be non-zero
  1604  001F7A                     	endif
  1605  001F7A                     	if	0	;tblptru may be non-zero
  1606  001F7A                     	endif
  1607  001F7A  0008               	tblrd		*
  1608  001F7C  50F5               	movf	tablat,w,c
  1609  001F7E  6E17               	movwf	tolower@c^0,c
  1610  001F80  6A18               	clrf	(tolower@c+1)^0,c
  1611  001F82  EC4C  F01D         	call	_tolower	;wreg free
  1612  001F86  5017               	movf	?_tolower^0,w,c
  1613  001F88  0100               	movlb	0	; () banked
  1614  001F8A  6FE3               	movwf	vfpfcnvrt@ct& (0+255),b
  1615  001F8C                     
  1616                           ; BSR set to: 0
  1617                           ;E:\MPLAB\pic\sources\c99\common\doprnt.c: 780:         if (ct[0]) {
  1618  001F8C  51E3               	movf	vfpfcnvrt@ct& (0+255),w,b
  1619  001F8E  B4D8               	btfsc	status,2,c
  1620  001F90  EFCC  F00F         	goto	u8061
  1621  001F94  EFCE  F00F         	goto	u8060
  1622  001F98                     u8061:
  1623  001F98  EF08  F010         	goto	l5705
  1624  001F9C                     u8060:
  1625  001F9C                     
  1626                           ; BSR set to: 0
  1627                           ;E:\MPLAB\pic\sources\c99\common\doprnt.c: 781:             ct[1] = (char)tolower((int)(
      +                          *fmt)[1]);
  1628  001F9C  C0D3  FFD9         	movff	vfpfcnvrt@fmt,fsr2l
  1629  001FA0  C0D4  FFDA         	movff	vfpfcnvrt@fmt+1,fsr2h
  1630  001FA4  CFDE F0D7          	movff	postinc2,??_vfpfcnvrt
  1631  001FA8  CFDD F0D8          	movff	postdec2,??_vfpfcnvrt+1
  1632  001FAC  0E01               	movlw	1
  1633  001FAE  27D7               	addwf	??_vfpfcnvrt& (0+255),f,b
  1634  001FB0  0E00               	movlw	0
  1635  001FB2  23D8               	addwfc	(??_vfpfcnvrt+1)& (0+255),f,b
  1636  001FB4  C0D7  FFF6         	movff	??_vfpfcnvrt,tblptrl
  1637  001FB8  C0D8  FFF7         	movff	??_vfpfcnvrt+1,tblptrh
  1638  001FBC                     	if	0	;tblptru may be non-zero
  1639  001FBC                     	endif
  1640  001FBC                     	if	0	;tblptru may be non-zero
  1641  001FBC                     	endif
  1642  001FBC  0008               	tblrd		*
  1643  001FBE  50F5               	movf	tablat,w,c
  1644  001FC0  6E17               	movwf	tolower@c^0,c
  1645  001FC2  6A18               	clrf	(tolower@c+1)^0,c
  1646  001FC4  EC4C  F01D         	call	_tolower	;wreg free
  1647  001FC8  5017               	movf	?_tolower^0,w,c
  1648  001FCA  0100               	movlb	0	; () banked
  1649  001FCC  6FE4               	movwf	(vfpfcnvrt@ct+1)& (0+255),b
  1650  001FCE                     
  1651                           ; BSR set to: 0
  1652                           ;E:\MPLAB\pic\sources\c99\common\doprnt.c: 782:             if (ct[1]) {
  1653  001FCE  51E4               	movf	(vfpfcnvrt@ct+1)& (0+255),w,b
  1654  001FD0  B4D8               	btfsc	status,2,c
  1655  001FD2  EFED  F00F         	goto	u8071
  1656  001FD6  EFEF  F00F         	goto	u8070
  1657  001FDA                     u8071:
  1658  001FDA  EF08  F010         	goto	l5705
  1659  001FDE                     u8070:
  1660  001FDE                     
  1661                           ; BSR set to: 0
  1662                           ;E:\MPLAB\pic\sources\c99\common\doprnt.c: 783:                 ct[2] = (char)tolower((i
      +                          nt)(*fmt)[2]);
  1663  001FDE  C0D3  FFD9         	movff	vfpfcnvrt@fmt,fsr2l
  1664  001FE2  C0D4  FFDA         	movff	vfpfcnvrt@fmt+1,fsr2h
  1665  001FE6  CFDE F0D7          	movff	postinc2,??_vfpfcnvrt
  1666  001FEA  CFDD F0D8          	movff	postdec2,??_vfpfcnvrt+1
  1667  001FEE  0E02               	movlw	2
  1668  001FF0  27D7               	addwf	??_vfpfcnvrt& (0+255),f,b
  1669  001FF2  0E00               	movlw	0
  1670  001FF4  23D8               	addwfc	(??_vfpfcnvrt+1)& (0+255),f,b
  1671  001FF6  C0D7  FFF6         	movff	??_vfpfcnvrt,tblptrl
  1672  001FFA  C0D8  FFF7         	movff	??_vfpfcnvrt+1,tblptrh
  1673  001FFE                     	if	0	;tblptru may be non-zero
  1674  001FFE                     	endif
  1675  001FFE                     	if	0	;tblptru may be non-zero
  1676  001FFE                     	endif
  1677  001FFE  0008               	tblrd		*
  1678  002000  50F5               	movf	tablat,w,c
  1679  002002  6E17               	movwf	tolower@c^0,c
  1680  002004  6A18               	clrf	(tolower@c+1)^0,c
  1681  002006  EC4C  F01D         	call	_tolower	;wreg free
  1682  00200A  5017               	movf	?_tolower^0,w,c
  1683  00200C  0100               	movlb	0	; () banked
  1684  00200E  6FE5               	movwf	(vfpfcnvrt@ct+2)& (0+255),b
  1685  002010                     l5705:
  1686                           
  1687                           ; BSR set to: 0
  1688                           ;E:\MPLAB\pic\sources\c99\common\doprnt.c: 942:         if (ct[0] == 'f') {
  1689  002010  0E66               	movlw	102
  1690  002012  19E3               	xorwf	vfpfcnvrt@ct& (0+255),w,b
  1691  002014  A4D8               	btfss	status,2,c
  1692  002016  EF0F  F010         	goto	u8081
  1693  00201A  EF11  F010         	goto	u8080
  1694  00201E                     u8081:
  1695  00201E  EF51  F010         	goto	l5717
  1696  002022                     u8080:
  1697  002022                     
  1698                           ; BSR set to: 0
  1699                           ;E:\MPLAB\pic\sources\c99\common\doprnt.c: 944:             c = (*fmt)[0];
  1700  002022  C0D3  FFD9         	movff	vfpfcnvrt@fmt,fsr2l
  1701  002026  C0D4  FFDA         	movff	vfpfcnvrt@fmt+1,fsr2h
  1702  00202A  CFDE FFF6          	movff	postinc2,tblptrl
  1703  00202E  CFDD FFF7          	movff	postdec2,tblptrh
  1704  002032                     	if	0	;tblptru may be non-zero
  1705  002032                     	endif
  1706  002032                     	if	0	;tblptru may be non-zero
  1707  002032                     	endif
  1708  002032  0008               	tblrd		*
  1709  002034  CFF5 F0E6          	movff	tablat,vfpfcnvrt@c
  1710  002038                     
  1711                           ; BSR set to: 0
  1712                           ;E:\MPLAB\pic\sources\c99\common\doprnt.c: 945:             ++*fmt;
  1713  002038  C0D3  FFD9         	movff	vfpfcnvrt@fmt,fsr2l
  1714  00203C  C0D4  FFDA         	movff	vfpfcnvrt@fmt+1,fsr2h
  1715  002040  2ADE               	incf	postinc2,f,c
  1716  002042  0E00               	movlw	0
  1717  002044  22DD               	addwfc	postdec2,f,c
  1718  002046                     
  1719                           ; BSR set to: 0
  1720                           ;E:\MPLAB\pic\sources\c99\common\doprnt.c: 946:             f = (long double)(*(double *
      +                          )__va_arg(*(double **)ap, (double)0));
  1721  002046  C0D5  FFD9         	movff	vfpfcnvrt@ap,fsr2l
  1722  00204A  C0D6  FFDA         	movff	vfpfcnvrt@ap+1,fsr2h
  1723  00204E  CFDF F0D7          	movff	indf2,??_vfpfcnvrt
  1724  002052  0E04               	movlw	4
  1725  002054  26DE               	addwf	postinc2,f,c
  1726  002056  CFDF F0D8          	movff	indf2,??_vfpfcnvrt+1
  1727  00205A  0E00               	movlw	0
  1728  00205C  22DD               	addwfc	postdec2,f,c
  1729  00205E  C0D7  FFD9         	movff	??_vfpfcnvrt,fsr2l
  1730  002062  C0D8  FFDA         	movff	??_vfpfcnvrt+1,fsr2h
  1731  002066  CFDE F0DF          	movff	postinc2,vfpfcnvrt@f
  1732  00206A  CFDE F0E0          	movff	postinc2,vfpfcnvrt@f+1
  1733  00206E  CFDE F0E1          	movff	postinc2,vfpfcnvrt@f+2
  1734  002072  CFDE F0E2          	movff	postinc2,vfpfcnvrt@f+3
  1735  002076                     l5713:
  1736                           
  1737                           ; BSR set to: 0
  1738                           ;E:\MPLAB\pic\sources\c99\common\doprnt.c: 948:             return efgtoa(fp, f, c);
  1739  002076  C0D1  F08D         	movff	vfpfcnvrt@fp,efgtoa@fp
  1740  00207A  C0D2  F08E         	movff	vfpfcnvrt@fp+1,efgtoa@fp+1
  1741  00207E  C0DF  F08F         	movff	vfpfcnvrt@f,efgtoa@f
  1742  002082  C0E0  F090         	movff	vfpfcnvrt@f+1,efgtoa@f+1
  1743  002086  C0E1  F091         	movff	vfpfcnvrt@f+2,efgtoa@f+2
  1744  00208A  C0E2  F092         	movff	vfpfcnvrt@f+3,efgtoa@f+3
  1745  00208E  C0E6  F093         	movff	vfpfcnvrt@c,efgtoa@c
  1746  002092  EC11  F004         	call	_efgtoa	;wreg free
  1747  002096  C08D  F0D1         	movff	?_efgtoa,?_vfpfcnvrt
  1748  00209A  C08E  F0D2         	movff	?_efgtoa+1,?_vfpfcnvrt+1
  1749  00209E  EF37  F011         	goto	l979
  1750  0020A2                     l5717:
  1751                           
  1752                           ; BSR set to: 0
  1753                           ;E:\MPLAB\pic\sources\c99\common\doprnt.c: 950:         if (!strncmp(ct, "lf", ((sizeof(
      +                          "lf")/sizeof("lf"[0]))-1))) {
  1754  0020A2  0EE3               	movlw	low vfpfcnvrt@ct
  1755  0020A4  6E11               	movwf	strncmp@_l^0,c
  1756  0020A6  0E00               	movlw	high vfpfcnvrt@ct
  1757  0020A8  6E12               	movwf	(strncmp@_l+1)^0,c
  1758  0020AA  0E1D               	movlw	low STR_10
  1759  0020AC  6E13               	movwf	strncmp@_r^0,c
  1760  0020AE  0E08               	movlw	high STR_10
  1761  0020B0  6E14               	movwf	(strncmp@_r+1)^0,c
  1762  0020B2  0E00               	movlw	0
  1763  0020B4  6E16               	movwf	(strncmp@n+1)^0,c
  1764  0020B6  0E02               	movlw	2
  1765  0020B8  6E15               	movwf	strncmp@n^0,c
  1766  0020BA  ECFD  F019         	call	_strncmp	;wreg free
  1767  0020BE  5011               	movf	?_strncmp^0,w,c
  1768  0020C0  1012               	iorwf	(?_strncmp+1)^0,w,c
  1769  0020C2  A4D8               	btfss	status,2,c
  1770  0020C4  EF66  F010         	goto	u8091
  1771  0020C8  EF68  F010         	goto	u8090
  1772  0020CC                     u8091:
  1773  0020CC  EFE4  F010         	goto	l5733
  1774  0020D0                     u8090:
  1775  0020D0                     
  1776                           ;E:\MPLAB\pic\sources\c99\common\doprnt.c: 953:             if ((0 ? isupper((int)(*fmt)
      +                          [0]) : ((unsigned)((int)(*fmt)[0])-'A') < 26)) {
  1777  0020D0  C0D3  FFD9         	movff	vfpfcnvrt@fmt,fsr2l
  1778  0020D4  C0D4  FFDA         	movff	vfpfcnvrt@fmt+1,fsr2h
  1779  0020D8  CFDE F0D7          	movff	postinc2,??_vfpfcnvrt
  1780  0020DC  CFDD F0D8          	movff	postdec2,??_vfpfcnvrt+1
  1781  0020E0  0E01               	movlw	1
  1782  0020E2  0100               	movlb	0	; () banked
  1783  0020E4  27D7               	addwf	??_vfpfcnvrt& (0+255),f,b
  1784  0020E6  0E00               	movlw	0
  1785  0020E8  23D8               	addwfc	(??_vfpfcnvrt+1)& (0+255),f,b
  1786  0020EA  C0D7  FFF6         	movff	??_vfpfcnvrt,tblptrl
  1787  0020EE  C0D8  FFF7         	movff	??_vfpfcnvrt+1,tblptrh
  1788  0020F2                     	if	0	;tblptru may be non-zero
  1789  0020F2                     	endif
  1790  0020F2                     	if	0	;tblptru may be non-zero
  1791  0020F2                     	endif
  1792  0020F2  0008               	tblrd		*
  1793  0020F4  CFF5 F0E6          	movff	tablat,vfpfcnvrt@c
  1794  0020F8  0EBF               	movlw	191
  1795  0020FA  6FD7               	movwf	??_vfpfcnvrt& (0+255),b
  1796  0020FC  0EFF               	movlw	255
  1797  0020FE  6FD8               	movwf	(??_vfpfcnvrt+1)& (0+255),b
  1798  002100  C0D3  FFD9         	movff	vfpfcnvrt@fmt,fsr2l
  1799  002104  C0D4  FFDA         	movff	vfpfcnvrt@fmt+1,fsr2h
  1800  002108  CFDE FFF6          	movff	postinc2,tblptrl
  1801  00210C  CFDD FFF7          	movff	postdec2,tblptrh
  1802  002110                     	if	0	;tblptru may be non-zero
  1803  002110                     	endif
  1804  002110                     	if	0	;tblptru may be non-zero
  1805  002110                     	endif
  1806  002110  0008               	tblrd		*
  1807  002112  50F5               	movf	tablat,w,c
  1808  002114  6FD9               	movwf	(??_vfpfcnvrt+2)& (0+255),b
  1809  002116  6BDA               	clrf	(??_vfpfcnvrt+3)& (0+255),b
  1810  002118  51D7               	movf	??_vfpfcnvrt& (0+255),w,b
  1811  00211A  27D9               	addwf	(??_vfpfcnvrt+2)& (0+255),f,b
  1812  00211C  51D8               	movf	(??_vfpfcnvrt+1)& (0+255),w,b
  1813  00211E  23DA               	addwfc	(??_vfpfcnvrt+3)& (0+255),f,b
  1814  002120  51DA               	movf	(??_vfpfcnvrt+3)& (0+255),w,b
  1815  002122  E10A               	bnz	u8100
  1816  002124  0E1A               	movlw	26
  1817  002126  5DD9               	subwf	(??_vfpfcnvrt+2)& (0+255),w,b
  1818  002128  A0D8               	btfss	status,0,c
  1819  00212A  EF99  F010         	goto	u8101
  1820  00212E  EF9C  F010         	goto	u8100
  1821  002132                     u8101:
  1822  002132  0E01               	movlw	1
  1823  002134  EF9D  F010         	goto	u8110
  1824  002138                     u8100:
  1825  002138  0E00               	movlw	0
  1826  00213A                     u8110:
  1827  00213A  6FDD               	movwf	_vfpfcnvrt$1354& (0+255),b
  1828  00213C  6BDE               	clrf	(_vfpfcnvrt$1354+1)& (0+255),b
  1829  00213E                     
  1830                           ; BSR set to: 0
  1831  00213E  51DD               	movf	_vfpfcnvrt$1354& (0+255),w,b
  1832  002140  11DE               	iorwf	(_vfpfcnvrt$1354+1)& (0+255),w,b
  1833  002142  B4D8               	btfsc	status,2,c
  1834  002144  EFA6  F010         	goto	u8121
  1835  002148  EFA8  F010         	goto	u8120
  1836  00214C                     u8121:
  1837  00214C  EFC2  F010         	goto	l5727
  1838  002150                     u8120:
  1839  002150                     
  1840                           ; BSR set to: 0
  1841                           ;E:\MPLAB\pic\sources\c99\common\doprnt.c: 954:                 f = (*(long double *)__v
      +                          a_arg(*(long double **)ap, (long double)0));
  1842  002150  C0D5  FFD9         	movff	vfpfcnvrt@ap,fsr2l
  1843  002154  C0D6  FFDA         	movff	vfpfcnvrt@ap+1,fsr2h
  1844  002158  CFDF F0D7          	movff	indf2,??_vfpfcnvrt
  1845  00215C  0E04               	movlw	4
  1846  00215E  26DE               	addwf	postinc2,f,c
  1847  002160  CFDF F0D8          	movff	indf2,??_vfpfcnvrt+1
  1848  002164  0E00               	movlw	0
  1849  002166  22DD               	addwfc	postdec2,f,c
  1850  002168  C0D7  FFD9         	movff	??_vfpfcnvrt,fsr2l
  1851  00216C  C0D8  FFDA         	movff	??_vfpfcnvrt+1,fsr2h
  1852  002170  CFDE F0DF          	movff	postinc2,vfpfcnvrt@f
  1853  002174  CFDE F0E0          	movff	postinc2,vfpfcnvrt@f+1
  1854  002178  CFDE F0E1          	movff	postinc2,vfpfcnvrt@f+2
  1855  00217C  CFDE F0E2          	movff	postinc2,vfpfcnvrt@f+3
  1856                           
  1857                           ;E:\MPLAB\pic\sources\c99\common\doprnt.c: 955:             } else {
  1858  002180  EFDA  F010         	goto	l986
  1859  002184                     l5727:
  1860                           
  1861                           ; BSR set to: 0
  1862                           ;E:\MPLAB\pic\sources\c99\common\doprnt.c: 956:                 f = (long double)(*(doub
      +                          le *)__va_arg(*(double **)ap, (double)0));
  1863  002184  C0D5  FFD9         	movff	vfpfcnvrt@ap,fsr2l
  1864  002188  C0D6  FFDA         	movff	vfpfcnvrt@ap+1,fsr2h
  1865  00218C  CFDF F0D7          	movff	indf2,??_vfpfcnvrt
  1866  002190  0E04               	movlw	4
  1867  002192  26DE               	addwf	postinc2,f,c
  1868  002194  CFDF F0D8          	movff	indf2,??_vfpfcnvrt+1
  1869  002198  0E00               	movlw	0
  1870  00219A  22DD               	addwfc	postdec2,f,c
  1871  00219C  C0D7  FFD9         	movff	??_vfpfcnvrt,fsr2l
  1872  0021A0  C0D8  FFDA         	movff	??_vfpfcnvrt+1,fsr2h
  1873  0021A4  CFDE F0DF          	movff	postinc2,vfpfcnvrt@f
  1874  0021A8  CFDE F0E0          	movff	postinc2,vfpfcnvrt@f+1
  1875  0021AC  CFDE F0E1          	movff	postinc2,vfpfcnvrt@f+2
  1876  0021B0  CFDE F0E2          	movff	postinc2,vfpfcnvrt@f+3
  1877  0021B4                     l986:
  1878                           
  1879                           ; BSR set to: 0
  1880                           ;E:\MPLAB\pic\sources\c99\common\doprnt.c: 958:             *fmt += ((sizeof("lf")/sizeo
      +                          f("lf"[0]))-1);
  1881  0021B4  0E02               	movlw	2
  1882  0021B6  C0D3  FFD9         	movff	vfpfcnvrt@fmt,fsr2l
  1883  0021BA  C0D4  FFDA         	movff	vfpfcnvrt@fmt+1,fsr2h
  1884  0021BE  26DE               	addwf	postinc2,f,c
  1885  0021C0  0E00               	movlw	0
  1886  0021C2  22DD               	addwfc	postdec2,f,c
  1887  0021C4  EF3B  F010         	goto	l5713
  1888  0021C8                     l5733:
  1889                           
  1890                           ;E:\MPLAB\pic\sources\c99\common\doprnt.c: 1372:         if ((*fmt)[0] == '%') {
  1891  0021C8  C0D3  FFD9         	movff	vfpfcnvrt@fmt,fsr2l
  1892  0021CC  C0D4  FFDA         	movff	vfpfcnvrt@fmt+1,fsr2h
  1893  0021D0  CFDE FFF6          	movff	postinc2,tblptrl
  1894  0021D4  CFDD FFF7          	movff	postdec2,tblptrh
  1895  0021D8                     	if	0	;tblptru may be non-zero
  1896  0021D8                     	endif
  1897  0021D8                     	if	0	;tblptru may be non-zero
  1898  0021D8                     	endif
  1899  0021D8  0008               	tblrd		*
  1900  0021DA  50F5               	movf	tablat,w,c
  1901  0021DC  0A25               	xorlw	37
  1902  0021DE  A4D8               	btfss	status,2,c
  1903  0021E0  EFF4  F010         	goto	u8131
  1904  0021E4  EFF6  F010         	goto	u8130
  1905  0021E8                     u8131:
  1906  0021E8  EF0E  F011         	goto	l5743
  1907  0021EC                     u8130:
  1908  0021EC                     
  1909                           ;E:\MPLAB\pic\sources\c99\common\doprnt.c: 1373:             ++*fmt;
  1910  0021EC  C0D3  FFD9         	movff	vfpfcnvrt@fmt,fsr2l
  1911  0021F0  C0D4  FFDA         	movff	vfpfcnvrt@fmt+1,fsr2h
  1912  0021F4  2ADE               	incf	postinc2,f,c
  1913  0021F6  0E00               	movlw	0
  1914  0021F8  22DD               	addwfc	postdec2,f,c
  1915  0021FA                     
  1916                           ;E:\MPLAB\pic\sources\c99\common\doprnt.c: 1374:             fputc((int)'%', fp);
  1917  0021FA  0E00               	movlw	0
  1918  0021FC  6E12               	movwf	(fputc@c+1)^0,c
  1919  0021FE  0E25               	movlw	37
  1920  002200  6E11               	movwf	fputc@c^0,c
  1921  002202  C0D1  F013         	movff	vfpfcnvrt@fp,fputc@fp
  1922  002206  C0D2  F014         	movff	vfpfcnvrt@fp+1,fputc@fp+1
  1923  00220A  EC68  F01A         	call	_fputc	;wreg free
  1924  00220E                     l5739:
  1925                           
  1926                           ;E:\MPLAB\pic\sources\c99\common\doprnt.c: 1375:             return 1;
  1927  00220E  0E00               	movlw	0
  1928  002210  0100               	movlb	0	; () banked
  1929  002212  6FD2               	movwf	(?_vfpfcnvrt+1)& (0+255),b
  1930  002214  0E01               	movlw	1
  1931  002216  6FD1               	movwf	?_vfpfcnvrt& (0+255),b
  1932  002218  EF37  F011         	goto	l979
  1933  00221C                     l5743:
  1934                           
  1935                           ;E:\MPLAB\pic\sources\c99\common\doprnt.c: 1379:         ++*fmt;
  1936  00221C  C0D3  FFD9         	movff	vfpfcnvrt@fmt,fsr2l
  1937  002220  C0D4  FFDA         	movff	vfpfcnvrt@fmt+1,fsr2h
  1938  002224  2ADE               	incf	postinc2,f,c
  1939  002226  0E00               	movlw	0
  1940  002228  22DD               	addwfc	postdec2,f,c
  1941  00222A                     
  1942                           ;E:\MPLAB\pic\sources\c99\common\doprnt.c: 1380:         return 0;
  1943  00222A  0E00               	movlw	0
  1944  00222C  0100               	movlb	0	; () banked
  1945  00222E  6FD2               	movwf	(?_vfpfcnvrt+1)& (0+255),b
  1946  002230  0E00               	movlw	0
  1947  002232  6FD1               	movwf	?_vfpfcnvrt& (0+255),b
  1948  002234  EF37  F011         	goto	l979
  1949  002238                     l5749:
  1950                           
  1951                           ;E:\MPLAB\pic\sources\c99\common\doprnt.c: 1384:     fputc((int)(*fmt)[0], fp);
  1952  002238  C0D3  FFD9         	movff	vfpfcnvrt@fmt,fsr2l
  1953  00223C  C0D4  FFDA         	movff	vfpfcnvrt@fmt+1,fsr2h
  1954  002240  CFDE FFF6          	movff	postinc2,tblptrl
  1955  002244  CFDD FFF7          	movff	postdec2,tblptrh
  1956  002248                     	if	0	;tblptru may be non-zero
  1957  002248                     	endif
  1958  002248                     	if	0	;tblptru may be non-zero
  1959  002248                     	endif
  1960  002248  0008               	tblrd		*
  1961  00224A  50F5               	movf	tablat,w,c
  1962  00224C  6E11               	movwf	fputc@c^0,c
  1963  00224E  6A12               	clrf	(fputc@c+1)^0,c
  1964  002250  C0D1  F013         	movff	vfpfcnvrt@fp,fputc@fp
  1965  002254  C0D2  F014         	movff	vfpfcnvrt@fp+1,fputc@fp+1
  1966  002258  EC68  F01A         	call	_fputc	;wreg free
  1967  00225C                     
  1968                           ;E:\MPLAB\pic\sources\c99\common\doprnt.c: 1385:     ++*fmt;
  1969  00225C  C0D3  FFD9         	movff	vfpfcnvrt@fmt,fsr2l
  1970  002260  C0D4  FFDA         	movff	vfpfcnvrt@fmt+1,fsr2h
  1971  002264  2ADE               	incf	postinc2,f,c
  1972  002266  0E00               	movlw	0
  1973  002268  22DD               	addwfc	postdec2,f,c
  1974  00226A  EF07  F011         	goto	l5739
  1975  00226E                     l979:
  1976  00226E  0012               	return		;funcret
  1977  002270                     __end_of_vfpfcnvrt:
  1978                           	callstack 0
  1979                           
  1980 ;; *************** function _strncmp *****************
  1981 ;; Defined at:
  1982 ;;		line 3 in file "E:\MPLAB\pic\sources\c99\common\strncmp.c"
  1983 ;; Parameters:    Size  Location     Type
  1984 ;;  _l              2   16[COMRAM] PTR const unsigned char 
  1985 ;;		 -> vfpfcnvrt@ct(3), 
  1986 ;;  _r              2   18[COMRAM] PTR const unsigned char 
  1987 ;;		 -> STR_12(3), 
  1988 ;;  n               2   20[COMRAM] unsigned int 
  1989 ;; Auto vars:     Size  Location     Type
  1990 ;;  r               2   25[COMRAM] PTR const unsigned char 
  1991 ;;		 -> STR_12(3), 
  1992 ;;  l               2   23[COMRAM] PTR const unsigned char 
  1993 ;;		 -> vfpfcnvrt@ct(3), 
  1994 ;; Return value:  Size  Location     Type
  1995 ;;                  2   16[COMRAM] int 
  1996 ;; Registers used:
  1997 ;;		wreg, fsr2l, fsr2h, status,2, status,0, tblptrl, tblptrh, tblptru
  1998 ;; Tracked objects:
  1999 ;;		On entry : 0/0
  2000 ;;		On exit  : 0/0
  2001 ;;		Unchanged: 0/0
  2002 ;; Data sizes:     COMRAM   BANK0   BANK1   BANK2   BANK3   BANK4   BANK5   BANK6   BANK7
  2003 ;;      Params:         6       0       0       0       0       0       0       0       0
  2004 ;;      Locals:         4       0       0       0       0       0       0       0       0
  2005 ;;      Temps:          1       0       0       0       0       0       0       0       0
  2006 ;;      Totals:        11       0       0       0       0       0       0       0       0
  2007 ;;Total ram usage:       11 bytes
  2008 ;; Hardware stack levels used: 1
  2009 ;; Hardware stack levels required when called: 2
  2010 ;; This function calls:
  2011 ;;		Nothing
  2012 ;; This function is called by:
  2013 ;;		_vfpfcnvrt
  2014 ;; This function uses a non-reentrant model
  2015 ;;
  2016                           
  2017                           	psect	text4
  2018  0033FA                     __ptext4:
  2019                           	callstack 0
  2020  0033FA                     _strncmp:
  2021                           	callstack 25
  2022  0033FA  C011  F018         	movff	strncmp@_l,strncmp@l
  2023  0033FE  C012  F019         	movff	strncmp@_l+1,strncmp@l+1
  2024  003402  C013  F01A         	movff	strncmp@_r,strncmp@r
  2025  003406  C014  F01B         	movff	strncmp@_r+1,strncmp@r+1
  2026  00340A  0615               	decf	strncmp@n^0,f,c
  2027  00340C  A0D8               	btfss	status,0,c
  2028  00340E  0616               	decf	(strncmp@n+1)^0,f,c
  2029  003410  2815               	incf	strncmp@n^0,w,c
  2030  003412  E106               	bnz	u7951
  2031  003414  2816               	incf	(strncmp@n+1)^0,w,c
  2032  003416  A4D8               	btfss	status,2,c
  2033  003418  EF10  F01A         	goto	u7951
  2034  00341C  EF12  F01A         	goto	u7950
  2035  003420                     u7951:
  2036  003420  EF1F  F01A         	goto	l5655
  2037  003424                     u7950:
  2038  003424  0E00               	movlw	0
  2039  003426  6E12               	movwf	(?_strncmp+1)^0,c
  2040  003428  0E00               	movlw	0
  2041  00342A  6E11               	movwf	?_strncmp^0,c
  2042  00342C  EF67  F01A         	goto	l1107
  2043  003430                     l5653:
  2044  003430  4A18               	infsnz	strncmp@l^0,f,c
  2045  003432  2A19               	incf	(strncmp@l+1)^0,f,c
  2046  003434  4A1A               	infsnz	strncmp@r^0,f,c
  2047  003436  2A1B               	incf	(strncmp@r+1)^0,f,c
  2048  003438  0615               	decf	strncmp@n^0,f,c
  2049  00343A  A0D8               	btfss	status,0,c
  2050  00343C  0616               	decf	(strncmp@n+1)^0,f,c
  2051  00343E                     l5655:
  2052  00343E  C018  FFD9         	movff	strncmp@l,fsr2l
  2053  003442  C019  FFDA         	movff	strncmp@l+1,fsr2h
  2054  003446  50DF               	movf	indf2,w,c
  2055  003448  B4D8               	btfsc	status,2,c
  2056  00344A  EF29  F01A         	goto	u7961
  2057  00344E  EF2B  F01A         	goto	u7960
  2058  003452                     u7961:
  2059  003452  EF56  F01A         	goto	l5663
  2060  003456                     u7960:
  2061  003456  C01A  FFF6         	movff	strncmp@r,tblptrl
  2062  00345A  C01B  FFF7         	movff	strncmp@r+1,tblptrh
  2063  00345E                     	if	0	;tblptru may be non-zero
  2064  00345E                     	endif
  2065  00345E                     	if	0	;tblptru may be non-zero
  2066  00345E                     	endif
  2067  00345E  0008               	tblrd		*
  2068  003460  50F5               	movf	tablat,w,c
  2069  003462  0900               	iorlw	0
  2070  003464  B4D8               	btfsc	status,2,c
  2071  003466  EF37  F01A         	goto	u7971
  2072  00346A  EF39  F01A         	goto	u7970
  2073  00346E                     u7971:
  2074  00346E  EF56  F01A         	goto	l5663
  2075  003472                     u7970:
  2076  003472  5015               	movf	strncmp@n^0,w,c
  2077  003474  1016               	iorwf	(strncmp@n+1)^0,w,c
  2078  003476  B4D8               	btfsc	status,2,c
  2079  003478  EF40  F01A         	goto	u7981
  2080  00347C  EF42  F01A         	goto	u7980
  2081  003480                     u7981:
  2082  003480  EF56  F01A         	goto	l5663
  2083  003484                     u7980:
  2084  003484  C018  FFD9         	movff	strncmp@l,fsr2l
  2085  003488  C019  FFDA         	movff	strncmp@l+1,fsr2h
  2086  00348C  50DF               	movf	indf2,w,c
  2087  00348E  6E17               	movwf	??_strncmp^0,c
  2088  003490  C01A  FFF6         	movff	strncmp@r,tblptrl
  2089  003494  C01B  FFF7         	movff	strncmp@r+1,tblptrh
  2090  003498                     	if	0	;tblptru may be non-zero
  2091  003498                     	endif
  2092  003498                     	if	0	;tblptru may be non-zero
  2093  003498                     	endif
  2094  003498  0008               	tblrd		*
  2095  00349A  50F5               	movf	tablat,w,c
  2096  00349C  1817               	xorwf	??_strncmp^0,w,c
  2097  00349E  B4D8               	btfsc	status,2,c
  2098  0034A0  EF54  F01A         	goto	u7991
  2099  0034A4  EF56  F01A         	goto	u7990
  2100  0034A8                     u7991:
  2101  0034A8  EF18  F01A         	goto	l5653
  2102  0034AC                     u7990:
  2103  0034AC                     l5663:
  2104  0034AC  C018  FFD9         	movff	strncmp@l,fsr2l
  2105  0034B0  C019  FFDA         	movff	strncmp@l+1,fsr2h
  2106  0034B4  50DF               	movf	indf2,w,c
  2107  0034B6  6E17               	movwf	??_strncmp^0,c
  2108  0034B8  C01A  FFF6         	movff	strncmp@r,tblptrl
  2109  0034BC  C01B  FFF7         	movff	strncmp@r+1,tblptrh
  2110  0034C0                     	if	0	;tblptru may be non-zero
  2111  0034C0                     	endif
  2112  0034C0                     	if	0	;tblptru may be non-zero
  2113  0034C0                     	endif
  2114  0034C0  0008               	tblrd		*
  2115  0034C2  50F5               	movf	tablat,w,c
  2116  0034C4  5C17               	subwf	??_strncmp^0,w,c
  2117  0034C6  6E11               	movwf	?_strncmp^0,c
  2118  0034C8  6A12               	clrf	(?_strncmp+1)^0,c
  2119  0034CA  A0D8               	btfss	status,0,c
  2120  0034CC  0612               	decf	(?_strncmp+1)^0,f,c
  2121  0034CE                     l1107:
  2122  0034CE  0012               	return		;funcret
  2123  0034D0                     __end_of_strncmp:
  2124                           	callstack 0
  2125                           
  2126 ;; *************** function _efgtoa *****************
  2127 ;; Defined at:
  2128 ;;		line 332 in file "E:\MPLAB\pic\sources\c99\common\doprnt.c"
  2129 ;; Parameters:    Size  Location     Type
  2130 ;;  fp              2   45[BANK0 ] PTR struct _IO_FILE
  2131 ;;		 -> sprintf@f(6), 
  2132 ;;  f               4   47[BANK0 ] PTR struct _IO_FILE
  2133 ;;  c               1   51[BANK0 ] unsigned char 
  2134 ;; Auto vars:     Size  Location     Type
  2135 ;;  u               4  109[BANK0 ] unsigned char 
  2136 ;;  g               4  101[BANK0 ] unsigned char 
  2137 ;;  l               4   95[BANK0 ] unsigned char 
  2138 ;;  h               4   91[BANK0 ] unsigned char 
  2139 ;;  ou              4   77[BANK0 ] unsigned char 
  2140 ;;  n               2  107[BANK0 ] int 
  2141 ;;  e               2  105[BANK0 ] int 
  2142 ;;  i               2   99[BANK0 ] int 
  2143 ;;  w               2   87[BANK0 ] int 
  2144 ;;  p               2   85[BANK0 ] int 
  2145 ;;  sign            2   83[BANK0 ] int 
  2146 ;;  d               2   81[BANK0 ] int 
  2147 ;;  m               2   75[BANK0 ] int 
  2148 ;;  ne              2   73[BANK0 ] int 
  2149 ;;  pp              2   71[BANK0 ] int 
  2150 ;;  t               2   69[BANK0 ] int 
  2151 ;;  mode            1   90[BANK0 ] unsigned char 
  2152 ;;  nmode           1   89[BANK0 ] unsigned char 
  2153 ;; Return value:  Size  Location     Type
  2154 ;;                  2   45[BANK0 ] int 
  2155 ;; Registers used:
  2156 ;;		wreg, fsr1l, fsr1h, fsr2l, fsr2h, status,2, status,0, tblptrl, tblptrh, tblptru, prodl, prodh, cstack
  2157 ;; Tracked objects:
  2158 ;;		On entry : 0/0
  2159 ;;		On exit  : 0/0
  2160 ;;		Unchanged: 0/0
  2161 ;; Data sizes:     COMRAM   BANK0   BANK1   BANK2   BANK3   BANK4   BANK5   BANK6   BANK7
  2162 ;;      Params:         0       7       0       0       0       0       0       0       0
  2163 ;;      Locals:         0      56       0       0       0       0       0       0       0
  2164 ;;      Temps:          0       5       0       0       0       0       0       0       0
  2165 ;;      Totals:         0      68       0       0       0       0       0       0       0
  2166 ;;Total ram usage:       68 bytes
  2167 ;; Hardware stack levels used: 1
  2168 ;; Hardware stack levels required when called: 6
  2169 ;; This function calls:
  2170 ;;		___awdiv
  2171 ;;		___awmod
  2172 ;;		___fladd
  2173 ;;		___fldiv
  2174 ;;		___fleq
  2175 ;;		___flge
  2176 ;;		___flmul
  2177 ;;		___flneg
  2178 ;;		___flsub
  2179 ;;		___fltol
  2180 ;;		___fpclassifyf
  2181 ;;		_floorf
  2182 ;;		_isupper
  2183 ;;		_pad
  2184 ;;		_strcpy
  2185 ;;		_tolower
  2186 ;; This function is called by:
  2187 ;;		_vfpfcnvrt
  2188 ;; This function uses a non-reentrant model
  2189 ;;
  2190                           
  2191                           	psect	text5
  2192  000822                     __ptext5:
  2193                           	callstack 0
  2194  000822                     _efgtoa:
  2195                           	callstack 21
  2196  000822                     
  2197                           ;E:\MPLAB\pic\sources\c99\common\doprnt.c: 332: static int efgtoa(FILE *fp, long double 
      +                          f, char c);E:\MPLAB\pic\sources\c99\common\doprnt.c: 333: {;E:\MPLAB\pic\sources\c99\com
      +                          mon\doprnt.c: 334:     char mode, nmode;;E:\MPLAB\pic\sources\c99\common\doprnt.c: 335: 
      +                              int d, e, i, m, n, ne, p, pp, sign, t, w;;E:\MPLAB\pic\sources\c99\common\doprnt.c: 
      +                          336:     long double g, h, l, ou, u;;E:\MPLAB\pic\sources\c99\common\doprnt.c: 339:     
      +                          sign = 0;
  2198  000822  0E00               	movlw	0
  2199  000824  0100               	movlb	0	; () banked
  2200  000826  6FB4               	movwf	(efgtoa@sign+1)& (0+255),b
  2201  000828  0E00               	movlw	0
  2202  00082A  6FB3               	movwf	efgtoa@sign& (0+255),b
  2203  00082C                     
  2204                           ; BSR set to: 0
  2205                           ;E:\MPLAB\pic\sources\c99\common\doprnt.c: 340:     g = f;
  2206  00082C  C08F  F0C5         	movff	efgtoa@f,efgtoa@g
  2207  000830  C090  F0C6         	movff	efgtoa@f+1,efgtoa@g+1
  2208  000834  C091  F0C7         	movff	efgtoa@f+2,efgtoa@g+2
  2209  000838  C092  F0C8         	movff	efgtoa@f+3,efgtoa@g+3
  2210  00083C                     
  2211                           ; BSR set to: 0
  2212                           ;E:\MPLAB\pic\sources\c99\common\doprnt.c: 341:     if (g < 0.0) {
  2213  00083C  BFC8               	btfsc	(efgtoa@g+3)& (0+255),7,b
  2214  00083E  EF25  F004         	goto	u7340
  2215  000842  EF23  F004         	goto	u7341
  2216  000846                     u7341:
  2217  000846  EF3B  F004         	goto	l5307
  2218  00084A                     u7340:
  2219  00084A                     
  2220                           ; BSR set to: 0
  2221                           ;E:\MPLAB\pic\sources\c99\common\doprnt.c: 342:         sign = 1;
  2222  00084A  0E00               	movlw	0
  2223  00084C  6FB4               	movwf	(efgtoa@sign+1)& (0+255),b
  2224  00084E  0E01               	movlw	1
  2225  000850  6FB3               	movwf	efgtoa@sign& (0+255),b
  2226  000852                     
  2227                           ; BSR set to: 0
  2228                           ;E:\MPLAB\pic\sources\c99\common\doprnt.c: 343:         g = -g;
  2229  000852  C0C5  F011         	movff	efgtoa@g,___flneg@f1
  2230  000856  C0C6  F012         	movff	efgtoa@g+1,___flneg@f1+1
  2231  00085A  C0C7  F013         	movff	efgtoa@g+2,___flneg@f1+2
  2232  00085E  C0C8  F014         	movff	efgtoa@g+3,___flneg@f1+3
  2233  000862  ECD4  F01E         	call	___flneg	;wreg free
  2234  000866  C011  F0C5         	movff	?___flneg,efgtoa@g
  2235  00086A  C012  F0C6         	movff	?___flneg+1,efgtoa@g+1
  2236  00086E  C013  F0C7         	movff	?___flneg+2,efgtoa@g+2
  2237  000872  C014  F0C8         	movff	?___flneg+3,efgtoa@g+3
  2238  000876                     l5307:
  2239                           
  2240                           ;E:\MPLAB\pic\sources\c99\common\doprnt.c: 347:     n = 0;
  2241  000876  0E00               	movlw	0
  2242  000878  0100               	movlb	0	; () banked
  2243  00087A  6FCC               	movwf	(efgtoa@n+1)& (0+255),b
  2244  00087C  0E00               	movlw	0
  2245  00087E  6FCB               	movwf	efgtoa@n& (0+255),b
  2246  000880                     
  2247                           ; BSR set to: 0
  2248                           ;E:\MPLAB\pic\sources\c99\common\doprnt.c: 348:     w = width;
  2249  000880  C0F7  F0B7         	movff	_width,efgtoa@w
  2250  000884  C0F8  F0B8         	movff	_width+1,efgtoa@w+1
  2251  000888                     
  2252                           ; BSR set to: 0
  2253                           ;E:\MPLAB\pic\sources\c99\common\doprnt.c: 349:     if (sign || (flags & (1 << 2))) {
  2254  000888  51B3               	movf	efgtoa@sign& (0+255),w,b
  2255  00088A  11B4               	iorwf	(efgtoa@sign+1)& (0+255),w,b
  2256  00088C  A4D8               	btfss	status,2,c
  2257  00088E  EF4B  F004         	goto	u7351
  2258  000892  EF4D  F004         	goto	u7350
  2259  000896                     u7351:
  2260  000896  EF54  F004         	goto	l5315
  2261  00089A                     u7350:
  2262  00089A                     
  2263                           ; BSR set to: 0
  2264  00089A  A44C               	btfss	_flags^0,2,c
  2265  00089C  EF52  F004         	goto	u7361
  2266  0008A0  EF54  F004         	goto	u7360
  2267  0008A4                     u7361:
  2268  0008A4  EF6E  F004         	goto	l5327
  2269  0008A8                     u7360:
  2270  0008A8                     l5315:
  2271                           
  2272                           ; BSR set to: 0
  2273                           ;E:\MPLAB\pic\sources\c99\common\doprnt.c: 350:         dbuf[n] = sign ? '-' : '+';
  2274  0008A8  51B3               	movf	efgtoa@sign& (0+255),w,b
  2275  0008AA  11B4               	iorwf	(efgtoa@sign+1)& (0+255),w,b
  2276  0008AC  A4D8               	btfss	status,2,c
  2277  0008AE  EF5B  F004         	goto	u7371
  2278  0008B2  EF5D  F004         	goto	u7370
  2279  0008B6                     u7371:
  2280  0008B6  EF63  F004         	goto	l5319
  2281  0008BA                     u7370:
  2282  0008BA                     
  2283                           ; BSR set to: 0
  2284  0008BA  0E00               	movlw	0
  2285  0008BC  6F9A               	movwf	(_efgtoa$1324+1)& (0+255),b
  2286  0008BE  0E2B               	movlw	43
  2287  0008C0  6F99               	movwf	_efgtoa$1324& (0+255),b
  2288  0008C2  EF67  F004         	goto	l5321
  2289  0008C6                     l5319:
  2290                           
  2291                           ; BSR set to: 0
  2292  0008C6  0E00               	movlw	0
  2293  0008C8  6F9A               	movwf	(_efgtoa$1324+1)& (0+255),b
  2294  0008CA  0E2D               	movlw	45
  2295  0008CC  6F99               	movwf	_efgtoa$1324& (0+255),b
  2296  0008CE                     l5321:
  2297                           
  2298                           ; BSR set to: 0
  2299  0008CE  C099  F100         	movff	_efgtoa$1324,_dbuf
  2300  0008D2                     
  2301                           ; BSR set to: 0
  2302                           ;E:\MPLAB\pic\sources\c99\common\doprnt.c: 351:         ++n;
  2303  0008D2  4BCB               	infsnz	efgtoa@n& (0+255),f,b
  2304  0008D4  2BCC               	incf	(efgtoa@n+1)& (0+255),f,b
  2305  0008D6                     
  2306                           ; BSR set to: 0
  2307                           ;E:\MPLAB\pic\sources\c99\common\doprnt.c: 352:         --w;
  2308  0008D6  07B7               	decf	efgtoa@w& (0+255),f,b
  2309  0008D8  A0D8               	btfss	status,0,c
  2310  0008DA  07B8               	decf	(efgtoa@w+1)& (0+255),f,b
  2311  0008DC                     l5327:
  2312                           
  2313                           ; BSR set to: 0
  2314                           ;E:\MPLAB\pic\sources\c99\common\doprnt.c: 357:         if ((0 ? isupper((int)c) : ((uns
      +                          igned)((int)c)-'A') < 26)) {
  2315  0008DC  C0C5  F011         	movff	efgtoa@g,___fpclassifyf@x
  2316  0008E0  C0C6  F012         	movff	efgtoa@g+1,___fpclassifyf@x+1
  2317  0008E4  C0C7  F013         	movff	efgtoa@g+2,___fpclassifyf@x+2
  2318  0008E8  C0C8  F014         	movff	efgtoa@g+3,___fpclassifyf@x+3
  2319  0008EC  EC7E  F019         	call	___fpclassifyf	;wreg free
  2320  0008F0  0411               	decf	?___fpclassifyf^0,w,c
  2321  0008F2  1012               	iorwf	(?___fpclassifyf+1)^0,w,c
  2322  0008F4  A4D8               	btfss	status,2,c
  2323  0008F6  EF7F  F004         	goto	u7381
  2324  0008FA  EF81  F004         	goto	u7380
  2325  0008FE                     u7381:
  2326  0008FE  EFD8  F004         	goto	l5345
  2327  000902                     u7380:
  2328  000902  0EBF               	movlw	191
  2329  000904  0100               	movlb	0	; () banked
  2330  000906  6F94               	movwf	??_efgtoa& (0+255),b
  2331  000908  0EFF               	movlw	255
  2332  00090A  6F95               	movwf	(??_efgtoa+1)& (0+255),b
  2333  00090C  5193               	movf	efgtoa@c& (0+255),w,b
  2334  00090E  6F96               	movwf	(??_efgtoa+2)& (0+255),b
  2335  000910  6B97               	clrf	(??_efgtoa+3)& (0+255),b
  2336  000912  5194               	movf	??_efgtoa& (0+255),w,b
  2337  000914  2796               	addwf	(??_efgtoa+2)& (0+255),f,b
  2338  000916  5195               	movf	(??_efgtoa+1)& (0+255),w,b
  2339  000918  2397               	addwfc	(??_efgtoa+3)& (0+255),f,b
  2340  00091A  5197               	movf	(??_efgtoa+3)& (0+255),w,b
  2341  00091C  E10A               	bnz	u7390
  2342  00091E  0E1A               	movlw	26
  2343  000920  5D96               	subwf	(??_efgtoa+2)& (0+255),w,b
  2344  000922  A0D8               	btfss	status,0,c
  2345  000924  EF96  F004         	goto	u7391
  2346  000928  EF99  F004         	goto	u7390
  2347  00092C                     u7391:
  2348  00092C  0E01               	movlw	1
  2349  00092E  EF9A  F004         	goto	u7400
  2350  000932                     u7390:
  2351  000932  0E00               	movlw	0
  2352  000934                     u7400:
  2353  000934  6F9B               	movwf	_efgtoa$1325& (0+255),b
  2354  000936  6B9C               	clrf	(_efgtoa$1325+1)& (0+255),b
  2355  000938                     
  2356                           ; BSR set to: 0
  2357  000938  519B               	movf	_efgtoa$1325& (0+255),w,b
  2358  00093A  119C               	iorwf	(_efgtoa$1325+1)& (0+255),w,b
  2359  00093C  B4D8               	btfsc	status,2,c
  2360  00093E  EFA3  F004         	goto	u7411
  2361  000942  EFA5  F004         	goto	u7410
  2362  000946                     u7411:
  2363  000946  EFB3  F004         	goto	l5337
  2364  00094A                     u7410:
  2365  00094A                     
  2366                           ; BSR set to: 0
  2367                           ;E:\MPLAB\pic\sources\c99\common\doprnt.c: 358:             strcpy(&dbuf[n], "INF");
  2368  00094A  0E00               	movlw	low _dbuf
  2369  00094C  25CB               	addwf	efgtoa@n& (0+255),w,b
  2370  00094E  6E11               	movwf	strcpy@dest^0,c
  2371  000950  0E01               	movlw	high _dbuf
  2372  000952  21CC               	addwfc	(efgtoa@n+1)& (0+255),w,b
  2373  000954  6E12               	movwf	(strcpy@dest+1)^0,c
  2374  000956  0E0D               	movlw	low STR_2
  2375  000958  6E13               	movwf	strcpy@src^0,c
  2376  00095A  0E08               	movlw	high STR_2
  2377  00095C  6E14               	movwf	(strcpy@src+1)^0,c
  2378  00095E  EC7C  F01D         	call	_strcpy	;wreg free
  2379                           
  2380                           ;E:\MPLAB\pic\sources\c99\common\doprnt.c: 359:         } else {
  2381  000962  EFBF  F004         	goto	l5339
  2382  000966                     l5337:
  2383                           
  2384                           ; BSR set to: 0
  2385                           ;E:\MPLAB\pic\sources\c99\common\doprnt.c: 360:             strcpy(&dbuf[n], "inf");
  2386  000966  0E00               	movlw	low _dbuf
  2387  000968  25CB               	addwf	efgtoa@n& (0+255),w,b
  2388  00096A  6E11               	movwf	strcpy@dest^0,c
  2389  00096C  0E01               	movlw	high _dbuf
  2390  00096E  21CC               	addwfc	(efgtoa@n+1)& (0+255),w,b
  2391  000970  6E12               	movwf	(strcpy@dest+1)^0,c
  2392  000972  0E15               	movlw	low STR_3
  2393  000974  6E13               	movwf	strcpy@src^0,c
  2394  000976  0E08               	movlw	high STR_3
  2395  000978  6E14               	movwf	(strcpy@src+1)^0,c
  2396  00097A  EC7C  F01D         	call	_strcpy	;wreg free
  2397  00097E                     l5339:
  2398                           
  2399                           ;E:\MPLAB\pic\sources\c99\common\doprnt.c: 362:         w -= ((sizeof("inf")/sizeof("inf
      +                          "[0]))-1);
  2400  00097E  0100               	movlb	0	; () banked
  2401  000980  0EFD               	movlw	253
  2402  000982  27B7               	addwf	efgtoa@w& (0+255),f,b
  2403  000984  0EFF               	movlw	255
  2404  000986  23B8               	addwfc	(efgtoa@w+1)& (0+255),f,b
  2405  000988                     l5341:
  2406                           
  2407                           ;E:\MPLAB\pic\sources\c99\common\doprnt.c: 363:         return pad(fp, &dbuf[0], w);
  2408  000988  C08D  F021         	movff	efgtoa@fp,pad@fp
  2409  00098C  C08E  F022         	movff	efgtoa@fp+1,pad@fp+1
  2410  000990  0E00               	movlw	low _dbuf
  2411  000992  6E23               	movwf	pad@buf^0,c
  2412  000994  0E01               	movlw	high _dbuf
  2413  000996  6E24               	movwf	(pad@buf+1)^0,c
  2414  000998  C0B7  F025         	movff	efgtoa@w,pad@p
  2415  00099C  C0B8  F026         	movff	efgtoa@w+1,pad@p+1
  2416  0009A0  EC2F  F01B         	call	_pad	;wreg free
  2417  0009A4  C021  F08D         	movff	?_pad,?_efgtoa
  2418  0009A8  C022  F08E         	movff	?_pad+1,?_efgtoa+1
  2419  0009AC  EF40  F00A         	goto	l887
  2420  0009B0                     l5345:
  2421                           
  2422                           ;E:\MPLAB\pic\sources\c99\common\doprnt.c: 366:         if ((0 ? isupper((int)c) : ((uns
      +                          igned)((int)c)-'A') < 26)) {
  2423  0009B0  C0C5  F011         	movff	efgtoa@g,___fpclassifyf@x
  2424  0009B4  C0C6  F012         	movff	efgtoa@g+1,___fpclassifyf@x+1
  2425  0009B8  C0C7  F013         	movff	efgtoa@g+2,___fpclassifyf@x+2
  2426  0009BC  C0C8  F014         	movff	efgtoa@g+3,___fpclassifyf@x+3
  2427  0009C0  EC7E  F019         	call	___fpclassifyf	;wreg free
  2428  0009C4  5011               	movf	?___fpclassifyf^0,w,c
  2429  0009C6  1012               	iorwf	(?___fpclassifyf+1)^0,w,c
  2430  0009C8  A4D8               	btfss	status,2,c
  2431  0009CA  EFE9  F004         	goto	u7421
  2432  0009CE  EFEB  F004         	goto	u7420
  2433  0009D2                     u7421:
  2434  0009D2  EF2B  F005         	goto	l5363
  2435  0009D6                     u7420:
  2436  0009D6  0EBF               	movlw	191
  2437  0009D8  0100               	movlb	0	; () banked
  2438  0009DA  6F94               	movwf	??_efgtoa& (0+255),b
  2439  0009DC  0EFF               	movlw	255
  2440  0009DE  6F95               	movwf	(??_efgtoa+1)& (0+255),b
  2441  0009E0  5193               	movf	efgtoa@c& (0+255),w,b
  2442  0009E2  6F96               	movwf	(??_efgtoa+2)& (0+255),b
  2443  0009E4  6B97               	clrf	(??_efgtoa+3)& (0+255),b
  2444  0009E6  5194               	movf	??_efgtoa& (0+255),w,b
  2445  0009E8  2796               	addwf	(??_efgtoa+2)& (0+255),f,b
  2446  0009EA  5195               	movf	(??_efgtoa+1)& (0+255),w,b
  2447  0009EC  2397               	addwfc	(??_efgtoa+3)& (0+255),f,b
  2448  0009EE  5197               	movf	(??_efgtoa+3)& (0+255),w,b
  2449  0009F0  E10A               	bnz	u7430
  2450  0009F2  0E1A               	movlw	26
  2451  0009F4  5D96               	subwf	(??_efgtoa+2)& (0+255),w,b
  2452  0009F6  A0D8               	btfss	status,0,c
  2453  0009F8  EF00  F005         	goto	u7431
  2454  0009FC  EF03  F005         	goto	u7430
  2455  000A00                     u7431:
  2456  000A00  0E01               	movlw	1
  2457  000A02  EF04  F005         	goto	u7440
  2458  000A06                     u7430:
  2459  000A06  0E00               	movlw	0
  2460  000A08                     u7440:
  2461  000A08  6F9D               	movwf	_efgtoa$1330& (0+255),b
  2462  000A0A  6B9E               	clrf	(_efgtoa$1330+1)& (0+255),b
  2463  000A0C                     
  2464                           ; BSR set to: 0
  2465  000A0C  519D               	movf	_efgtoa$1330& (0+255),w,b
  2466  000A0E  119E               	iorwf	(_efgtoa$1330+1)& (0+255),w,b
  2467  000A10  B4D8               	btfsc	status,2,c
  2468  000A12  EF0D  F005         	goto	u7451
  2469  000A16  EF0F  F005         	goto	u7450
  2470  000A1A                     u7451:
  2471  000A1A  EF1D  F005         	goto	l5355
  2472  000A1E                     u7450:
  2473  000A1E                     
  2474                           ; BSR set to: 0
  2475                           ;E:\MPLAB\pic\sources\c99\common\doprnt.c: 367:             strcpy(&dbuf[n], "NAN");
  2476  000A1E  0E00               	movlw	low _dbuf
  2477  000A20  25CB               	addwf	efgtoa@n& (0+255),w,b
  2478  000A22  6E11               	movwf	strcpy@dest^0,c
  2479  000A24  0E01               	movlw	high _dbuf
  2480  000A26  21CC               	addwfc	(efgtoa@n+1)& (0+255),w,b
  2481  000A28  6E12               	movwf	(strcpy@dest+1)^0,c
  2482  000A2A  0E11               	movlw	low STR_6
  2483  000A2C  6E13               	movwf	strcpy@src^0,c
  2484  000A2E  0E08               	movlw	high STR_6
  2485  000A30  6E14               	movwf	(strcpy@src+1)^0,c
  2486  000A32  EC7C  F01D         	call	_strcpy	;wreg free
  2487                           
  2488                           ;E:\MPLAB\pic\sources\c99\common\doprnt.c: 368:         } else {
  2489  000A36  EFBF  F004         	goto	l5339
  2490  000A3A                     l5355:
  2491                           
  2492                           ; BSR set to: 0
  2493                           ;E:\MPLAB\pic\sources\c99\common\doprnt.c: 369:             strcpy(&dbuf[n], "nan");
  2494  000A3A  0E00               	movlw	low _dbuf
  2495  000A3C  25CB               	addwf	efgtoa@n& (0+255),w,b
  2496  000A3E  6E11               	movwf	strcpy@dest^0,c
  2497  000A40  0E01               	movlw	high _dbuf
  2498  000A42  21CC               	addwfc	(efgtoa@n+1)& (0+255),w,b
  2499  000A44  6E12               	movwf	(strcpy@dest+1)^0,c
  2500  000A46  0E19               	movlw	low STR_7
  2501  000A48  6E13               	movwf	strcpy@src^0,c
  2502  000A4A  0E08               	movlw	high STR_7
  2503  000A4C  6E14               	movwf	(strcpy@src+1)^0,c
  2504  000A4E  EC7C  F01D         	call	_strcpy	;wreg free
  2505  000A52  EFBF  F004         	goto	l5339
  2506  000A56                     l5363:
  2507                           
  2508                           ;E:\MPLAB\pic\sources\c99\common\doprnt.c: 376:     u = 1.0;
  2509  000A56  0E00               	movlw	0
  2510  000A58  0100               	movlb	0	; () banked
  2511  000A5A  6FCD               	movwf	efgtoa@u& (0+255),b
  2512  000A5C  0E00               	movlw	0
  2513  000A5E  6FCE               	movwf	(efgtoa@u+1)& (0+255),b
  2514  000A60  0E80               	movlw	128
  2515  000A62  6FCF               	movwf	(efgtoa@u+2)& (0+255),b
  2516  000A64  0E3F               	movlw	63
  2517  000A66  6FD0               	movwf	(efgtoa@u+3)& (0+255),b
  2518                           
  2519                           ;E:\MPLAB\pic\sources\c99\common\doprnt.c: 377:     e = 0;
  2520  000A68  0E00               	movlw	0
  2521  000A6A  6FCA               	movwf	(efgtoa@e+1)& (0+255),b
  2522  000A6C  0E00               	movlw	0
  2523  000A6E  6FC9               	movwf	efgtoa@e& (0+255),b
  2524  000A70                     
  2525                           ; BSR set to: 0
  2526                           ;E:\MPLAB\pic\sources\c99\common\doprnt.c: 378:     if (!(g == 0.0)) {
  2527  000A70  C0C5  F011         	movff	efgtoa@g,___fleq@ff1
  2528  000A74  C0C6  F012         	movff	efgtoa@g+1,___fleq@ff1+1
  2529  000A78  C0C7  F013         	movff	efgtoa@g+2,___fleq@ff1+2
  2530  000A7C  C0C8  F014         	movff	efgtoa@g+3,___fleq@ff1+3
  2531  000A80  0E00               	movlw	0
  2532  000A82  6E15               	movwf	___fleq@ff2^0,c
  2533  000A84  0E00               	movlw	0
  2534  000A86  6E16               	movwf	(___fleq@ff2+1)^0,c
  2535  000A88  0E00               	movlw	0
  2536  000A8A  6E17               	movwf	(___fleq@ff2+2)^0,c
  2537  000A8C  0E00               	movlw	0
  2538  000A8E  6E18               	movwf	(___fleq@ff2+3)^0,c
  2539  000A90  ECE8  F01B         	call	___fleq	;wreg free
  2540  000A94  B0D8               	btfsc	status,0,c
  2541  000A96  EF4F  F005         	goto	u7461
  2542  000A9A  EF51  F005         	goto	u7460
  2543  000A9E                     u7461:
  2544  000A9E  EFD6  F005         	goto	l5381
  2545  000AA2                     u7460:
  2546  000AA2  EF70  F005         	goto	l5373
  2547  000AA6                     l5369:
  2548                           
  2549                           ; BSR set to: 0
  2550                           ;E:\MPLAB\pic\sources\c99\common\doprnt.c: 380:             u = u*10.0;
  2551  000AA6  C0CD  F025         	movff	efgtoa@u,___flmul@b
  2552  000AAA  C0CE  F026         	movff	efgtoa@u+1,___flmul@b+1
  2553  000AAE  C0CF  F027         	movff	efgtoa@u+2,___flmul@b+2
  2554  000AB2  C0D0  F028         	movff	efgtoa@u+3,___flmul@b+3
  2555  000AB6  0E00               	movlw	0
  2556  000AB8  6E29               	movwf	___flmul@a^0,c
  2557  000ABA  0E00               	movlw	0
  2558  000ABC  6E2A               	movwf	(___flmul@a+1)^0,c
  2559  000ABE  0E20               	movlw	32
  2560  000AC0  6E2B               	movwf	(___flmul@a+2)^0,c
  2561  000AC2  0E41               	movlw	65
  2562  000AC4  6E2C               	movwf	(___flmul@a+3)^0,c
  2563  000AC6  EC38  F011         	call	___flmul	;wreg free
  2564  000ACA  C025  F0CD         	movff	?___flmul,efgtoa@u
  2565  000ACE  C026  F0CE         	movff	?___flmul+1,efgtoa@u+1
  2566  000AD2  C027  F0CF         	movff	?___flmul+2,efgtoa@u+2
  2567  000AD6  C028  F0D0         	movff	?___flmul+3,efgtoa@u+3
  2568  000ADA                     
  2569                           ;E:\MPLAB\pic\sources\c99\common\doprnt.c: 381:             ++e;
  2570  000ADA  0100               	movlb	0	; () banked
  2571  000ADC  4BC9               	infsnz	efgtoa@e& (0+255),f,b
  2572  000ADE  2BCA               	incf	(efgtoa@e+1)& (0+255),f,b
  2573  000AE0                     l5373:
  2574                           
  2575                           ;E:\MPLAB\pic\sources\c99\common\doprnt.c: 379:         while (!(g < (u*10.0))) {
  2576  000AE0  C0C5  F060         	movff	efgtoa@g,___flge@ff1
  2577  000AE4  C0C6  F061         	movff	efgtoa@g+1,___flge@ff1+1
  2578  000AE8  C0C7  F062         	movff	efgtoa@g+2,___flge@ff1+2
  2579  000AEC  C0C8  F063         	movff	efgtoa@g+3,___flge@ff1+3
  2580  000AF0  0E00               	movlw	0
  2581  000AF2  6E29               	movwf	___flmul@a^0,c
  2582  000AF4  0E00               	movlw	0
  2583  000AF6  6E2A               	movwf	(___flmul@a+1)^0,c
  2584  000AF8  0E20               	movlw	32
  2585  000AFA  6E2B               	movwf	(___flmul@a+2)^0,c
  2586  000AFC  0E41               	movlw	65
  2587  000AFE  6E2C               	movwf	(___flmul@a+3)^0,c
  2588  000B00  C0CD  F025         	movff	efgtoa@u,___flmul@b
  2589  000B04  C0CE  F026         	movff	efgtoa@u+1,___flmul@b+1
  2590  000B08  C0CF  F027         	movff	efgtoa@u+2,___flmul@b+2
  2591  000B0C  C0D0  F028         	movff	efgtoa@u+3,___flmul@b+3
  2592  000B10  EC38  F011         	call	___flmul	;wreg free
  2593  000B14  C025  F064         	movff	?___flmul,___flge@ff2
  2594  000B18  C026  F065         	movff	?___flmul+1,___flge@ff2+1
  2595  000B1C  C027  F066         	movff	?___flmul+2,___flge@ff2+2
  2596  000B20  C028  F067         	movff	?___flmul+3,___flge@ff2+3
  2597  000B24  ECFB  F018         	call	___flge	;wreg free
  2598  000B28  0100               	movlb	0	; () banked
  2599  000B2A  B0D8               	btfsc	status,0,c
  2600  000B2C  EF9A  F005         	goto	u7471
  2601  000B30  EF9C  F005         	goto	u7470
  2602  000B34                     u7471:
  2603  000B34  EF53  F005         	goto	l5369
  2604  000B38                     u7470:
  2605  000B38  EFBC  F005         	goto	l5379
  2606  000B3C                     l5375:
  2607                           
  2608                           ; BSR set to: 0
  2609                           ;E:\MPLAB\pic\sources\c99\common\doprnt.c: 384:             u = u/10.0;
  2610  000B3C  C0CD  F060         	movff	efgtoa@u,___fldiv@b
  2611  000B40  C0CE  F061         	movff	efgtoa@u+1,___fldiv@b+1
  2612  000B44  C0CF  F062         	movff	efgtoa@u+2,___fldiv@b+2
  2613  000B48  C0D0  F063         	movff	efgtoa@u+3,___fldiv@b+3
  2614  000B4C  0E00               	movlw	0
  2615  000B4E  6F64               	movwf	___fldiv@a& (0+255),b
  2616  000B50  0E00               	movlw	0
  2617  000B52  6F65               	movwf	(___fldiv@a+1)& (0+255),b
  2618  000B54  0E20               	movlw	32
  2619  000B56  6F66               	movwf	(___fldiv@a+2)& (0+255),b
  2620  000B58  0E41               	movlw	65
  2621  000B5A  6F67               	movwf	(___fldiv@a+3)& (0+255),b
  2622  000B5C  EC4D  F013         	call	___fldiv	;wreg free
  2623  000B60  C060  F0CD         	movff	?___fldiv,efgtoa@u
  2624  000B64  C061  F0CE         	movff	?___fldiv+1,efgtoa@u+1
  2625  000B68  C062  F0CF         	movff	?___fldiv+2,efgtoa@u+2
  2626  000B6C  C063  F0D0         	movff	?___fldiv+3,efgtoa@u+3
  2627  000B70                     
  2628                           ;E:\MPLAB\pic\sources\c99\common\doprnt.c: 385:             --e;
  2629  000B70  0100               	movlb	0	; () banked
  2630  000B72  07C9               	decf	efgtoa@e& (0+255),f,b
  2631  000B74  A0D8               	btfss	status,0,c
  2632  000B76  07CA               	decf	(efgtoa@e+1)& (0+255),f,b
  2633  000B78                     l5379:
  2634                           
  2635                           ; BSR set to: 0
  2636                           ;E:\MPLAB\pic\sources\c99\common\doprnt.c: 383:         while (g < u) {
  2637  000B78  C0C5  F060         	movff	efgtoa@g,___flge@ff1
  2638  000B7C  C0C6  F061         	movff	efgtoa@g+1,___flge@ff1+1
  2639  000B80  C0C7  F062         	movff	efgtoa@g+2,___flge@ff1+2
  2640  000B84  C0C8  F063         	movff	efgtoa@g+3,___flge@ff1+3
  2641  000B88  C0CD  F064         	movff	efgtoa@u,___flge@ff2
  2642  000B8C  C0CE  F065         	movff	efgtoa@u+1,___flge@ff2+1
  2643  000B90  C0CF  F066         	movff	efgtoa@u+2,___flge@ff2+2
  2644  000B94  C0D0  F067         	movff	efgtoa@u+3,___flge@ff2+3
  2645  000B98  ECFB  F018         	call	___flge	;wreg free
  2646  000B9C  0100               	movlb	0	; () banked
  2647  000B9E  A0D8               	btfss	status,0,c
  2648  000BA0  EFD4  F005         	goto	u7481
  2649  000BA4  EFD6  F005         	goto	u7480
  2650  000BA8                     u7481:
  2651  000BA8  EF9E  F005         	goto	l5375
  2652  000BAC                     u7480:
  2653  000BAC                     l5381:
  2654                           
  2655                           ;E:\MPLAB\pic\sources\c99\common\doprnt.c: 390:     mode = (char)tolower((int)c);
  2656  000BAC  C093  F017         	movff	efgtoa@c,tolower@c
  2657  000BB0  6A18               	clrf	(tolower@c+1)^0,c
  2658  000BB2  EC4C  F01D         	call	_tolower	;wreg free
  2659  000BB6  5017               	movf	?_tolower^0,w,c
  2660  000BB8  0100               	movlb	0	; () banked
  2661  000BBA  6FBA               	movwf	efgtoa@mode& (0+255),b
  2662  000BBC                     
  2663                           ; BSR set to: 0
  2664                           ;E:\MPLAB\pic\sources\c99\common\doprnt.c: 391:     nmode = mode;
  2665  000BBC  C0BA  F0B9         	movff	efgtoa@mode,efgtoa@nmode
  2666  000BC0                     
  2667                           ; BSR set to: 0
  2668                           ;E:\MPLAB\pic\sources\c99\common\doprnt.c: 392:     if (mode == 'g') {
  2669  000BC0  0E67               	movlw	103
  2670  000BC2  19BA               	xorwf	efgtoa@mode& (0+255),w,b
  2671  000BC4  A4D8               	btfss	status,2,c
  2672  000BC6  EFE7  F005         	goto	u7491
  2673  000BCA  EFE9  F005         	goto	u7490
  2674  000BCE                     u7491:
  2675  000BCE  EF0F  F006         	goto	l5395
  2676  000BD2                     u7490:
  2677  000BD2                     
  2678                           ; BSR set to: 0
  2679                           ;E:\MPLAB\pic\sources\c99\common\doprnt.c: 393:   if (prec == 0) {
  2680  000BD2  51F9               	movf	_prec& (0+255),w,b
  2681  000BD4  11FA               	iorwf	(_prec+1)& (0+255),w,b
  2682  000BD6  A4D8               	btfss	status,2,c
  2683  000BD8  EFF0  F005         	goto	u7501
  2684  000BDC  EFF2  F005         	goto	u7500
  2685  000BE0                     u7501:
  2686  000BE0  EFF6  F005         	goto	l5391
  2687  000BE4                     u7500:
  2688  000BE4                     
  2689                           ; BSR set to: 0
  2690                           ;E:\MPLAB\pic\sources\c99\common\doprnt.c: 394:    prec = 1;
  2691  000BE4  0E00               	movlw	0
  2692  000BE6  6FFA               	movwf	(_prec+1)& (0+255),b
  2693  000BE8  0E01               	movlw	1
  2694  000BEA  6FF9               	movwf	_prec& (0+255),b
  2695  000BEC                     l5391:
  2696                           
  2697                           ; BSR set to: 0
  2698                           ;E:\MPLAB\pic\sources\c99\common\doprnt.c: 396:         p = (0 < prec) ? prec : 6;
  2699  000BEC  BFFA               	btfsc	(_prec+1)& (0+255),7,b
  2700  000BEE  EF03  F006         	goto	u7510
  2701  000BF2  51FA               	movf	(_prec+1)& (0+255),w,b
  2702  000BF4  E106               	bnz	u7511
  2703  000BF6  05F9               	decf	_prec& (0+255),w,b
  2704  000BF8  B0D8               	btfsc	status,0,c
  2705  000BFA  EF01  F006         	goto	u7511
  2706  000BFE  EF03  F006         	goto	u7510
  2707  000C02                     u7511:
  2708  000C02  EF09  F006         	goto	l905
  2709  000C06                     u7510:
  2710  000C06                     l5393:
  2711                           
  2712                           ; BSR set to: 0
  2713  000C06  0E00               	movlw	0
  2714  000C08  6FB6               	movwf	(efgtoa@p+1)& (0+255),b
  2715  000C0A  0E06               	movlw	6
  2716  000C0C  6FB5               	movwf	efgtoa@p& (0+255),b
  2717  000C0E  EF18  F006         	goto	l5401
  2718  000C12                     l905:
  2719                           
  2720                           ; BSR set to: 0
  2721  000C12  C0F9  F0B5         	movff	_prec,efgtoa@p
  2722  000C16  C0FA  F0B6         	movff	_prec+1,efgtoa@p+1
  2723  000C1A  EF18  F006         	goto	l5401
  2724  000C1E                     l5395:
  2725                           
  2726                           ; BSR set to: 0
  2727                           ;E:\MPLAB\pic\sources\c99\common\doprnt.c: 398:         p = (prec < 0) ? 6 : prec;
  2728  000C1E  BFFA               	btfsc	(_prec+1)& (0+255),7,b
  2729  000C20  EF14  F006         	goto	u7521
  2730  000C24  EF16  F006         	goto	u7520
  2731  000C28                     u7521:
  2732  000C28  EF03  F006         	goto	l5393
  2733  000C2C                     u7520:
  2734  000C2C  EF09  F006         	goto	l905
  2735  000C30                     l5401:
  2736                           
  2737                           ; BSR set to: 0
  2738                           ;E:\MPLAB\pic\sources\c99\common\doprnt.c: 402:     if (mode == 'g') {
  2739  000C30  0E67               	movlw	103
  2740  000C32  19BA               	xorwf	efgtoa@mode& (0+255),w,b
  2741  000C34  A4D8               	btfss	status,2,c
  2742  000C36  EF1F  F006         	goto	u7531
  2743  000C3A  EF21  F006         	goto	u7530
  2744  000C3E                     u7531:
  2745  000C3E  EF50  F006         	goto	l5411
  2746  000C42                     u7530:
  2747  000C42                     
  2748                           ; BSR set to: 0
  2749                           ;E:\MPLAB\pic\sources\c99\common\doprnt.c: 403:         if (!(e < -4) && !((p - 1) < e))
      +                           {
  2750  000C42  AFCA               	btfss	(efgtoa@e+1)& (0+255),7,b
  2751  000C44  EF2F  F006         	goto	u7540
  2752  000C48  0EFC               	movlw	252
  2753  000C4A  5DC9               	subwf	efgtoa@e& (0+255),w,b
  2754  000C4C  0EFF               	movlw	255
  2755  000C4E  59CA               	subwfb	(efgtoa@e+1)& (0+255),w,b
  2756  000C50  A0D8               	btfss	status,0,c
  2757  000C52  EF2D  F006         	goto	u7541
  2758  000C56  EF2F  F006         	goto	u7540
  2759  000C5A                     u7541:
  2760  000C5A  EF4E  F006         	goto	l5409
  2761  000C5E                     u7540:
  2762  000C5E                     
  2763                           ; BSR set to: 0
  2764  000C5E  0EFF               	movlw	255
  2765  000C60  6F94               	movwf	??_efgtoa& (0+255),b
  2766  000C62  0EFF               	movlw	255
  2767  000C64  6F95               	movwf	(??_efgtoa+1)& (0+255),b
  2768  000C66  C0B5  F096         	movff	efgtoa@p,??_efgtoa+2
  2769  000C6A  C0B6  F097         	movff	efgtoa@p+1,??_efgtoa+3
  2770  000C6E  5194               	movf	??_efgtoa& (0+255),w,b
  2771  000C70  2796               	addwf	(??_efgtoa+2)& (0+255),f,b
  2772  000C72  5195               	movf	(??_efgtoa+1)& (0+255),w,b
  2773  000C74  2397               	addwfc	(??_efgtoa+3)& (0+255),f,b
  2774  000C76  51C9               	movf	efgtoa@e& (0+255),w,b
  2775  000C78  5D96               	subwf	(??_efgtoa+2)& (0+255),w,b
  2776  000C7A  5197               	movf	(??_efgtoa+3)& (0+255),w,b
  2777  000C7C  0A80               	xorlw	128
  2778  000C7E  6F98               	movwf	(??_efgtoa+4)& (0+255),b
  2779  000C80  51CA               	movf	(efgtoa@e+1)& (0+255),w,b
  2780  000C82  0A80               	xorlw	128
  2781  000C84  5998               	subwfb	(??_efgtoa+4)& (0+255),w,b
  2782  000C86  A0D8               	btfss	status,0,c
  2783  000C88  EF48  F006         	goto	u7551
  2784  000C8C  EF4A  F006         	goto	u7550
  2785  000C90                     u7551:
  2786  000C90  EF4E  F006         	goto	l5409
  2787  000C94                     u7550:
  2788  000C94                     
  2789                           ; BSR set to: 0
  2790                           ;E:\MPLAB\pic\sources\c99\common\doprnt.c: 404:             nmode = 'f';
  2791  000C94  0E66               	movlw	102
  2792  000C96  6FB9               	movwf	efgtoa@nmode& (0+255),b
  2793                           
  2794                           ;E:\MPLAB\pic\sources\c99\common\doprnt.c: 405:         } else {
  2795  000C98  EF50  F006         	goto	l5411
  2796  000C9C                     l5409:
  2797                           
  2798                           ; BSR set to: 0
  2799                           ;E:\MPLAB\pic\sources\c99\common\doprnt.c: 406:             nmode = 'e';
  2800  000C9C  0E65               	movlw	101
  2801  000C9E  6FB9               	movwf	efgtoa@nmode& (0+255),b
  2802  000CA0                     l5411:
  2803                           
  2804                           ; BSR set to: 0
  2805                           ;E:\MPLAB\pic\sources\c99\common\doprnt.c: 411:     m = p;
  2806  000CA0  C0B5  F0AB         	movff	efgtoa@p,efgtoa@m
  2807  000CA4  C0B6  F0AC         	movff	efgtoa@p+1,efgtoa@m+1
  2808  000CA8                     
  2809                           ; BSR set to: 0
  2810                           ;E:\MPLAB\pic\sources\c99\common\doprnt.c: 412:     if (!(mode == 'g') || ((nmode == 'f'
      +                          ) && (e < 0))) {
  2811  000CA8  0E67               	movlw	103
  2812  000CAA  19BA               	xorwf	efgtoa@mode& (0+255),w,b
  2813  000CAC  A4D8               	btfss	status,2,c
  2814  000CAE  EF5B  F006         	goto	u7561
  2815  000CB2  EF5D  F006         	goto	u7560
  2816  000CB6                     u7561:
  2817  000CB6  EF6D  F006         	goto	l5419
  2818  000CBA                     u7560:
  2819  000CBA                     
  2820                           ; BSR set to: 0
  2821  000CBA  0E66               	movlw	102
  2822  000CBC  19B9               	xorwf	efgtoa@nmode& (0+255),w,b
  2823  000CBE  A4D8               	btfss	status,2,c
  2824  000CC0  EF64  F006         	goto	u7571
  2825  000CC4  EF66  F006         	goto	u7570
  2826  000CC8                     u7571:
  2827  000CC8  EF6F  F006         	goto	l5421
  2828  000CCC                     u7570:
  2829  000CCC                     
  2830                           ; BSR set to: 0
  2831  000CCC  BFCA               	btfsc	(efgtoa@e+1)& (0+255),7,b
  2832  000CCE  EF6D  F006         	goto	u7580
  2833  000CD2  EF6B  F006         	goto	u7581
  2834  000CD6                     u7581:
  2835  000CD6  EF6F  F006         	goto	l5421
  2836  000CDA                     u7580:
  2837  000CDA                     l5419:
  2838                           
  2839                           ; BSR set to: 0
  2840                           ;E:\MPLAB\pic\sources\c99\common\doprnt.c: 413:         ++m;
  2841  000CDA  4BAB               	infsnz	efgtoa@m& (0+255),f,b
  2842  000CDC  2BAC               	incf	(efgtoa@m+1)& (0+255),f,b
  2843  000CDE                     l5421:
  2844                           
  2845                           ; BSR set to: 0
  2846                           ;E:\MPLAB\pic\sources\c99\common\doprnt.c: 417:     if (nmode == 'f') {
  2847  000CDE  0E66               	movlw	102
  2848  000CE0  19B9               	xorwf	efgtoa@nmode& (0+255),w,b
  2849  000CE2  A4D8               	btfss	status,2,c
  2850  000CE4  EF76  F006         	goto	u7591
  2851  000CE8  EF78  F006         	goto	u7590
  2852  000CEC                     u7591:
  2853  000CEC  EF98  F006         	goto	l5431
  2854  000CF0                     u7590:
  2855  000CF0                     
  2856                           ; BSR set to: 0
  2857                           ;E:\MPLAB\pic\sources\c99\common\doprnt.c: 418:         if (e < 0) {
  2858  000CF0  BFCA               	btfsc	(efgtoa@e+1)& (0+255),7,b
  2859  000CF2  EF7F  F006         	goto	u7600
  2860  000CF6  EF7D  F006         	goto	u7601
  2861  000CFA                     u7601:
  2862  000CFA  EF8B  F006         	goto	l5427
  2863  000CFE                     u7600:
  2864  000CFE                     
  2865                           ; BSR set to: 0
  2866                           ;E:\MPLAB\pic\sources\c99\common\doprnt.c: 419:             u = 1.0;
  2867  000CFE  0E00               	movlw	0
  2868  000D00  6FCD               	movwf	efgtoa@u& (0+255),b
  2869  000D02  0E00               	movlw	0
  2870  000D04  6FCE               	movwf	(efgtoa@u+1)& (0+255),b
  2871  000D06  0E80               	movlw	128
  2872  000D08  6FCF               	movwf	(efgtoa@u+2)& (0+255),b
  2873  000D0A  0E3F               	movlw	63
  2874  000D0C  6FD0               	movwf	(efgtoa@u+3)& (0+255),b
  2875                           
  2876                           ;E:\MPLAB\pic\sources\c99\common\doprnt.c: 420:             e = 0;
  2877  000D0E  0E00               	movlw	0
  2878  000D10  6FCA               	movwf	(efgtoa@e+1)& (0+255),b
  2879  000D12  0E00               	movlw	0
  2880  000D14  6FC9               	movwf	efgtoa@e& (0+255),b
  2881  000D16                     l5427:
  2882                           
  2883                           ; BSR set to: 0
  2884                           ;E:\MPLAB\pic\sources\c99\common\doprnt.c: 422:         if (!(mode == 'g')) {
  2885  000D16  0E67               	movlw	103
  2886  000D18  19BA               	xorwf	efgtoa@mode& (0+255),w,b
  2887  000D1A  B4D8               	btfsc	status,2,c
  2888  000D1C  EF92  F006         	goto	u7611
  2889  000D20  EF94  F006         	goto	u7610
  2890  000D24                     u7611:
  2891  000D24  EF98  F006         	goto	l5431
  2892  000D28                     u7610:
  2893  000D28                     
  2894                           ; BSR set to: 0
  2895                           ;E:\MPLAB\pic\sources\c99\common\doprnt.c: 423:             m += e;
  2896  000D28  51C9               	movf	efgtoa@e& (0+255),w,b
  2897  000D2A  27AB               	addwf	efgtoa@m& (0+255),f,b
  2898  000D2C  51CA               	movf	(efgtoa@e+1)& (0+255),w,b
  2899  000D2E  23AC               	addwfc	(efgtoa@m+1)& (0+255),f,b
  2900  000D30                     l5431:
  2901                           
  2902                           ; BSR set to: 0
  2903                           ;E:\MPLAB\pic\sources\c99\common\doprnt.c: 428:     i = 0;
  2904  000D30  0E00               	movlw	0
  2905  000D32  6FC4               	movwf	(efgtoa@i+1)& (0+255),b
  2906  000D34  0E00               	movlw	0
  2907  000D36  6FC3               	movwf	efgtoa@i& (0+255),b
  2908  000D38                     
  2909                           ; BSR set to: 0
  2910                           ;E:\MPLAB\pic\sources\c99\common\doprnt.c: 429:     h = g;
  2911  000D38  C0C5  F0BB         	movff	efgtoa@g,efgtoa@h
  2912  000D3C  C0C6  F0BC         	movff	efgtoa@g+1,efgtoa@h+1
  2913  000D40  C0C7  F0BD         	movff	efgtoa@g+2,efgtoa@h+2
  2914  000D44  C0C8  F0BE         	movff	efgtoa@g+3,efgtoa@h+3
  2915  000D48                     
  2916                           ; BSR set to: 0
  2917                           ;E:\MPLAB\pic\sources\c99\common\doprnt.c: 430:     ou = u;
  2918  000D48  C0CD  F0AD         	movff	efgtoa@u,efgtoa@ou
  2919  000D4C  C0CE  F0AE         	movff	efgtoa@u+1,efgtoa@ou+1
  2920  000D50  C0CF  F0AF         	movff	efgtoa@u+2,efgtoa@ou+2
  2921  000D54  C0D0  F0B0         	movff	efgtoa@u+3,efgtoa@ou+3
  2922                           
  2923                           ;E:\MPLAB\pic\sources\c99\common\doprnt.c: 431:     while (i < m) {
  2924  000D58  EF2A  F007         	goto	l5445
  2925  000D5C                     l5437:
  2926                           
  2927                           ; BSR set to: 0
  2928                           ;E:\MPLAB\pic\sources\c99\common\doprnt.c: 432:         l = floorf(h/u);
  2929  000D5C  C0BB  F060         	movff	efgtoa@h,___fldiv@b
  2930  000D60  C0BC  F061         	movff	efgtoa@h+1,___fldiv@b+1
  2931  000D64  C0BD  F062         	movff	efgtoa@h+2,___fldiv@b+2
  2932  000D68  C0BE  F063         	movff	efgtoa@h+3,___fldiv@b+3
  2933  000D6C  C0CD  F064         	movff	efgtoa@u,___fldiv@a
  2934  000D70  C0CE  F065         	movff	efgtoa@u+1,___fldiv@a+1
  2935  000D74  C0CF  F066         	movff	efgtoa@u+2,___fldiv@a+2
  2936  000D78  C0D0  F067         	movff	efgtoa@u+3,___fldiv@a+3
  2937  000D7C  EC4D  F013         	call	___fldiv	;wreg free
  2938  000D80  C060  F079         	movff	?___fldiv,floorf@x
  2939  000D84  C061  F07A         	movff	?___fldiv+1,floorf@x+1
  2940  000D88  C062  F07B         	movff	?___fldiv+2,floorf@x+2
  2941  000D8C  C063  F07C         	movff	?___fldiv+3,floorf@x+3
  2942  000D90  EC1B  F015         	call	_floorf	;wreg free
  2943  000D94  C079  F0BF         	movff	?_floorf,efgtoa@l
  2944  000D98  C07A  F0C0         	movff	?_floorf+1,efgtoa@l+1
  2945  000D9C  C07B  F0C1         	movff	?_floorf+2,efgtoa@l+2
  2946  000DA0  C07C  F0C2         	movff	?_floorf+3,efgtoa@l+3
  2947                           
  2948                           ;E:\MPLAB\pic\sources\c99\common\doprnt.c: 433:         d = (int)l;
  2949  000DA4  C0BF  F079         	movff	efgtoa@l,___fltol@f1
  2950  000DA8  C0C0  F07A         	movff	efgtoa@l+1,___fltol@f1+1
  2951  000DAC  C0C1  F07B         	movff	efgtoa@l+2,___fltol@f1+2
  2952  000DB0  C0C2  F07C         	movff	efgtoa@l+3,___fltol@f1+3
  2953  000DB4  EC77  F018         	call	___fltol	;wreg free
  2954  000DB8  C079  F0B1         	movff	?___fltol,efgtoa@d
  2955  000DBC  C07A  F0B2         	movff	?___fltol+1,efgtoa@d+1
  2956  000DC0                     
  2957                           ;E:\MPLAB\pic\sources\c99\common\doprnt.c: 434:         h -= l*u;
  2958  000DC0  C0BB  F060         	movff	efgtoa@h,___flsub@b
  2959  000DC4  C0BC  F061         	movff	efgtoa@h+1,___flsub@b+1
  2960  000DC8  C0BD  F062         	movff	efgtoa@h+2,___flsub@b+2
  2961  000DCC  C0BE  F063         	movff	efgtoa@h+3,___flsub@b+3
  2962  000DD0  C0CD  F029         	movff	efgtoa@u,___flmul@a
  2963  000DD4  C0CE  F02A         	movff	efgtoa@u+1,___flmul@a+1
  2964  000DD8  C0CF  F02B         	movff	efgtoa@u+2,___flmul@a+2
  2965  000DDC  C0D0  F02C         	movff	efgtoa@u+3,___flmul@a+3
  2966  000DE0  C0BF  F025         	movff	efgtoa@l,___flmul@b
  2967  000DE4  C0C0  F026         	movff	efgtoa@l+1,___flmul@b+1
  2968  000DE8  C0C1  F027         	movff	efgtoa@l+2,___flmul@b+2
  2969  000DEC  C0C2  F028         	movff	efgtoa@l+3,___flmul@b+3
  2970  000DF0  EC38  F011         	call	___flmul	;wreg free
  2971  000DF4  C025  F064         	movff	?___flmul,___flsub@a
  2972  000DF8  C026  F065         	movff	?___flmul+1,___flsub@a+1
  2973  000DFC  C027  F066         	movff	?___flmul+2,___flsub@a+2
  2974  000E00  C028  F067         	movff	?___flmul+3,___flsub@a+3
  2975  000E04  EC72  F01E         	call	___flsub	;wreg free
  2976  000E08  C060  F0BB         	movff	?___flsub,efgtoa@h
  2977  000E0C  C061  F0BC         	movff	?___flsub+1,efgtoa@h+1
  2978  000E10  C062  F0BD         	movff	?___flsub+2,efgtoa@h+2
  2979  000E14  C063  F0BE         	movff	?___flsub+3,efgtoa@h+3
  2980  000E18                     
  2981                           ;E:\MPLAB\pic\sources\c99\common\doprnt.c: 435:         u = u/10.0;
  2982  000E18  C0CD  F060         	movff	efgtoa@u,___fldiv@b
  2983  000E1C  C0CE  F061         	movff	efgtoa@u+1,___fldiv@b+1
  2984  000E20  C0CF  F062         	movff	efgtoa@u+2,___fldiv@b+2
  2985  000E24  C0D0  F063         	movff	efgtoa@u+3,___fldiv@b+3
  2986  000E28  0E00               	movlw	0
  2987  000E2A  0100               	movlb	0	; () banked
  2988  000E2C  6F64               	movwf	___fldiv@a& (0+255),b
  2989  000E2E  0E00               	movlw	0
  2990  000E30  6F65               	movwf	(___fldiv@a+1)& (0+255),b
  2991  000E32  0E20               	movlw	32
  2992  000E34  6F66               	movwf	(___fldiv@a+2)& (0+255),b
  2993  000E36  0E41               	movlw	65
  2994  000E38  6F67               	movwf	(___fldiv@a+3)& (0+255),b
  2995  000E3A  EC4D  F013         	call	___fldiv	;wreg free
  2996  000E3E  C060  F0CD         	movff	?___fldiv,efgtoa@u
  2997  000E42  C061  F0CE         	movff	?___fldiv+1,efgtoa@u+1
  2998  000E46  C062  F0CF         	movff	?___fldiv+2,efgtoa@u+2
  2999  000E4A  C063  F0D0         	movff	?___fldiv+3,efgtoa@u+3
  3000  000E4E                     
  3001                           ;E:\MPLAB\pic\sources\c99\common\doprnt.c: 436:         ++i;
  3002  000E4E  0100               	movlb	0	; () banked
  3003  000E50  4BC3               	infsnz	efgtoa@i& (0+255),f,b
  3004  000E52  2BC4               	incf	(efgtoa@i+1)& (0+255),f,b
  3005  000E54                     l5445:
  3006                           
  3007                           ; BSR set to: 0
  3008                           ;E:\MPLAB\pic\sources\c99\common\doprnt.c: 431:     while (i < m) {
  3009  000E54  51AB               	movf	efgtoa@m& (0+255),w,b
  3010  000E56  5DC3               	subwf	efgtoa@i& (0+255),w,b
  3011  000E58  51C4               	movf	(efgtoa@i+1)& (0+255),w,b
  3012  000E5A  0A80               	xorlw	128
  3013  000E5C  6F94               	movwf	??_efgtoa& (0+255),b
  3014  000E5E  51AC               	movf	(efgtoa@m+1)& (0+255),w,b
  3015  000E60  0A80               	xorlw	128
  3016  000E62  5994               	subwfb	??_efgtoa& (0+255),w,b
  3017  000E64  A0D8               	btfss	status,0,c
  3018  000E66  EF37  F007         	goto	u7621
  3019  000E6A  EF39  F007         	goto	u7620
  3020  000E6E                     u7621:
  3021  000E6E  EFAE  F006         	goto	l5437
  3022  000E72                     u7620:
  3023  000E72                     
  3024                           ; BSR set to: 0
  3025                           ;E:\MPLAB\pic\sources\c99\common\doprnt.c: 440:     l = u*5.0;
  3026  000E72  C0CD  F025         	movff	efgtoa@u,___flmul@b
  3027  000E76  C0CE  F026         	movff	efgtoa@u+1,___flmul@b+1
  3028  000E7A  C0CF  F027         	movff	efgtoa@u+2,___flmul@b+2
  3029  000E7E  C0D0  F028         	movff	efgtoa@u+3,___flmul@b+3
  3030  000E82  0E00               	movlw	0
  3031  000E84  6E29               	movwf	___flmul@a^0,c
  3032  000E86  0E00               	movlw	0
  3033  000E88  6E2A               	movwf	(___flmul@a+1)^0,c
  3034  000E8A  0EA0               	movlw	160
  3035  000E8C  6E2B               	movwf	(___flmul@a+2)^0,c
  3036  000E8E  0E40               	movlw	64
  3037  000E90  6E2C               	movwf	(___flmul@a+3)^0,c
  3038  000E92  EC38  F011         	call	___flmul	;wreg free
  3039  000E96  C025  F0BF         	movff	?___flmul,efgtoa@l
  3040  000E9A  C026  F0C0         	movff	?___flmul+1,efgtoa@l+1
  3041  000E9E  C027  F0C1         	movff	?___flmul+2,efgtoa@l+2
  3042  000EA2  C028  F0C2         	movff	?___flmul+3,efgtoa@l+3
  3043  000EA6                     
  3044                           ;E:\MPLAB\pic\sources\c99\common\doprnt.c: 441:     if (h < l) {
  3045  000EA6  C0BB  F060         	movff	efgtoa@h,___flge@ff1
  3046  000EAA  C0BC  F061         	movff	efgtoa@h+1,___flge@ff1+1
  3047  000EAE  C0BD  F062         	movff	efgtoa@h+2,___flge@ff1+2
  3048  000EB2  C0BE  F063         	movff	efgtoa@h+3,___flge@ff1+3
  3049  000EB6  C0BF  F064         	movff	efgtoa@l,___flge@ff2
  3050  000EBA  C0C0  F065         	movff	efgtoa@l+1,___flge@ff2+1
  3051  000EBE  C0C1  F066         	movff	efgtoa@l+2,___flge@ff2+2
  3052  000EC2  C0C2  F067         	movff	efgtoa@l+3,___flge@ff2+3
  3053  000EC6  ECFB  F018         	call	___flge	;wreg free
  3054  000ECA  0100               	movlb	0	; () banked
  3055  000ECC  B0D8               	btfsc	status,0,c
  3056  000ECE  EF6B  F007         	goto	u7631
  3057  000ED2  EF6D  F007         	goto	u7630
  3058  000ED6                     u7631:
  3059  000ED6  EF77  F007         	goto	l5453
  3060  000EDA                     u7630:
  3061  000EDA                     
  3062                           ; BSR set to: 0
  3063                           ;E:\MPLAB\pic\sources\c99\common\doprnt.c: 442:         l = 0.0;
  3064  000EDA  0E00               	movlw	0
  3065  000EDC  6FBF               	movwf	efgtoa@l& (0+255),b
  3066  000EDE  0E00               	movlw	0
  3067  000EE0  6FC0               	movwf	(efgtoa@l+1)& (0+255),b
  3068  000EE2  0E00               	movlw	0
  3069  000EE4  6FC1               	movwf	(efgtoa@l+2)& (0+255),b
  3070  000EE6  0E00               	movlw	0
  3071  000EE8  6FC2               	movwf	(efgtoa@l+3)& (0+255),b
  3072                           
  3073                           ;E:\MPLAB\pic\sources\c99\common\doprnt.c: 443:     } else {
  3074  000EEA  EFA0  F007         	goto	l5459
  3075  000EEE                     l5453:
  3076                           
  3077                           ; BSR set to: 0
  3078                           ;E:\MPLAB\pic\sources\c99\common\doprnt.c: 445:         if ((h == l) && !(d % 2)) {
  3079  000EEE  C0BB  F011         	movff	efgtoa@h,___fleq@ff1
  3080  000EF2  C0BC  F012         	movff	efgtoa@h+1,___fleq@ff1+1
  3081  000EF6  C0BD  F013         	movff	efgtoa@h+2,___fleq@ff1+2
  3082  000EFA  C0BE  F014         	movff	efgtoa@h+3,___fleq@ff1+3
  3083  000EFE  C0BF  F015         	movff	efgtoa@l,___fleq@ff2
  3084  000F02  C0C0  F016         	movff	efgtoa@l+1,___fleq@ff2+1
  3085  000F06  C0C1  F017         	movff	efgtoa@l+2,___fleq@ff2+2
  3086  000F0A  C0C2  F018         	movff	efgtoa@l+3,___fleq@ff2+3
  3087  000F0E  ECE8  F01B         	call	___fleq	;wreg free
  3088  000F12  A0D8               	btfss	status,0,c
  3089  000F14  EF8E  F007         	goto	u7641
  3090  000F18  EF90  F007         	goto	u7640
  3091  000F1C                     u7641:
  3092  000F1C  EFA0  F007         	goto	l5459
  3093  000F20                     u7640:
  3094  000F20  0100               	movlb	0	; () banked
  3095  000F22  B1B1               	btfsc	efgtoa@d& (0+255),0,b
  3096  000F24  EF96  F007         	goto	u7651
  3097  000F28  EF98  F007         	goto	u7650
  3098  000F2C                     u7651:
  3099  000F2C  EFA0  F007         	goto	l5459
  3100  000F30                     u7650:
  3101  000F30                     
  3102                           ; BSR set to: 0
  3103                           ;E:\MPLAB\pic\sources\c99\common\doprnt.c: 446:             l = 0.0;
  3104  000F30  0E00               	movlw	0
  3105  000F32  6FBF               	movwf	efgtoa@l& (0+255),b
  3106  000F34  0E00               	movlw	0
  3107  000F36  6FC0               	movwf	(efgtoa@l+1)& (0+255),b
  3108  000F38  0E00               	movlw	0
  3109  000F3A  6FC1               	movwf	(efgtoa@l+2)& (0+255),b
  3110  000F3C  0E00               	movlw	0
  3111  000F3E  6FC2               	movwf	(efgtoa@l+3)& (0+255),b
  3112  000F40                     l5459:
  3113                           
  3114                           ;E:\MPLAB\pic\sources\c99\common\doprnt.c: 451:     h = g + l;
  3115  000F40  C0C5  F011         	movff	efgtoa@g,___fladd@b
  3116  000F44  C0C6  F012         	movff	efgtoa@g+1,___fladd@b+1
  3117  000F48  C0C7  F013         	movff	efgtoa@g+2,___fladd@b+2
  3118  000F4C  C0C8  F014         	movff	efgtoa@g+3,___fladd@b+3
  3119  000F50  C0BF  F015         	movff	efgtoa@l,___fladd@a
  3120  000F54  C0C0  F016         	movff	efgtoa@l+1,___fladd@a+1
  3121  000F58  C0C1  F017         	movff	efgtoa@l+2,___fladd@a+2
  3122  000F5C  C0C2  F018         	movff	efgtoa@l+3,___fladd@a+3
  3123  000F60  EC41  F00A         	call	___fladd	;wreg free
  3124  000F64  C011  F0BB         	movff	?___fladd,efgtoa@h
  3125  000F68  C012  F0BC         	movff	?___fladd+1,efgtoa@h+1
  3126  000F6C  C013  F0BD         	movff	?___fladd+2,efgtoa@h+2
  3127  000F70  C014  F0BE         	movff	?___fladd+3,efgtoa@h+3
  3128  000F74                     
  3129                           ;E:\MPLAB\pic\sources\c99\common\doprnt.c: 453:  if (h >= (ou*10.0)) {
  3130  000F74  C0BB  F060         	movff	efgtoa@h,___flge@ff1
  3131  000F78  C0BC  F061         	movff	efgtoa@h+1,___flge@ff1+1
  3132  000F7C  C0BD  F062         	movff	efgtoa@h+2,___flge@ff1+2
  3133  000F80  C0BE  F063         	movff	efgtoa@h+3,___flge@ff1+3
  3134  000F84  0E00               	movlw	0
  3135  000F86  6E29               	movwf	___flmul@a^0,c
  3136  000F88  0E00               	movlw	0
  3137  000F8A  6E2A               	movwf	(___flmul@a+1)^0,c
  3138  000F8C  0E20               	movlw	32
  3139  000F8E  6E2B               	movwf	(___flmul@a+2)^0,c
  3140  000F90  0E41               	movlw	65
  3141  000F92  6E2C               	movwf	(___flmul@a+3)^0,c
  3142  000F94  C0AD  F025         	movff	efgtoa@ou,___flmul@b
  3143  000F98  C0AE  F026         	movff	efgtoa@ou+1,___flmul@b+1
  3144  000F9C  C0AF  F027         	movff	efgtoa@ou+2,___flmul@b+2
  3145  000FA0  C0B0  F028         	movff	efgtoa@ou+3,___flmul@b+3
  3146  000FA4  EC38  F011         	call	___flmul	;wreg free
  3147  000FA8  C025  F064         	movff	?___flmul,___flge@ff2
  3148  000FAC  C026  F065         	movff	?___flmul+1,___flge@ff2+1
  3149  000FB0  C027  F066         	movff	?___flmul+2,___flge@ff2+2
  3150  000FB4  C028  F067         	movff	?___flmul+3,___flge@ff2+3
  3151  000FB8  ECFB  F018         	call	___flge	;wreg free
  3152  000FBC  0100               	movlb	0	; () banked
  3153  000FBE  A0D8               	btfss	status,0,c
  3154  000FC0  EFE4  F007         	goto	u7661
  3155  000FC4  EFE6  F007         	goto	u7660
  3156  000FC8                     u7661:
  3157  000FC8  EF0E  F008         	goto	l5471
  3158  000FCC                     u7660:
  3159  000FCC                     
  3160                           ; BSR set to: 0
  3161                           ;E:\MPLAB\pic\sources\c99\common\doprnt.c: 454:   e++;
  3162  000FCC  4BC9               	infsnz	efgtoa@e& (0+255),f,b
  3163  000FCE  2BCA               	incf	(efgtoa@e+1)& (0+255),f,b
  3164  000FD0                     
  3165                           ; BSR set to: 0
  3166                           ;E:\MPLAB\pic\sources\c99\common\doprnt.c: 455:   ou *= 10.0;
  3167  000FD0  C0AD  F025         	movff	efgtoa@ou,___flmul@b
  3168  000FD4  C0AE  F026         	movff	efgtoa@ou+1,___flmul@b+1
  3169  000FD8  C0AF  F027         	movff	efgtoa@ou+2,___flmul@b+2
  3170  000FDC  C0B0  F028         	movff	efgtoa@ou+3,___flmul@b+3
  3171  000FE0  0E00               	movlw	0
  3172  000FE2  6E29               	movwf	___flmul@a^0,c
  3173  000FE4  0E00               	movlw	0
  3174  000FE6  6E2A               	movwf	(___flmul@a+1)^0,c
  3175  000FE8  0E20               	movlw	32
  3176  000FEA  6E2B               	movwf	(___flmul@a+2)^0,c
  3177  000FEC  0E41               	movlw	65
  3178  000FEE  6E2C               	movwf	(___flmul@a+3)^0,c
  3179  000FF0  EC38  F011         	call	___flmul	;wreg free
  3180  000FF4  C025  F0AD         	movff	?___flmul,efgtoa@ou
  3181  000FF8  C026  F0AE         	movff	?___flmul+1,efgtoa@ou+1
  3182  000FFC  C027  F0AF         	movff	?___flmul+2,efgtoa@ou+2
  3183  001000  C028  F0B0         	movff	?___flmul+3,efgtoa@ou+3
  3184  001004                     
  3185                           ;E:\MPLAB\pic\sources\c99\common\doprnt.c: 456:   if (nmode == 'f') {
  3186  001004  0E66               	movlw	102
  3187  001006  0100               	movlb	0	; () banked
  3188  001008  19B9               	xorwf	efgtoa@nmode& (0+255),w,b
  3189  00100A  A4D8               	btfss	status,2,c
  3190  00100C  EF0A  F008         	goto	u7671
  3191  001010  EF0C  F008         	goto	u7670
  3192  001014                     u7671:
  3193  001014  EF0E  F008         	goto	l5471
  3194  001018                     u7670:
  3195  001018                     
  3196                           ; BSR set to: 0
  3197                           ;E:\MPLAB\pic\sources\c99\common\doprnt.c: 458:    m++;
  3198  001018  4BAB               	infsnz	efgtoa@m& (0+255),f,b
  3199  00101A  2BAC               	incf	(efgtoa@m+1)& (0+255),f,b
  3200  00101C                     l5471:
  3201                           
  3202                           ; BSR set to: 0
  3203                           ;E:\MPLAB\pic\sources\c99\common\doprnt.c: 463:     u = ou;
  3204  00101C  C0AD  F0CD         	movff	efgtoa@ou,efgtoa@u
  3205  001020  C0AE  F0CE         	movff	efgtoa@ou+1,efgtoa@u+1
  3206  001024  C0AF  F0CF         	movff	efgtoa@ou+2,efgtoa@u+2
  3207  001028  C0B0  F0D0         	movff	efgtoa@ou+3,efgtoa@u+3
  3208  00102C                     
  3209                           ; BSR set to: 0
  3210                           ;E:\MPLAB\pic\sources\c99\common\doprnt.c: 464:     ne = (nmode == 'e') ? 0 : e;
  3211  00102C  0E65               	movlw	101
  3212  00102E  19B9               	xorwf	efgtoa@nmode& (0+255),w,b
  3213  001030  B4D8               	btfsc	status,2,c
  3214  001032  EF1D  F008         	goto	u7681
  3215  001036  EF1F  F008         	goto	u7680
  3216  00103A                     u7681:
  3217  00103A  EF25  F008         	goto	l5477
  3218  00103E                     u7680:
  3219  00103E                     
  3220                           ; BSR set to: 0
  3221  00103E  C0C9  F0A9         	movff	efgtoa@e,efgtoa@ne
  3222  001042  C0CA  F0AA         	movff	efgtoa@e+1,efgtoa@ne+1
  3223  001046  EF29  F008         	goto	l933
  3224  00104A                     l5477:
  3225                           
  3226                           ; BSR set to: 0
  3227  00104A  0E00               	movlw	0
  3228  00104C  6FAA               	movwf	(efgtoa@ne+1)& (0+255),b
  3229  00104E  0E00               	movlw	0
  3230  001050  6FA9               	movwf	efgtoa@ne& (0+255),b
  3231  001052                     l933:
  3232                           
  3233                           ; BSR set to: 0
  3234                           ;E:\MPLAB\pic\sources\c99\common\doprnt.c: 465:     pp = 0;
  3235  001052  0E00               	movlw	0
  3236  001054  6FA8               	movwf	(efgtoa@pp+1)& (0+255),b
  3237  001056  0E00               	movlw	0
  3238  001058  6FA7               	movwf	efgtoa@pp& (0+255),b
  3239                           
  3240                           ;E:\MPLAB\pic\sources\c99\common\doprnt.c: 466:     t = 0;
  3241  00105A  0E00               	movlw	0
  3242  00105C  6FA6               	movwf	(efgtoa@t+1)& (0+255),b
  3243  00105E  0E00               	movlw	0
  3244  001060  6FA5               	movwf	efgtoa@t& (0+255),b
  3245                           
  3246                           ;E:\MPLAB\pic\sources\c99\common\doprnt.c: 467:     i = 0;
  3247  001062  0E00               	movlw	0
  3248  001064  6FC4               	movwf	(efgtoa@i+1)& (0+255),b
  3249  001066  0E00               	movlw	0
  3250  001068  6FC3               	movwf	efgtoa@i& (0+255),b
  3251                           
  3252                           ;E:\MPLAB\pic\sources\c99\common\doprnt.c: 468:     while ((i < m) && (n < (80 - 5))) {
  3253  00106A  EF26  F009         	goto	l5527
  3254  00106E                     l5479:
  3255                           
  3256                           ; BSR set to: 0
  3257                           ;E:\MPLAB\pic\sources\c99\common\doprnt.c: 469:         l = floorf(h/u);
  3258  00106E  C0BB  F060         	movff	efgtoa@h,___fldiv@b
  3259  001072  C0BC  F061         	movff	efgtoa@h+1,___fldiv@b+1
  3260  001076  C0BD  F062         	movff	efgtoa@h+2,___fldiv@b+2
  3261  00107A  C0BE  F063         	movff	efgtoa@h+3,___fldiv@b+3
  3262  00107E  C0CD  F064         	movff	efgtoa@u,___fldiv@a
  3263  001082  C0CE  F065         	movff	efgtoa@u+1,___fldiv@a+1
  3264  001086  C0CF  F066         	movff	efgtoa@u+2,___fldiv@a+2
  3265  00108A  C0D0  F067         	movff	efgtoa@u+3,___fldiv@a+3
  3266  00108E  EC4D  F013         	call	___fldiv	;wreg free
  3267  001092  C060  F079         	movff	?___fldiv,floorf@x
  3268  001096  C061  F07A         	movff	?___fldiv+1,floorf@x+1
  3269  00109A  C062  F07B         	movff	?___fldiv+2,floorf@x+2
  3270  00109E  C063  F07C         	movff	?___fldiv+3,floorf@x+3
  3271  0010A2  EC1B  F015         	call	_floorf	;wreg free
  3272  0010A6  C079  F0BF         	movff	?_floorf,efgtoa@l
  3273  0010AA  C07A  F0C0         	movff	?_floorf+1,efgtoa@l+1
  3274  0010AE  C07B  F0C1         	movff	?_floorf+2,efgtoa@l+2
  3275  0010B2  C07C  F0C2         	movff	?_floorf+3,efgtoa@l+3
  3276                           
  3277                           ;E:\MPLAB\pic\sources\c99\common\doprnt.c: 470:         d = (int)l;
  3278  0010B6  C0BF  F079         	movff	efgtoa@l,___fltol@f1
  3279  0010BA  C0C0  F07A         	movff	efgtoa@l+1,___fltol@f1+1
  3280  0010BE  C0C1  F07B         	movff	efgtoa@l+2,___fltol@f1+2
  3281  0010C2  C0C2  F07C         	movff	efgtoa@l+3,___fltol@f1+3
  3282  0010C6  EC77  F018         	call	___fltol	;wreg free
  3283  0010CA  C079  F0B1         	movff	?___fltol,efgtoa@d
  3284  0010CE  C07A  F0B2         	movff	?___fltol+1,efgtoa@d+1
  3285  0010D2                     
  3286                           ;E:\MPLAB\pic\sources\c99\common\doprnt.c: 471:         if (!(flags & (1 << 4)) && !d &&
      +                           (mode == 'g') && (ne < 0)) {
  3287  0010D2  B84C               	btfsc	_flags^0,4,c
  3288  0010D4  EF6E  F008         	goto	u7691
  3289  0010D8  EF70  F008         	goto	u7690
  3290  0010DC                     u7691:
  3291  0010DC  EF8E  F008         	goto	l5491
  3292  0010E0                     u7690:
  3293  0010E0  0100               	movlb	0	; () banked
  3294  0010E2  51B1               	movf	efgtoa@d& (0+255),w,b
  3295  0010E4  11B2               	iorwf	(efgtoa@d+1)& (0+255),w,b
  3296  0010E6  A4D8               	btfss	status,2,c
  3297  0010E8  EF78  F008         	goto	u7701
  3298  0010EC  EF7A  F008         	goto	u7700
  3299  0010F0                     u7701:
  3300  0010F0  EF8E  F008         	goto	l5491
  3301  0010F4                     u7700:
  3302  0010F4                     
  3303                           ; BSR set to: 0
  3304  0010F4  0E67               	movlw	103
  3305  0010F6  19BA               	xorwf	efgtoa@mode& (0+255),w,b
  3306  0010F8  A4D8               	btfss	status,2,c
  3307  0010FA  EF81  F008         	goto	u7711
  3308  0010FE  EF83  F008         	goto	u7710
  3309  001102                     u7711:
  3310  001102  EF8E  F008         	goto	l5491
  3311  001106                     u7710:
  3312  001106                     
  3313                           ; BSR set to: 0
  3314  001106  BFAA               	btfsc	(efgtoa@ne+1)& (0+255),7,b
  3315  001108  EF8A  F008         	goto	u7720
  3316  00110C  EF88  F008         	goto	u7721
  3317  001110                     u7721:
  3318  001110  EF8E  F008         	goto	l5491
  3319  001114                     u7720:
  3320  001114                     
  3321                           ; BSR set to: 0
  3322                           ;E:\MPLAB\pic\sources\c99\common\doprnt.c: 472:             ++t;
  3323  001114  4BA5               	infsnz	efgtoa@t& (0+255),f,b
  3324  001116  2BA6               	incf	(efgtoa@t+1)& (0+255),f,b
  3325                           
  3326                           ;E:\MPLAB\pic\sources\c99\common\doprnt.c: 473:         } else {
  3327  001118  EFD9  F008         	goto	l5519
  3328  00111C                     l5491:
  3329                           
  3330                           ;E:\MPLAB\pic\sources\c99\common\doprnt.c: 474:             if (!pp && (ne < 0)) {
  3331  00111C  0100               	movlb	0	; () banked
  3332  00111E  51A7               	movf	efgtoa@pp& (0+255),w,b
  3333  001120  11A8               	iorwf	(efgtoa@pp+1)& (0+255),w,b
  3334  001122  A4D8               	btfss	status,2,c
  3335  001124  EF96  F008         	goto	u7731
  3336  001128  EF98  F008         	goto	u7730
  3337  00112C                     u7731:
  3338  00112C  EFC2  F008         	goto	l5511
  3339  001130                     u7730:
  3340  001130                     
  3341                           ; BSR set to: 0
  3342  001130  BFAA               	btfsc	(efgtoa@ne+1)& (0+255),7,b
  3343  001132  EF9F  F008         	goto	u7740
  3344  001136  EF9D  F008         	goto	u7741
  3345  00113A                     u7741:
  3346  00113A  EFC2  F008         	goto	l5511
  3347  00113E                     u7740:
  3348  00113E                     
  3349                           ; BSR set to: 0
  3350                           ;E:\MPLAB\pic\sources\c99\common\doprnt.c: 475:                 dbuf[n++] = '.';
  3351  00113E  0E00               	movlw	low _dbuf
  3352  001140  25CB               	addwf	efgtoa@n& (0+255),w,b
  3353  001142  6ED9               	movwf	fsr2l,c
  3354  001144  0E01               	movlw	high _dbuf
  3355  001146  21CC               	addwfc	(efgtoa@n+1)& (0+255),w,b
  3356  001148  6EDA               	movwf	fsr2h,c
  3357  00114A  0E2E               	movlw	46
  3358  00114C  6EDF               	movwf	indf2,c
  3359  00114E                     
  3360                           ; BSR set to: 0
  3361  00114E  4BCB               	infsnz	efgtoa@n& (0+255),f,b
  3362  001150  2BCC               	incf	(efgtoa@n+1)& (0+255),f,b
  3363  001152                     
  3364                           ; BSR set to: 0
  3365                           ;E:\MPLAB\pic\sources\c99\common\doprnt.c: 476:                 --w;
  3366  001152  07B7               	decf	efgtoa@w& (0+255),f,b
  3367  001154  A0D8               	btfss	status,0,c
  3368  001156  07B8               	decf	(efgtoa@w+1)& (0+255),f,b
  3369  001158                     
  3370                           ; BSR set to: 0
  3371                           ;E:\MPLAB\pic\sources\c99\common\doprnt.c: 477:                 pp = 1;
  3372  001158  0E00               	movlw	0
  3373  00115A  6FA8               	movwf	(efgtoa@pp+1)& (0+255),b
  3374  00115C  0E01               	movlw	1
  3375  00115E  6FA7               	movwf	efgtoa@pp& (0+255),b
  3376  001160  EFC2  F008         	goto	l5511
  3377  001164                     l5503:
  3378                           
  3379                           ; BSR set to: 0
  3380                           ;E:\MPLAB\pic\sources\c99\common\doprnt.c: 480:                 dbuf[n++] = '0';
  3381  001164  0E00               	movlw	low _dbuf
  3382  001166  25CB               	addwf	efgtoa@n& (0+255),w,b
  3383  001168  6ED9               	movwf	fsr2l,c
  3384  00116A  0E01               	movlw	high _dbuf
  3385  00116C  21CC               	addwfc	(efgtoa@n+1)& (0+255),w,b
  3386  00116E  6EDA               	movwf	fsr2h,c
  3387  001170  0E30               	movlw	48
  3388  001172  6EDF               	movwf	indf2,c
  3389  001174                     
  3390                           ; BSR set to: 0
  3391  001174  4BCB               	infsnz	efgtoa@n& (0+255),f,b
  3392  001176  2BCC               	incf	(efgtoa@n+1)& (0+255),f,b
  3393  001178                     
  3394                           ; BSR set to: 0
  3395                           ;E:\MPLAB\pic\sources\c99\common\doprnt.c: 481:                 --w;
  3396  001178  07B7               	decf	efgtoa@w& (0+255),f,b
  3397  00117A  A0D8               	btfss	status,0,c
  3398  00117C  07B8               	decf	(efgtoa@w+1)& (0+255),f,b
  3399  00117E                     
  3400                           ; BSR set to: 0
  3401                           ;E:\MPLAB\pic\sources\c99\common\doprnt.c: 482:                 --t;
  3402  00117E  07A5               	decf	efgtoa@t& (0+255),f,b
  3403  001180  A0D8               	btfss	status,0,c
  3404  001182  07A6               	decf	(efgtoa@t+1)& (0+255),f,b
  3405  001184                     l5511:
  3406                           
  3407                           ; BSR set to: 0
  3408                           ;E:\MPLAB\pic\sources\c99\common\doprnt.c: 479:             while (t) {
  3409  001184  51A5               	movf	efgtoa@t& (0+255),w,b
  3410  001186  11A6               	iorwf	(efgtoa@t+1)& (0+255),w,b
  3411  001188  A4D8               	btfss	status,2,c
  3412  00118A  EFC9  F008         	goto	u7751
  3413  00118E  EFCB  F008         	goto	u7750
  3414  001192                     u7751:
  3415  001192  EFB2  F008         	goto	l5503
  3416  001196                     u7750:
  3417  001196                     
  3418                           ; BSR set to: 0
  3419                           ;E:\MPLAB\pic\sources\c99\common\doprnt.c: 484:             dbuf[n++] = (char)((int)'0' 
      +                          + d);
  3420  001196  0E00               	movlw	low _dbuf
  3421  001198  25CB               	addwf	efgtoa@n& (0+255),w,b
  3422  00119A  6ED9               	movwf	fsr2l,c
  3423  00119C  0E01               	movlw	high _dbuf
  3424  00119E  21CC               	addwfc	(efgtoa@n+1)& (0+255),w,b
  3425  0011A0  6EDA               	movwf	fsr2h,c
  3426  0011A2  51B1               	movf	efgtoa@d& (0+255),w,b
  3427  0011A4  0F30               	addlw	48
  3428  0011A6  6EDF               	movwf	indf2,c
  3429  0011A8                     
  3430                           ; BSR set to: 0
  3431  0011A8  4BCB               	infsnz	efgtoa@n& (0+255),f,b
  3432  0011AA  2BCC               	incf	(efgtoa@n+1)& (0+255),f,b
  3433  0011AC                     
  3434                           ; BSR set to: 0
  3435                           ;E:\MPLAB\pic\sources\c99\common\doprnt.c: 485:             --w;
  3436  0011AC  07B7               	decf	efgtoa@w& (0+255),f,b
  3437  0011AE  A0D8               	btfss	status,0,c
  3438  0011B0  07B8               	decf	(efgtoa@w+1)& (0+255),f,b
  3439  0011B2                     l5519:
  3440                           
  3441                           ; BSR set to: 0
  3442                           ;E:\MPLAB\pic\sources\c99\common\doprnt.c: 487:         h -= l*u;
  3443  0011B2  C0BB  F060         	movff	efgtoa@h,___flsub@b
  3444  0011B6  C0BC  F061         	movff	efgtoa@h+1,___flsub@b+1
  3445  0011BA  C0BD  F062         	movff	efgtoa@h+2,___flsub@b+2
  3446  0011BE  C0BE  F063         	movff	efgtoa@h+3,___flsub@b+3
  3447  0011C2  C0CD  F029         	movff	efgtoa@u,___flmul@a
  3448  0011C6  C0CE  F02A         	movff	efgtoa@u+1,___flmul@a+1
  3449  0011CA  C0CF  F02B         	movff	efgtoa@u+2,___flmul@a+2
  3450  0011CE  C0D0  F02C         	movff	efgtoa@u+3,___flmul@a+3
  3451  0011D2  C0BF  F025         	movff	efgtoa@l,___flmul@b
  3452  0011D6  C0C0  F026         	movff	efgtoa@l+1,___flmul@b+1
  3453  0011DA  C0C1  F027         	movff	efgtoa@l+2,___flmul@b+2
  3454  0011DE  C0C2  F028         	movff	efgtoa@l+3,___flmul@b+3
  3455  0011E2  EC38  F011         	call	___flmul	;wreg free
  3456  0011E6  C025  F064         	movff	?___flmul,___flsub@a
  3457  0011EA  C026  F065         	movff	?___flmul+1,___flsub@a+1
  3458  0011EE  C027  F066         	movff	?___flmul+2,___flsub@a+2
  3459  0011F2  C028  F067         	movff	?___flmul+3,___flsub@a+3
  3460  0011F6  EC72  F01E         	call	___flsub	;wreg free
  3461  0011FA  C060  F0BB         	movff	?___flsub,efgtoa@h
  3462  0011FE  C061  F0BC         	movff	?___flsub+1,efgtoa@h+1
  3463  001202  C062  F0BD         	movff	?___flsub+2,efgtoa@h+2
  3464  001206  C063  F0BE         	movff	?___flsub+3,efgtoa@h+3
  3465  00120A                     
  3466                           ;E:\MPLAB\pic\sources\c99\common\doprnt.c: 488:         u = u/10.0;
  3467  00120A  C0CD  F060         	movff	efgtoa@u,___fldiv@b
  3468  00120E  C0CE  F061         	movff	efgtoa@u+1,___fldiv@b+1
  3469  001212  C0CF  F062         	movff	efgtoa@u+2,___fldiv@b+2
  3470  001216  C0D0  F063         	movff	efgtoa@u+3,___fldiv@b+3
  3471  00121A  0E00               	movlw	0
  3472  00121C  0100               	movlb	0	; () banked
  3473  00121E  6F64               	movwf	___fldiv@a& (0+255),b
  3474  001220  0E00               	movlw	0
  3475  001222  6F65               	movwf	(___fldiv@a+1)& (0+255),b
  3476  001224  0E20               	movlw	32
  3477  001226  6F66               	movwf	(___fldiv@a+2)& (0+255),b
  3478  001228  0E41               	movlw	65
  3479  00122A  6F67               	movwf	(___fldiv@a+3)& (0+255),b
  3480  00122C  EC4D  F013         	call	___fldiv	;wreg free
  3481  001230  C060  F0CD         	movff	?___fldiv,efgtoa@u
  3482  001234  C061  F0CE         	movff	?___fldiv+1,efgtoa@u+1
  3483  001238  C062  F0CF         	movff	?___fldiv+2,efgtoa@u+2
  3484  00123C  C063  F0D0         	movff	?___fldiv+3,efgtoa@u+3
  3485  001240                     
  3486                           ;E:\MPLAB\pic\sources\c99\common\doprnt.c: 489:         --ne;
  3487  001240  0100               	movlb	0	; () banked
  3488  001242  07A9               	decf	efgtoa@ne& (0+255),f,b
  3489  001244  A0D8               	btfss	status,0,c
  3490  001246  07AA               	decf	(efgtoa@ne+1)& (0+255),f,b
  3491  001248                     
  3492                           ; BSR set to: 0
  3493                           ;E:\MPLAB\pic\sources\c99\common\doprnt.c: 490:         ++i;
  3494  001248  4BC3               	infsnz	efgtoa@i& (0+255),f,b
  3495  00124A  2BC4               	incf	(efgtoa@i+1)& (0+255),f,b
  3496  00124C                     l5527:
  3497                           
  3498                           ; BSR set to: 0
  3499                           ;E:\MPLAB\pic\sources\c99\common\doprnt.c: 468:     while ((i < m) && (n < (80 - 5))) {
  3500  00124C  51AB               	movf	efgtoa@m& (0+255),w,b
  3501  00124E  5DC3               	subwf	efgtoa@i& (0+255),w,b
  3502  001250  51C4               	movf	(efgtoa@i+1)& (0+255),w,b
  3503  001252  0A80               	xorlw	128
  3504  001254  6F94               	movwf	??_efgtoa& (0+255),b
  3505  001256  51AC               	movf	(efgtoa@m+1)& (0+255),w,b
  3506  001258  0A80               	xorlw	128
  3507  00125A  5994               	subwfb	??_efgtoa& (0+255),w,b
  3508  00125C  B0D8               	btfsc	status,0,c
  3509  00125E  EF33  F009         	goto	u7761
  3510  001262  EF35  F009         	goto	u7760
  3511  001266                     u7761:
  3512  001266  EF43  F009         	goto	l5531
  3513  00126A                     u7760:
  3514  00126A                     
  3515                           ; BSR set to: 0
  3516  00126A  BFCC               	btfsc	(efgtoa@n+1)& (0+255),7,b
  3517  00126C  EF41  F009         	goto	u7771
  3518  001270  51CC               	movf	(efgtoa@n+1)& (0+255),w,b
  3519  001272  E109               	bnz	u7770
  3520  001274  0E4B               	movlw	75
  3521  001276  5DCB               	subwf	efgtoa@n& (0+255),w,b
  3522  001278  A0D8               	btfss	status,0,c
  3523  00127A  EF41  F009         	goto	u7771
  3524  00127E  EF43  F009         	goto	u7770
  3525  001282                     u7771:
  3526  001282  EF37  F008         	goto	l5479
  3527  001286                     u7770:
  3528  001286                     l5531:
  3529                           
  3530                           ; BSR set to: 0
  3531                           ;E:\MPLAB\pic\sources\c99\common\doprnt.c: 492:     if (!pp && (flags & (1 << 4))) {
  3532  001286  51A7               	movf	efgtoa@pp& (0+255),w,b
  3533  001288  11A8               	iorwf	(efgtoa@pp+1)& (0+255),w,b
  3534  00128A  A4D8               	btfss	status,2,c
  3535  00128C  EF4A  F009         	goto	u7781
  3536  001290  EF4C  F009         	goto	u7780
  3537  001294                     u7781:
  3538  001294  EF5D  F009         	goto	l5539
  3539  001298                     u7780:
  3540  001298                     
  3541                           ; BSR set to: 0
  3542  001298  A84C               	btfss	_flags^0,4,c
  3543  00129A  EF51  F009         	goto	u7791
  3544  00129E  EF53  F009         	goto	u7790
  3545  0012A2                     u7791:
  3546  0012A2  EF5D  F009         	goto	l5539
  3547  0012A6                     u7790:
  3548  0012A6                     
  3549                           ; BSR set to: 0
  3550                           ;E:\MPLAB\pic\sources\c99\common\doprnt.c: 493:         dbuf[n++] = '.';
  3551  0012A6  0E00               	movlw	low _dbuf
  3552  0012A8  25CB               	addwf	efgtoa@n& (0+255),w,b
  3553  0012AA  6ED9               	movwf	fsr2l,c
  3554  0012AC  0E01               	movlw	high _dbuf
  3555  0012AE  21CC               	addwfc	(efgtoa@n+1)& (0+255),w,b
  3556  0012B0  6EDA               	movwf	fsr2h,c
  3557  0012B2  0E2E               	movlw	46
  3558  0012B4  6EDF               	movwf	indf2,c
  3559  0012B6                     
  3560                           ; BSR set to: 0
  3561  0012B6  4BCB               	infsnz	efgtoa@n& (0+255),f,b
  3562  0012B8  2BCC               	incf	(efgtoa@n+1)& (0+255),f,b
  3563  0012BA                     l5539:
  3564                           
  3565                           ; BSR set to: 0
  3566                           ;E:\MPLAB\pic\sources\c99\common\doprnt.c: 495:     dbuf[n] = '\0';
  3567  0012BA  0E00               	movlw	low _dbuf
  3568  0012BC  25CB               	addwf	efgtoa@n& (0+255),w,b
  3569  0012BE  6ED9               	movwf	fsr2l,c
  3570  0012C0  0E01               	movlw	high _dbuf
  3571  0012C2  21CC               	addwfc	(efgtoa@n+1)& (0+255),w,b
  3572  0012C4  6EDA               	movwf	fsr2h,c
  3573  0012C6  0E00               	movlw	0
  3574  0012C8  6EDF               	movwf	indf2,c
  3575  0012CA                     
  3576                           ; BSR set to: 0
  3577                           ;E:\MPLAB\pic\sources\c99\common\doprnt.c: 498:     if (nmode == 'e') {
  3578  0012CA  0E65               	movlw	101
  3579  0012CC  19B9               	xorwf	efgtoa@nmode& (0+255),w,b
  3580  0012CE  A4D8               	btfss	status,2,c
  3581  0012D0  EF6C  F009         	goto	u7801
  3582  0012D4  EF6E  F009         	goto	u7800
  3583  0012D8                     u7801:
  3584  0012D8  EFC4  F004         	goto	l5341
  3585  0012DC                     u7800:
  3586  0012DC                     
  3587                           ; BSR set to: 0
  3588                           ;E:\MPLAB\pic\sources\c99\common\doprnt.c: 499:         i = sizeof(dbuf) - 1;
  3589  0012DC  0E00               	movlw	0
  3590  0012DE  6FC4               	movwf	(efgtoa@i+1)& (0+255),b
  3591  0012E0  0E4F               	movlw	79
  3592  0012E2  6FC3               	movwf	efgtoa@i& (0+255),b
  3593  0012E4                     
  3594                           ; BSR set to: 0
  3595                           ;E:\MPLAB\pic\sources\c99\common\doprnt.c: 500:         dbuf[i] = '\0';
  3596  0012E4  0E00               	movlw	low _dbuf
  3597  0012E6  25C3               	addwf	efgtoa@i& (0+255),w,b
  3598  0012E8  6ED9               	movwf	fsr2l,c
  3599  0012EA  0E01               	movlw	high _dbuf
  3600  0012EC  21C4               	addwfc	(efgtoa@i+1)& (0+255),w,b
  3601  0012EE  6EDA               	movwf	fsr2h,c
  3602  0012F0  0E00               	movlw	0
  3603  0012F2  6EDF               	movwf	indf2,c
  3604  0012F4                     
  3605                           ; BSR set to: 0
  3606                           ;E:\MPLAB\pic\sources\c99\common\doprnt.c: 501:         sign = 0;
  3607  0012F4  0E00               	movlw	0
  3608  0012F6  6FB4               	movwf	(efgtoa@sign+1)& (0+255),b
  3609  0012F8  0E00               	movlw	0
  3610  0012FA  6FB3               	movwf	efgtoa@sign& (0+255),b
  3611  0012FC                     
  3612                           ; BSR set to: 0
  3613                           ;E:\MPLAB\pic\sources\c99\common\doprnt.c: 502:         if (e < 0) {
  3614  0012FC  BFCA               	btfsc	(efgtoa@e+1)& (0+255),7,b
  3615  0012FE  EF85  F009         	goto	u7810
  3616  001302  EF83  F009         	goto	u7811
  3617  001306                     u7811:
  3618  001306  EF8D  F009         	goto	l5555
  3619  00130A                     u7810:
  3620  00130A                     
  3621                           ; BSR set to: 0
  3622                           ;E:\MPLAB\pic\sources\c99\common\doprnt.c: 503:             sign = 1;
  3623  00130A  0E00               	movlw	0
  3624  00130C  6FB4               	movwf	(efgtoa@sign+1)& (0+255),b
  3625  00130E  0E01               	movlw	1
  3626  001310  6FB3               	movwf	efgtoa@sign& (0+255),b
  3627  001312                     
  3628                           ; BSR set to: 0
  3629                           ;E:\MPLAB\pic\sources\c99\common\doprnt.c: 504:             e = -e;
  3630  001312  6DC9               	negf	efgtoa@e& (0+255),b
  3631  001314  1FCA               	comf	(efgtoa@e+1)& (0+255),f,b
  3632  001316  B0D8               	btfsc	status,0,c
  3633  001318  2BCA               	incf	(efgtoa@e+1)& (0+255),f,b
  3634  00131A                     l5555:
  3635                           
  3636                           ; BSR set to: 0
  3637                           ;E:\MPLAB\pic\sources\c99\common\doprnt.c: 506:         p = 2;
  3638  00131A  0E00               	movlw	0
  3639  00131C  6FB6               	movwf	(efgtoa@p+1)& (0+255),b
  3640  00131E  0E02               	movlw	2
  3641  001320  6FB5               	movwf	efgtoa@p& (0+255),b
  3642                           
  3643                           ;E:\MPLAB\pic\sources\c99\common\doprnt.c: 507:         while (e || (0 < p)) {
  3644  001322  EFBE  F009         	goto	l5567
  3645  001326                     l5557:
  3646                           
  3647                           ; BSR set to: 0
  3648                           ;E:\MPLAB\pic\sources\c99\common\doprnt.c: 508:             --i;
  3649  001326  07C3               	decf	efgtoa@i& (0+255),f,b
  3650  001328  A0D8               	btfss	status,0,c
  3651  00132A  07C4               	decf	(efgtoa@i+1)& (0+255),f,b
  3652  00132C                     
  3653                           ; BSR set to: 0
  3654                           ;E:\MPLAB\pic\sources\c99\common\doprnt.c: 509:             dbuf[i] = '0' + (e % 10);
  3655  00132C  0E00               	movlw	low _dbuf
  3656  00132E  25C3               	addwf	efgtoa@i& (0+255),w,b
  3657  001330  6ED9               	movwf	fsr2l,c
  3658  001332  0E01               	movlw	high _dbuf
  3659  001334  21C4               	addwfc	(efgtoa@i+1)& (0+255),w,b
  3660  001336  6EDA               	movwf	fsr2h,c
  3661  001338  C0C9  F011         	movff	efgtoa@e,___awmod@dividend
  3662  00133C  C0CA  F012         	movff	efgtoa@e+1,___awmod@dividend+1
  3663  001340  0E00               	movlw	0
  3664  001342  6E14               	movwf	(___awmod@divisor+1)^0,c
  3665  001344  0E0A               	movlw	10
  3666  001346  6E13               	movwf	___awmod@divisor^0,c
  3667  001348  EC90  F01B         	call	___awmod	;wreg free
  3668  00134C  5011               	movf	?___awmod^0,w,c
  3669  00134E  0F30               	addlw	48
  3670  001350  6EDF               	movwf	indf2,c
  3671  001352                     
  3672                           ;E:\MPLAB\pic\sources\c99\common\doprnt.c: 510:             e = e / 10;
  3673  001352  C0C9  F011         	movff	efgtoa@e,___awdiv@dividend
  3674  001356  C0CA  F012         	movff	efgtoa@e+1,___awdiv@dividend+1
  3675  00135A  0E00               	movlw	0
  3676  00135C  6E14               	movwf	(___awdiv@divisor+1)^0,c
  3677  00135E  0E0A               	movlw	10
  3678  001360  6E13               	movwf	___awdiv@divisor^0,c
  3679  001362  ECCD  F01A         	call	___awdiv	;wreg free
  3680  001366  C011  F0C9         	movff	?___awdiv,efgtoa@e
  3681  00136A  C012  F0CA         	movff	?___awdiv+1,efgtoa@e+1
  3682  00136E                     
  3683                           ;E:\MPLAB\pic\sources\c99\common\doprnt.c: 511:             --p;
  3684  00136E  0100               	movlb	0	; () banked
  3685  001370  07B5               	decf	efgtoa@p& (0+255),f,b
  3686  001372  A0D8               	btfss	status,0,c
  3687  001374  07B6               	decf	(efgtoa@p+1)& (0+255),f,b
  3688  001376                     
  3689                           ; BSR set to: 0
  3690                           ;E:\MPLAB\pic\sources\c99\common\doprnt.c: 512:             --w;
  3691  001376  07B7               	decf	efgtoa@w& (0+255),f,b
  3692  001378  A0D8               	btfss	status,0,c
  3693  00137A  07B8               	decf	(efgtoa@w+1)& (0+255),f,b
  3694  00137C                     l5567:
  3695                           
  3696                           ; BSR set to: 0
  3697                           ;E:\MPLAB\pic\sources\c99\common\doprnt.c: 507:         while (e || (0 < p)) {
  3698  00137C  51C9               	movf	efgtoa@e& (0+255),w,b
  3699  00137E  11CA               	iorwf	(efgtoa@e+1)& (0+255),w,b
  3700  001380  A4D8               	btfss	status,2,c
  3701  001382  EFC5  F009         	goto	u7821
  3702  001386  EFC7  F009         	goto	u7820
  3703  00138A                     u7821:
  3704  00138A  EF93  F009         	goto	l5557
  3705  00138E                     u7820:
  3706  00138E                     
  3707                           ; BSR set to: 0
  3708  00138E  BFB6               	btfsc	(efgtoa@p+1)& (0+255),7,b
  3709  001390  EFD4  F009         	goto	u7830
  3710  001394  51B6               	movf	(efgtoa@p+1)& (0+255),w,b
  3711  001396  E106               	bnz	u7831
  3712  001398  05B5               	decf	efgtoa@p& (0+255),w,b
  3713  00139A  B0D8               	btfsc	status,0,c
  3714  00139C  EFD2  F009         	goto	u7831
  3715  0013A0  EFD4  F009         	goto	u7830
  3716  0013A4                     u7831:
  3717  0013A4  EF93  F009         	goto	l5557
  3718  0013A8                     u7830:
  3719  0013A8                     
  3720                           ; BSR set to: 0
  3721                           ;E:\MPLAB\pic\sources\c99\common\doprnt.c: 514:         --i;
  3722  0013A8  07C3               	decf	efgtoa@i& (0+255),f,b
  3723  0013AA  A0D8               	btfss	status,0,c
  3724  0013AC  07C4               	decf	(efgtoa@i+1)& (0+255),f,b
  3725  0013AE                     
  3726                           ; BSR set to: 0
  3727                           ;E:\MPLAB\pic\sources\c99\common\doprnt.c: 515:         dbuf[i] = sign ? '-' : '+';
  3728  0013AE  51B3               	movf	efgtoa@sign& (0+255),w,b
  3729  0013B0  11B4               	iorwf	(efgtoa@sign+1)& (0+255),w,b
  3730  0013B2  A4D8               	btfss	status,2,c
  3731  0013B4  EFDE  F009         	goto	u7841
  3732  0013B8  EFE0  F009         	goto	u7840
  3733  0013BC                     u7841:
  3734  0013BC  EFE6  F009         	goto	l5577
  3735  0013C0                     u7840:
  3736  0013C0                     
  3737                           ; BSR set to: 0
  3738  0013C0  0E00               	movlw	0
  3739  0013C2  6FA0               	movwf	(_efgtoa$1334+1)& (0+255),b
  3740  0013C4  0E2B               	movlw	43
  3741  0013C6  6F9F               	movwf	_efgtoa$1334& (0+255),b
  3742  0013C8  EFEA  F009         	goto	l5579
  3743  0013CC                     l5577:
  3744                           
  3745                           ; BSR set to: 0
  3746  0013CC  0E00               	movlw	0
  3747  0013CE  6FA0               	movwf	(_efgtoa$1334+1)& (0+255),b
  3748  0013D0  0E2D               	movlw	45
  3749  0013D2  6F9F               	movwf	_efgtoa$1334& (0+255),b
  3750  0013D4                     l5579:
  3751                           
  3752                           ; BSR set to: 0
  3753  0013D4  0E00               	movlw	low _dbuf
  3754  0013D6  25C3               	addwf	efgtoa@i& (0+255),w,b
  3755  0013D8  6ED9               	movwf	fsr2l,c
  3756  0013DA  0E01               	movlw	high _dbuf
  3757  0013DC  21C4               	addwfc	(efgtoa@i+1)& (0+255),w,b
  3758  0013DE  6EDA               	movwf	fsr2h,c
  3759  0013E0  C09F  FFDF         	movff	_efgtoa$1334,indf2
  3760  0013E4                     
  3761                           ; BSR set to: 0
  3762                           ;E:\MPLAB\pic\sources\c99\common\doprnt.c: 516:         --w;
  3763  0013E4  07B7               	decf	efgtoa@w& (0+255),f,b
  3764  0013E6  A0D8               	btfss	status,0,c
  3765  0013E8  07B8               	decf	(efgtoa@w+1)& (0+255),f,b
  3766  0013EA                     
  3767                           ; BSR set to: 0
  3768                           ;E:\MPLAB\pic\sources\c99\common\doprnt.c: 518:         dbuf[i] = (0 ? isupper((int)c) :
      +                           ((unsigned)((int)c)-'A') < 26) ? 'E' : 'e';
  3769  0013EA  07C3               	decf	efgtoa@i& (0+255),f,b
  3770  0013EC  A0D8               	btfss	status,0,c
  3771  0013EE  07C4               	decf	(efgtoa@i+1)& (0+255),f,b
  3772  0013F0                     
  3773                           ; BSR set to: 0
  3774  0013F0  0EBF               	movlw	191
  3775  0013F2  6F94               	movwf	??_efgtoa& (0+255),b
  3776  0013F4  0EFF               	movlw	255
  3777  0013F6  6F95               	movwf	(??_efgtoa+1)& (0+255),b
  3778  0013F8  5193               	movf	efgtoa@c& (0+255),w,b
  3779  0013FA  6F96               	movwf	(??_efgtoa+2)& (0+255),b
  3780  0013FC  6B97               	clrf	(??_efgtoa+3)& (0+255),b
  3781  0013FE  5194               	movf	??_efgtoa& (0+255),w,b
  3782  001400  2796               	addwf	(??_efgtoa+2)& (0+255),f,b
  3783  001402  5195               	movf	(??_efgtoa+1)& (0+255),w,b
  3784  001404  2397               	addwfc	(??_efgtoa+3)& (0+255),f,b
  3785  001406  5197               	movf	(??_efgtoa+3)& (0+255),w,b
  3786  001408  E10A               	bnz	u7850
  3787  00140A  0E1A               	movlw	26
  3788  00140C  5D96               	subwf	(??_efgtoa+2)& (0+255),w,b
  3789  00140E  A0D8               	btfss	status,0,c
  3790  001410  EF0C  F00A         	goto	u7851
  3791  001414  EF0F  F00A         	goto	u7850
  3792  001418                     u7851:
  3793  001418  0E01               	movlw	1
  3794  00141A  EF10  F00A         	goto	u7860
  3795  00141E                     u7850:
  3796  00141E  0E00               	movlw	0
  3797  001420                     u7860:
  3798  001420  6FA3               	movwf	_efgtoa$1336& (0+255),b
  3799  001422  6BA4               	clrf	(_efgtoa$1336+1)& (0+255),b
  3800  001424                     
  3801                           ; BSR set to: 0
  3802  001424  51A3               	movf	_efgtoa$1336& (0+255),w,b
  3803  001426  11A4               	iorwf	(_efgtoa$1336+1)& (0+255),w,b
  3804  001428  A4D8               	btfss	status,2,c
  3805  00142A  EF19  F00A         	goto	u7871
  3806  00142E  EF1B  F00A         	goto	u7870
  3807  001432                     u7871:
  3808  001432  EF21  F00A         	goto	l5593
  3809  001436                     u7870:
  3810  001436                     
  3811                           ; BSR set to: 0
  3812  001436  0E00               	movlw	0
  3813  001438  6FA2               	movwf	(_efgtoa$1335+1)& (0+255),b
  3814  00143A  0E65               	movlw	101
  3815  00143C  6FA1               	movwf	_efgtoa$1335& (0+255),b
  3816  00143E  EF25  F00A         	goto	l5595
  3817  001442                     l5593:
  3818                           
  3819                           ; BSR set to: 0
  3820  001442  0E00               	movlw	0
  3821  001444  6FA2               	movwf	(_efgtoa$1335+1)& (0+255),b
  3822  001446  0E45               	movlw	69
  3823  001448  6FA1               	movwf	_efgtoa$1335& (0+255),b
  3824  00144A                     l5595:
  3825                           
  3826                           ; BSR set to: 0
  3827  00144A  0E00               	movlw	low _dbuf
  3828  00144C  25C3               	addwf	efgtoa@i& (0+255),w,b
  3829  00144E  6ED9               	movwf	fsr2l,c
  3830  001450  0E01               	movlw	high _dbuf
  3831  001452  21C4               	addwfc	(efgtoa@i+1)& (0+255),w,b
  3832  001454  6EDA               	movwf	fsr2h,c
  3833  001456  C0A1  FFDF         	movff	_efgtoa$1335,indf2
  3834  00145A                     
  3835                           ; BSR set to: 0
  3836                           ;E:\MPLAB\pic\sources\c99\common\doprnt.c: 519:         --w;
  3837  00145A  07B7               	decf	efgtoa@w& (0+255),f,b
  3838  00145C  A0D8               	btfss	status,0,c
  3839  00145E  07B8               	decf	(efgtoa@w+1)& (0+255),f,b
  3840  001460                     
  3841                           ; BSR set to: 0
  3842                           ;E:\MPLAB\pic\sources\c99\common\doprnt.c: 520:         strcpy(&dbuf[n], &dbuf[i]);
  3843  001460  0E00               	movlw	low _dbuf
  3844  001462  25CB               	addwf	efgtoa@n& (0+255),w,b
  3845  001464  6E11               	movwf	strcpy@dest^0,c
  3846  001466  0E01               	movlw	high _dbuf
  3847  001468  21CC               	addwfc	(efgtoa@n+1)& (0+255),w,b
  3848  00146A  6E12               	movwf	(strcpy@dest+1)^0,c
  3849  00146C  0E00               	movlw	low _dbuf
  3850  00146E  25C3               	addwf	efgtoa@i& (0+255),w,b
  3851  001470  6E13               	movwf	strcpy@src^0,c
  3852  001472  0E01               	movlw	high _dbuf
  3853  001474  21C4               	addwfc	(efgtoa@i+1)& (0+255),w,b
  3854  001476  6E14               	movwf	(strcpy@src+1)^0,c
  3855  001478  EC7C  F01D         	call	_strcpy	;wreg free
  3856  00147C  EFC4  F004         	goto	l5341
  3857  001480                     l887:
  3858  001480  0012               	return		;funcret
  3859  001482                     __end_of_efgtoa:
  3860                           	callstack 0
  3861                           
  3862 ;; *************** function _tolower *****************
  3863 ;; Defined at:
  3864 ;;		line 4 in file "E:\MPLAB\pic\sources\c99\common\tolower.c"
  3865 ;; Parameters:    Size  Location     Type
  3866 ;;  c               2   22[COMRAM] int 
  3867 ;; Auto vars:     Size  Location     Type
  3868 ;;		None
  3869 ;; Return value:  Size  Location     Type
  3870 ;;                  2   22[COMRAM] int 
  3871 ;; Registers used:
  3872 ;;		wreg, status,2, status,0
  3873 ;; Tracked objects:
  3874 ;;		On entry : 0/0
  3875 ;;		On exit  : 0/0
  3876 ;;		Unchanged: 0/0
  3877 ;; Data sizes:     COMRAM   BANK0   BANK1   BANK2   BANK3   BANK4   BANK5   BANK6   BANK7
  3878 ;;      Params:         2       0       0       0       0       0       0       0       0
  3879 ;;      Locals:         2       0       0       0       0       0       0       0       0
  3880 ;;      Temps:          4       0       0       0       0       0       0       0       0
  3881 ;;      Totals:         8       0       0       0       0       0       0       0       0
  3882 ;;Total ram usage:        8 bytes
  3883 ;; Hardware stack levels used: 1
  3884 ;; Hardware stack levels required when called: 3
  3885 ;; This function calls:
  3886 ;;		_isupper
  3887 ;; This function is called by:
  3888 ;;		_efgtoa
  3889 ;;		_vfpfcnvrt
  3890 ;; This function uses a non-reentrant model
  3891 ;;
  3892                           
  3893                           	psect	text6
  3894  003A98                     __ptext6:
  3895                           	callstack 0
  3896  003A98                     _tolower:
  3897                           	callstack 24
  3898  003A98  0EBF               	movlw	191
  3899  003A9A  6E19               	movwf	??_tolower^0,c
  3900  003A9C  0EFF               	movlw	255
  3901  003A9E  6E1A               	movwf	(??_tolower+1)^0,c
  3902  003AA0  C017  F01B         	movff	tolower@c,??_tolower+2
  3903  003AA4  C018  F01C         	movff	tolower@c+1,??_tolower+3
  3904  003AA8  5019               	movf	??_tolower^0,w,c
  3905  003AAA  261B               	addwf	(??_tolower+2)^0,f,c
  3906  003AAC  501A               	movf	(??_tolower+1)^0,w,c
  3907  003AAE  221C               	addwfc	(??_tolower+3)^0,f,c
  3908  003AB0  501C               	movf	(??_tolower+3)^0,w,c
  3909  003AB2  E10A               	bnz	u7170
  3910  003AB4  0E1A               	movlw	26
  3911  003AB6  5C1B               	subwf	(??_tolower+2)^0,w,c
  3912  003AB8  A0D8               	btfss	status,0,c
  3913  003ABA  EF61  F01D         	goto	u7171
  3914  003ABE  EF64  F01D         	goto	u7170
  3915  003AC2                     u7171:
  3916  003AC2  0E01               	movlw	1
  3917  003AC4  EF65  F01D         	goto	u7180
  3918  003AC8                     u7170:
  3919  003AC8  0E00               	movlw	0
  3920  003ACA                     u7180:
  3921  003ACA  6E1D               	movwf	_tolower$1483^0,c
  3922  003ACC  6A1E               	clrf	(_tolower$1483+1)^0,c
  3923  003ACE  501D               	movf	_tolower$1483^0,w,c
  3924  003AD0  101E               	iorwf	(_tolower$1483+1)^0,w,c
  3925  003AD2  B4D8               	btfsc	status,2,c
  3926  003AD4  EF6E  F01D         	goto	u7191
  3927  003AD8  EF70  F01D         	goto	u7190
  3928  003ADC                     u7191:
  3929  003ADC  EF77  F01D         	goto	l1117
  3930  003AE0                     u7190:
  3931  003AE0  0E20               	movlw	32
  3932  003AE2  1017               	iorwf	tolower@c^0,w,c
  3933  003AE4  6E17               	movwf	?_tolower^0,c
  3934  003AE6  5018               	movf	(tolower@c+1)^0,w,c
  3935  003AE8  6E18               	movwf	(?_tolower+1)^0,c
  3936  003AEA  EF7B  F01D         	goto	l1122
  3937  003AEE                     l1117:
  3938  003AEE  C017  F017         	movff	tolower@c,?_tolower
  3939  003AF2  C018  F018         	movff	tolower@c+1,?_tolower+1
  3940  003AF6                     l1122:
  3941  003AF6  0012               	return		;funcret
  3942  003AF8                     __end_of_tolower:
  3943                           	callstack 0
  3944                           
  3945 ;; *************** function _isupper *****************
  3946 ;; Defined at:
  3947 ;;		line 5 in file "E:\MPLAB\pic\sources\c99\common\isupper.c"
  3948 ;; Parameters:    Size  Location     Type
  3949 ;;  c               2   16[COMRAM] int 
  3950 ;; Auto vars:     Size  Location     Type
  3951 ;;		None
  3952 ;; Return value:  Size  Location     Type
  3953 ;;                  2   16[COMRAM] int 
  3954 ;; Registers used:
  3955 ;;		wreg, status,2, status,0
  3956 ;; Tracked objects:
  3957 ;;		On entry : 0/0
  3958 ;;		On exit  : 0/0
  3959 ;;		Unchanged: 0/0
  3960 ;; Data sizes:     COMRAM   BANK0   BANK1   BANK2   BANK3   BANK4   BANK5   BANK6   BANK7
  3961 ;;      Params:         2       0       0       0       0       0       0       0       0
  3962 ;;      Locals:         0       0       0       0       0       0       0       0       0
  3963 ;;      Temps:          4       0       0       0       0       0       0       0       0
  3964 ;;      Totals:         6       0       0       0       0       0       0       0       0
  3965 ;;Total ram usage:        6 bytes
  3966 ;; Hardware stack levels used: 1
  3967 ;; Hardware stack levels required when called: 2
  3968 ;; This function calls:
  3969 ;;		Nothing
  3970 ;; This function is called by:
  3971 ;;		_efgtoa
  3972 ;;		_vfpfcnvrt
  3973 ;;		_tolower
  3974 ;; This function uses a non-reentrant model
  3975 ;;
  3976                           
  3977                           	psect	text7
  3978  003D70                     __ptext7:
  3979                           	callstack 0
  3980  003D70                     _isupper:
  3981                           	callstack 24
  3982  003D70  0EBF               	movlw	191
  3983  003D72  6E13               	movwf	??_isupper^0,c
  3984  003D74  0EFF               	movlw	255
  3985  003D76  6E14               	movwf	(??_isupper+1)^0,c
  3986  003D78  C011  F015         	movff	isupper@c,??_isupper+2
  3987  003D7C  C012  F016         	movff	isupper@c+1,??_isupper+3
  3988  003D80  5013               	movf	??_isupper^0,w,c
  3989  003D82  2615               	addwf	(??_isupper+2)^0,f,c
  3990  003D84  5014               	movf	(??_isupper+1)^0,w,c
  3991  003D86  2216               	addwfc	(??_isupper+3)^0,f,c
  3992  003D88  5016               	movf	(??_isupper+3)^0,w,c
  3993  003D8A  E10A               	bnz	u6320
  3994  003D8C  0E1A               	movlw	26
  3995  003D8E  5C15               	subwf	(??_isupper+2)^0,w,c
  3996  003D90  A0D8               	btfss	status,0,c
  3997  003D92  EFCD  F01E         	goto	u6321
  3998  003D96  EFD0  F01E         	goto	u6320
  3999  003D9A                     u6321:
  4000  003D9A  0E01               	movlw	1
  4001  003D9C  EFD1  F01E         	goto	u6330
  4002  003DA0                     u6320:
  4003  003DA0  0E00               	movlw	0
  4004  003DA2                     u6330:
  4005  003DA2  6E11               	movwf	?_isupper^0,c
  4006  003DA4  6A12               	clrf	(?_isupper+1)^0,c
  4007  003DA6  0012               	return		;funcret
  4008  003DA8                     __end_of_isupper:
  4009                           	callstack 0
  4010                           
  4011 ;; *************** function _strcpy *****************
  4012 ;; Defined at:
  4013 ;;		line 3 in file "E:\MPLAB\pic\sources\c99\common\strcpy.c"
  4014 ;; Parameters:    Size  Location     Type
  4015 ;;  dest            2   16[COMRAM] PTR unsigned char 
  4016 ;;		 -> dbuf(80), 
  4017 ;;  src             2   18[COMRAM] PTR const unsigned char 
  4018 ;;		 -> STR_7(4), STR_6(4), STR_3(4), STR_2(4), 
  4019 ;;		 -> dbuf(80), 
  4020 ;; Auto vars:     Size  Location     Type
  4021 ;;  d               2   24[COMRAM] PTR unsigned char 
  4022 ;;		 -> dbuf(80), 
  4023 ;;  s               2   22[COMRAM] PTR const unsigned char 
  4024 ;;		 -> STR_7(4), STR_6(4), STR_3(4), STR_2(4), 
  4025 ;;		 -> dbuf(80), 
  4026 ;; Return value:  Size  Location     Type
  4027 ;;                  2   16[COMRAM] PTR unsigned char 
  4028 ;; Registers used:
  4029 ;;		wreg, fsr1l, fsr1h, fsr2l, fsr2h, status,2, status,0, tblptrl, tblptrh, tblptru
  4030 ;; Tracked objects:
  4031 ;;		On entry : 0/0
  4032 ;;		On exit  : 0/0
  4033 ;;		Unchanged: 0/0
  4034 ;; Data sizes:     COMRAM   BANK0   BANK1   BANK2   BANK3   BANK4   BANK5   BANK6   BANK7
  4035 ;;      Params:         4       0       0       0       0       0       0       0       0
  4036 ;;      Locals:         4       0       0       0       0       0       0       0       0
  4037 ;;      Temps:          2       0       0       0       0       0       0       0       0
  4038 ;;      Totals:        10       0       0       0       0       0       0       0       0
  4039 ;;Total ram usage:       10 bytes
  4040 ;; Hardware stack levels used: 1
  4041 ;; Hardware stack levels required when called: 2
  4042 ;; This function calls:
  4043 ;;		Nothing
  4044 ;; This function is called by:
  4045 ;;		_efgtoa
  4046 ;; This function uses a non-reentrant model
  4047 ;;
  4048                           
  4049                           	psect	text8
  4050  003AF8                     __ptext8:
  4051                           	callstack 0
  4052  003AF8                     _strcpy:
  4053                           	callstack 24
  4054  003AF8  C013  F017         	movff	strcpy@src,strcpy@s
  4055  003AFC  C014  F018         	movff	strcpy@src+1,strcpy@s+1
  4056  003B00  C011  F019         	movff	strcpy@dest,strcpy@d
  4057  003B04  C012  F01A         	movff	strcpy@dest+1,strcpy@d+1
  4058  003B08                     l5241:
  4059  003B08  5017               	movf	strcpy@s^0,w,c
  4060  003B0A  6E15               	movwf	??_strcpy^0,c
  4061  003B0C  5018               	movf	(strcpy@s+1)^0,w,c
  4062  003B0E  6E16               	movwf	(??_strcpy+1)^0,c
  4063  003B10  4A17               	infsnz	strcpy@s^0,f,c
  4064  003B12  2A18               	incf	(strcpy@s+1)^0,f,c
  4065  003B14  C015  FFF6         	movff	??_strcpy,tblptrl
  4066  003B18  C016  FFF7         	movff	??_strcpy+1,tblptrh
  4067  003B1C  6AF8               	clrf	tblptru,c
  4068  003B1E  C019  FFD9         	movff	strcpy@d,fsr2l
  4069  003B22  C01A  FFDA         	movff	strcpy@d+1,fsr2h
  4070  003B26  4A19               	infsnz	strcpy@d^0,f,c
  4071  003B28  2A1A               	incf	(strcpy@d+1)^0,f,c
  4072  003B2A  0E07               	movlw	(high __ramtop+-1)
  4073  003B2C  64F7               	cpfsgt	tblptrh,c
  4074  003B2E  D003               	bra	u7157
  4075  003B30  0008               	tblrd		*
  4076  003B32  50F5               	movf	tablat,w,c
  4077  003B34  D005               	bra	u7150
  4078  003B36                     u7157:
  4079  003B36  CFF6 FFE1          	movff	tblptrl,fsr1l
  4080  003B3A  CFF7 FFE2          	movff	tblptrh,fsr1h
  4081  003B3E  50E7               	movf	indf1,w,c
  4082  003B40                     u7150:
  4083  003B40  6EDF               	movwf	indf2,c
  4084  003B42  50DF               	movf	indf2,w,c
  4085  003B44  A4D8               	btfss	status,2,c
  4086  003B46  EFA7  F01D         	goto	u7161
  4087  003B4A  EFA9  F01D         	goto	u7160
  4088  003B4E                     u7161:
  4089  003B4E  EF84  F01D         	goto	l5241
  4090  003B52                     u7160:
  4091  003B52  0012               	return		;funcret
  4092  003B54                     __end_of_strcpy:
  4093                           	callstack 0
  4094                           
  4095 ;; *************** function _pad *****************
  4096 ;; Defined at:
  4097 ;;		line 72 in file "E:\MPLAB\pic\sources\c99\common\doprnt.c"
  4098 ;; Parameters:    Size  Location     Type
  4099 ;;  fp              2   32[COMRAM] PTR struct _IO_FILE
  4100 ;;		 -> sprintf@f(6), 
  4101 ;;  buf             2   34[COMRAM] PTR unsigned char 
  4102 ;;		 -> dbuf(80), 
  4103 ;;  p               2   36[COMRAM] int 
  4104 ;; Auto vars:     Size  Location     Type
  4105 ;;  w               2   41[COMRAM] int 
  4106 ;;  i               2   39[COMRAM] int 
  4107 ;; Return value:  Size  Location     Type
  4108 ;;                  2   32[COMRAM] int 
  4109 ;; Registers used:
  4110 ;;		wreg, fsr1l, fsr1h, fsr2l, fsr2h, status,2, status,0, cstack
  4111 ;; Tracked objects:
  4112 ;;		On entry : 0/0
  4113 ;;		On exit  : 0/0
  4114 ;;		Unchanged: 0/0
  4115 ;; Data sizes:     COMRAM   BANK0   BANK1   BANK2   BANK3   BANK4   BANK5   BANK6   BANK7
  4116 ;;      Params:         6       0       0       0       0       0       0       0       0
  4117 ;;      Locals:         4       0       0       0       0       0       0       0       0
  4118 ;;      Temps:          1       0       0       0       0       0       0       0       0
  4119 ;;      Totals:        11       0       0       0       0       0       0       0       0
  4120 ;;Total ram usage:       11 bytes
  4121 ;; Hardware stack levels used: 1
  4122 ;; Hardware stack levels required when called: 5
  4123 ;; This function calls:
  4124 ;;		_fputc
  4125 ;;		_fputs
  4126 ;;		_strlen
  4127 ;; This function is called by:
  4128 ;;		_efgtoa
  4129 ;; This function uses a non-reentrant model
  4130 ;;
  4131                           
  4132                           	psect	text9
  4133  00365E                     __ptext9:
  4134                           	callstack 0
  4135  00365E                     _pad:
  4136                           	callstack 21
  4137  00365E                     
  4138                           ;E:\MPLAB\pic\sources\c99\common\doprnt.c: 72: static int pad(FILE *fp, char *buf, int p
      +                          );E:\MPLAB\pic\sources\c99\common\doprnt.c: 73: {;E:\MPLAB\pic\sources\c99\common\doprnt
      +                          .c: 74:     int i, w;;E:\MPLAB\pic\sources\c99\common\doprnt.c: 77:     if (flags & (1 <
      +                          < 0)) {
  4139  00365E  A04C               	btfss	_flags^0,0,c
  4140  003660  EF34  F01B         	goto	u7041
  4141  003664  EF36  F01B         	goto	u7040
  4142  003668                     u7041:
  4143  003668  EF40  F01B         	goto	l5199
  4144  00366C                     u7040:
  4145  00366C                     
  4146                           ;E:\MPLAB\pic\sources\c99\common\doprnt.c: 78:         fputs((const char *)buf, fp);
  4147  00366C  C023  F01A         	movff	pad@buf,fputs@s
  4148  003670  C024  F01B         	movff	pad@buf+1,fputs@s+1
  4149  003674  C021  F01C         	movff	pad@fp,fputs@fp
  4150  003678  C022  F01D         	movff	pad@fp+1,fputs@fp+1
  4151  00367C  EC96  F01E         	call	_fputs	;wreg free
  4152  003680                     l5199:
  4153                           
  4154                           ;E:\MPLAB\pic\sources\c99\common\doprnt.c: 82:     w = (p < 0) ? 0 : p;
  4155  003680  BE26               	btfsc	(pad@p+1)^0,7,c
  4156  003682  EF45  F01B         	goto	u7051
  4157  003686  EF47  F01B         	goto	u7050
  4158  00368A                     u7051:
  4159  00368A  EF4D  F01B         	goto	l5203
  4160  00368E                     u7050:
  4161  00368E  C025  F02A         	movff	pad@p,pad@w
  4162  003692  C026  F02B         	movff	pad@p+1,pad@w+1
  4163  003696  EF51  F01B         	goto	l864
  4164  00369A                     l5203:
  4165  00369A  0E00               	movlw	0
  4166  00369C  6E2B               	movwf	(pad@w+1)^0,c
  4167  00369E  0E00               	movlw	0
  4168  0036A0  6E2A               	movwf	pad@w^0,c
  4169  0036A2                     l864:
  4170                           
  4171                           ;E:\MPLAB\pic\sources\c99\common\doprnt.c: 83:     i = 0;
  4172  0036A2  0E00               	movlw	0
  4173  0036A4  6E29               	movwf	(pad@i+1)^0,c
  4174  0036A6  0E00               	movlw	0
  4175  0036A8  6E28               	movwf	pad@i^0,c
  4176                           
  4177                           ;E:\MPLAB\pic\sources\c99\common\doprnt.c: 84:     while (i < w) {
  4178  0036AA  EF63  F01B         	goto	l5209
  4179  0036AE                     l5205:
  4180                           
  4181                           ;E:\MPLAB\pic\sources\c99\common\doprnt.c: 85:         fputc(' ', fp);
  4182  0036AE  0E00               	movlw	0
  4183  0036B0  6E12               	movwf	(fputc@c+1)^0,c
  4184  0036B2  0E20               	movlw	32
  4185  0036B4  6E11               	movwf	fputc@c^0,c
  4186  0036B6  C021  F013         	movff	pad@fp,fputc@fp
  4187  0036BA  C022  F014         	movff	pad@fp+1,fputc@fp+1
  4188  0036BE  EC68  F01A         	call	_fputc	;wreg free
  4189  0036C2                     
  4190                           ;E:\MPLAB\pic\sources\c99\common\doprnt.c: 86:         ++i;
  4191  0036C2  4A28               	infsnz	pad@i^0,f,c
  4192  0036C4  2A29               	incf	(pad@i+1)^0,f,c
  4193  0036C6                     l5209:
  4194                           
  4195                           ;E:\MPLAB\pic\sources\c99\common\doprnt.c: 84:     while (i < w) {
  4196  0036C6  502A               	movf	pad@w^0,w,c
  4197  0036C8  5C28               	subwf	pad@i^0,w,c
  4198  0036CA  5029               	movf	(pad@i+1)^0,w,c
  4199  0036CC  0A80               	xorlw	128
  4200  0036CE  6E27               	movwf	??_pad^0,c
  4201  0036D0  502B               	movf	(pad@w+1)^0,w,c
  4202  0036D2  0A80               	xorlw	128
  4203  0036D4  5827               	subwfb	??_pad^0,w,c
  4204  0036D6  A0D8               	btfss	status,0,c
  4205  0036D8  EF70  F01B         	goto	u7061
  4206  0036DC  EF72  F01B         	goto	u7060
  4207  0036E0                     u7061:
  4208  0036E0  EF57  F01B         	goto	l5205
  4209  0036E4                     u7060:
  4210  0036E4                     
  4211                           ;E:\MPLAB\pic\sources\c99\common\doprnt.c: 90:     if (!(flags & (1 << 0))) {
  4212  0036E4  B04C               	btfsc	_flags^0,0,c
  4213  0036E6  EF77  F01B         	goto	u7071
  4214  0036EA  EF79  F01B         	goto	u7070
  4215  0036EE                     u7071:
  4216  0036EE  EF83  F01B         	goto	l5213
  4217  0036F2                     u7070:
  4218  0036F2                     
  4219                           ;E:\MPLAB\pic\sources\c99\common\doprnt.c: 91:         fputs((const char *)buf, fp);
  4220  0036F2  C023  F01A         	movff	pad@buf,fputs@s
  4221  0036F6  C024  F01B         	movff	pad@buf+1,fputs@s+1
  4222  0036FA  C021  F01C         	movff	pad@fp,fputs@fp
  4223  0036FE  C022  F01D         	movff	pad@fp+1,fputs@fp+1
  4224  003702  EC96  F01E         	call	_fputs	;wreg free
  4225  003706                     l5213:
  4226                           
  4227                           ;E:\MPLAB\pic\sources\c99\common\doprnt.c: 94:     return (int)(strlen(buf) + (size_t)w)
      +                          ;
  4228  003706  C023  F011         	movff	pad@buf,strlen@s
  4229  00370A  C024  F012         	movff	pad@buf+1,strlen@s+1
  4230  00370E  EC0C  F01F         	call	_strlen	;wreg free
  4231  003712  502A               	movf	pad@w^0,w,c
  4232  003714  2411               	addwf	?_strlen^0,w,c
  4233  003716  6E21               	movwf	?_pad^0,c
  4234  003718  502B               	movf	(pad@w+1)^0,w,c
  4235  00371A  2012               	addwfc	(?_strlen+1)^0,w,c
  4236  00371C  6E22               	movwf	(?_pad+1)^0,c
  4237  00371E  0012               	return		;funcret
  4238  003720                     __end_of_pad:
  4239                           	callstack 0
  4240                           
  4241 ;; *************** function _strlen *****************
  4242 ;; Defined at:
  4243 ;;		line 5 in file "E:\MPLAB\pic\sources\c99\common\strlen.c"
  4244 ;; Parameters:    Size  Location     Type
  4245 ;;  s               2   16[COMRAM] PTR const unsigned char 
  4246 ;;		 -> dbuf(80), 
  4247 ;; Auto vars:     Size  Location     Type
  4248 ;;  a               2   18[COMRAM] PTR const unsigned char 
  4249 ;;		 -> dbuf(80), 
  4250 ;; Return value:  Size  Location     Type
  4251 ;;                  2   16[COMRAM] unsigned int 
  4252 ;; Registers used:
  4253 ;;		wreg, fsr2l, fsr2h, status,2, status,0
  4254 ;; Tracked objects:
  4255 ;;		On entry : 0/0
  4256 ;;		On exit  : 0/0
  4257 ;;		Unchanged: 0/0
  4258 ;; Data sizes:     COMRAM   BANK0   BANK1   BANK2   BANK3   BANK4   BANK5   BANK6   BANK7
  4259 ;;      Params:         2       0       0       0       0       0       0       0       0
  4260 ;;      Locals:         2       0       0       0       0       0       0       0       0
  4261 ;;      Temps:          0       0       0       0       0       0       0       0       0
  4262 ;;      Totals:         4       0       0       0       0       0       0       0       0
  4263 ;;Total ram usage:        4 bytes
  4264 ;; Hardware stack levels used: 1
  4265 ;; Hardware stack levels required when called: 2
  4266 ;; This function calls:
  4267 ;;		Nothing
  4268 ;; This function is called by:
  4269 ;;		_pad
  4270 ;; This function uses a non-reentrant model
  4271 ;;
  4272                           
  4273                           	psect	text10
  4274  003E18                     __ptext10:
  4275                           	callstack 0
  4276  003E18                     _strlen:
  4277                           	callstack 23
  4278  003E18  C011  F013         	movff	strlen@s,strlen@a
  4279  003E1C  C012  F014         	movff	strlen@s+1,strlen@a+1
  4280  003E20  EF14  F01F         	goto	l4735
  4281  003E24                     l4733:
  4282  003E24  4A11               	infsnz	strlen@s^0,f,c
  4283  003E26  2A12               	incf	(strlen@s+1)^0,f,c
  4284  003E28                     l4735:
  4285  003E28  C011  FFD9         	movff	strlen@s,fsr2l
  4286  003E2C  C012  FFDA         	movff	strlen@s+1,fsr2h
  4287  003E30  50DF               	movf	indf2,w,c
  4288  003E32  A4D8               	btfss	status,2,c
  4289  003E34  EF1E  F01F         	goto	u6311
  4290  003E38  EF20  F01F         	goto	u6310
  4291  003E3C                     u6311:
  4292  003E3C  EF12  F01F         	goto	l4733
  4293  003E40                     u6310:
  4294  003E40  5013               	movf	strlen@a^0,w,c
  4295  003E42  5C11               	subwf	strlen@s^0,w,c
  4296  003E44  6E11               	movwf	?_strlen^0,c
  4297  003E46  5014               	movf	(strlen@a+1)^0,w,c
  4298  003E48  5812               	subwfb	(strlen@s+1)^0,w,c
  4299  003E4A  6E12               	movwf	(?_strlen+1)^0,c
  4300  003E4C  0012               	return		;funcret
  4301  003E4E                     __end_of_strlen:
  4302                           	callstack 0
  4303                           
  4304 ;; *************** function _fputs *****************
  4305 ;; Defined at:
  4306 ;;		line 8 in file "E:\MPLAB\pic\sources\c99\common\nf_fputs.c"
  4307 ;; Parameters:    Size  Location     Type
  4308 ;;  s               2   25[COMRAM] PTR const unsigned char 
  4309 ;;		 -> dbuf(80), 
  4310 ;;  fp              2   27[COMRAM] PTR struct _IO_FILE
  4311 ;;		 -> sprintf@f(6), 
  4312 ;; Auto vars:     Size  Location     Type
  4313 ;;  i               2   30[COMRAM] int 
  4314 ;;  c               1   29[COMRAM] unsigned char 
  4315 ;; Return value:  Size  Location     Type
  4316 ;;                  2   25[COMRAM] int 
  4317 ;; Registers used:
  4318 ;;		wreg, fsr1l, fsr1h, fsr2l, fsr2h, status,2, status,0, cstack
  4319 ;; Tracked objects:
  4320 ;;		On entry : 0/0
  4321 ;;		On exit  : 0/0
  4322 ;;		Unchanged: 0/0
  4323 ;; Data sizes:     COMRAM   BANK0   BANK1   BANK2   BANK3   BANK4   BANK5   BANK6   BANK7
  4324 ;;      Params:         4       0       0       0       0       0       0       0       0
  4325 ;;      Locals:         3       0       0       0       0       0       0       0       0
  4326 ;;      Temps:          0       0       0       0       0       0       0       0       0
  4327 ;;      Totals:         7       0       0       0       0       0       0       0       0
  4328 ;;Total ram usage:        7 bytes
  4329 ;; Hardware stack levels used: 1
  4330 ;; Hardware stack levels required when called: 4
  4331 ;; This function calls:
  4332 ;;		_fputc
  4333 ;; This function is called by:
  4334 ;;		_pad
  4335 ;; This function uses a non-reentrant model
  4336 ;;
  4337                           
  4338                           	psect	text11
  4339  003D2C                     __ptext11:
  4340                           	callstack 0
  4341  003D2C                     _fputs:
  4342                           	callstack 21
  4343  003D2C  0E00               	movlw	0
  4344  003D2E  6E20               	movwf	(fputs@i+1)^0,c
  4345  003D30  0E00               	movlw	0
  4346  003D32  6E1F               	movwf	fputs@i^0,c
  4347  003D34  EFA7  F01E         	goto	l4729
  4348  003D38                     l4725:
  4349  003D38  C01E  F011         	movff	fputs@c,fputc@c
  4350  003D3C  6A12               	clrf	(fputc@c+1)^0,c
  4351  003D3E  C01C  F013         	movff	fputs@fp,fputc@fp
  4352  003D42  C01D  F014         	movff	fputs@fp+1,fputc@fp+1
  4353  003D46  EC68  F01A         	call	_fputc	;wreg free
  4354  003D4A  4A1F               	infsnz	fputs@i^0,f,c
  4355  003D4C  2A20               	incf	(fputs@i+1)^0,f,c
  4356  003D4E                     l4729:
  4357  003D4E  501F               	movf	fputs@i^0,w,c
  4358  003D50  241A               	addwf	fputs@s^0,w,c
  4359  003D52  6ED9               	movwf	fsr2l,c
  4360  003D54  5020               	movf	(fputs@i+1)^0,w,c
  4361  003D56  201B               	addwfc	(fputs@s+1)^0,w,c
  4362  003D58  6EDA               	movwf	fsr2h,c
  4363  003D5A  50DF               	movf	indf2,w,c
  4364  003D5C  6E1E               	movwf	fputs@c^0,c
  4365  003D5E  501E               	movf	fputs@c^0,w,c
  4366  003D60  A4D8               	btfss	status,2,c
  4367  003D62  EFB5  F01E         	goto	u6301
  4368  003D66  EFB7  F01E         	goto	u6300
  4369  003D6A                     u6301:
  4370  003D6A  EF9C  F01E         	goto	l4725
  4371  003D6E                     u6300:
  4372  003D6E  0012               	return		;funcret
  4373  003D70                     __end_of_fputs:
  4374                           	callstack 0
  4375                           
  4376 ;; *************** function _fputc *****************
  4377 ;; Defined at:
  4378 ;;		line 8 in file "E:\MPLAB\pic\sources\c99\common\nf_fputc.c"
  4379 ;; Parameters:    Size  Location     Type
  4380 ;;  c               2   16[COMRAM] int 
  4381 ;;  fp              2   18[COMRAM] PTR struct _IO_FILE
  4382 ;;		 -> sprintf@f(6), 
  4383 ;; Auto vars:     Size  Location     Type
  4384 ;;		None
  4385 ;; Return value:  Size  Location     Type
  4386 ;;                  2   16[COMRAM] int 
  4387 ;; Registers used:
  4388 ;;		wreg, fsr1l, fsr1h, fsr2l, fsr2h, status,2, status,0, cstack
  4389 ;; Tracked objects:
  4390 ;;		On entry : 0/0
  4391 ;;		On exit  : 0/0
  4392 ;;		Unchanged: 0/0
  4393 ;; Data sizes:     COMRAM   BANK0   BANK1   BANK2   BANK3   BANK4   BANK5   BANK6   BANK7
  4394 ;;      Params:         4       0       0       0       0       0       0       0       0
  4395 ;;      Locals:         0       0       0       0       0       0       0       0       0
  4396 ;;      Temps:          5       0       0       0       0       0       0       0       0
  4397 ;;      Totals:         9       0       0       0       0       0       0       0       0
  4398 ;;Total ram usage:        9 bytes
  4399 ;; Hardware stack levels used: 1
  4400 ;; Hardware stack levels required when called: 3
  4401 ;; This function calls:
  4402 ;;		_putch
  4403 ;; This function is called by:
  4404 ;;		_pad
  4405 ;;		_vfpfcnvrt
  4406 ;;		_fputs
  4407 ;; This function uses a non-reentrant model
  4408 ;;
  4409                           
  4410                           	psect	text12
  4411  0034D0                     __ptext12:
  4412                           	callstack 0
  4413  0034D0                     _fputc:
  4414                           	callstack 24
  4415  0034D0  5013               	movf	fputc@fp^0,w,c
  4416  0034D2  1014               	iorwf	(fputc@fp+1)^0,w,c
  4417  0034D4  B4D8               	btfsc	status,2,c
  4418  0034D6  EF6F  F01A         	goto	u5871
  4419  0034DA  EF71  F01A         	goto	u5870
  4420  0034DE                     u5871:
  4421  0034DE  EF7A  F01A         	goto	l4511
  4422  0034E2                     u5870:
  4423  0034E2  5013               	movf	fputc@fp^0,w,c
  4424  0034E4  1014               	iorwf	(fputc@fp+1)^0,w,c
  4425  0034E6  A4D8               	btfss	status,2,c
  4426  0034E8  EF78  F01A         	goto	u5881
  4427  0034EC  EF7A  F01A         	goto	u5880
  4428  0034F0                     u5881:
  4429  0034F0  EF7F  F01A         	goto	l4513
  4430  0034F4                     u5880:
  4431  0034F4                     l4511:
  4432  0034F4  5011               	movf	fputc@c^0,w,c
  4433  0034F6  EC8F  F01F         	call	_putch
  4434  0034FA  EFCC  F01A         	goto	l1080
  4435  0034FE                     l4513:
  4436  0034FE  EE20 F004          	lfsr	2,4
  4437  003502  5013               	movf	fputc@fp^0,w,c
  4438  003504  26D9               	addwf	fsr2l,f,c
  4439  003506  5014               	movf	(fputc@fp+1)^0,w,c
  4440  003508  22DA               	addwfc	fsr2h,f,c
  4441  00350A  50DE               	movf	postinc2,w,c
  4442  00350C  10DE               	iorwf	postinc2,w,c
  4443  00350E  B4D8               	btfsc	status,2,c
  4444  003510  EF8C  F01A         	goto	u5891
  4445  003514  EF8E  F01A         	goto	u5890
  4446  003518                     u5891:
  4447  003518  EFA9  F01A         	goto	l4517
  4448  00351C                     u5890:
  4449  00351C  EE20 F004          	lfsr	2,4
  4450  003520  5013               	movf	fputc@fp^0,w,c
  4451  003522  26D9               	addwf	fsr2l,f,c
  4452  003524  5014               	movf	(fputc@fp+1)^0,w,c
  4453  003526  22DA               	addwfc	fsr2h,f,c
  4454  003528  EE10 F002          	lfsr	1,2
  4455  00352C  5013               	movf	fputc@fp^0,w,c
  4456  00352E  26E1               	addwf	fsr1l,f,c
  4457  003530  5014               	movf	(fputc@fp+1)^0,w,c
  4458  003532  22E2               	addwfc	fsr1h,f,c
  4459  003534  50DE               	movf	postinc2,w,c
  4460  003536  5CE6               	subwf	postinc1,w,c
  4461  003538  50E6               	movf	postinc1,w,c
  4462  00353A  0A80               	xorlw	128
  4463  00353C  6E19               	movwf	(??_fputc+4)^0,c
  4464  00353E  50DE               	movf	postinc2,w,c
  4465  003540  0A80               	xorlw	128
  4466  003542  5819               	subwfb	(??_fputc+4)^0,w,c
  4467  003544  B0D8               	btfsc	status,0,c
  4468  003546  EFA7  F01A         	goto	u5901
  4469  00354A  EFA9  F01A         	goto	u5900
  4470  00354E                     u5901:
  4471  00354E  EFCC  F01A         	goto	l1080
  4472  003552                     u5900:
  4473  003552                     l4517:
  4474  003552  EE20 F002          	lfsr	2,2
  4475  003556  5013               	movf	fputc@fp^0,w,c
  4476  003558  26D9               	addwf	fsr2l,f,c
  4477  00355A  5014               	movf	(fputc@fp+1)^0,w,c
  4478  00355C  22DA               	addwfc	fsr2h,f,c
  4479  00355E  CFDE F015          	movff	postinc2,??_fputc
  4480  003562  CFDD F016          	movff	postdec2,??_fputc+1
  4481  003566  C013  FFD9         	movff	fputc@fp,fsr2l
  4482  00356A  C014  FFDA         	movff	fputc@fp+1,fsr2h
  4483  00356E  CFDE F017          	movff	postinc2,??_fputc+2
  4484  003572  CFDD F018          	movff	postdec2,??_fputc+3
  4485  003576  5015               	movf	??_fputc^0,w,c
  4486  003578  2417               	addwf	(??_fputc+2)^0,w,c
  4487  00357A  6ED9               	movwf	fsr2l,c
  4488  00357C  5016               	movf	(??_fputc+1)^0,w,c
  4489  00357E  2018               	addwfc	(??_fputc+3)^0,w,c
  4490  003580  6EDA               	movwf	fsr2h,c
  4491  003582  C011  FFDF         	movff	fputc@c,indf2
  4492  003586  EE20 F002          	lfsr	2,2
  4493  00358A  5013               	movf	fputc@fp^0,w,c
  4494  00358C  26D9               	addwf	fsr2l,f,c
  4495  00358E  5014               	movf	(fputc@fp+1)^0,w,c
  4496  003590  22DA               	addwfc	fsr2h,f,c
  4497  003592  2ADE               	incf	postinc2,f,c
  4498  003594  0E00               	movlw	0
  4499  003596  22DD               	addwfc	postdec2,f,c
  4500  003598                     l1080:
  4501  003598  0012               	return		;funcret
  4502  00359A                     __end_of_fputc:
  4503                           	callstack 0
  4504                           
  4505 ;; *************** function _putch *****************
  4506 ;; Defined at:
  4507 ;;		line 7 in file "E:\MPLAB\pic\sources\c99\common\putch.c"
  4508 ;; Parameters:    Size  Location     Type
  4509 ;;  c               1    wreg     unsigned char 
  4510 ;; Auto vars:     Size  Location     Type
  4511 ;;  c               1    0[COMRAM] unsigned char 
  4512 ;; Return value:  Size  Location     Type
  4513 ;;                  1    wreg      void 
  4514 ;; Registers used:
  4515 ;;		wreg
  4516 ;; Tracked objects:
  4517 ;;		On entry : 0/0
  4518 ;;		On exit  : 0/0
  4519 ;;		Unchanged: 0/0
  4520 ;; Data sizes:     COMRAM   BANK0   BANK1   BANK2   BANK3   BANK4   BANK5   BANK6   BANK7
  4521 ;;      Params:         0       0       0       0       0       0       0       0       0
  4522 ;;      Locals:         0       0       0       0       0       0       0       0       0
  4523 ;;      Temps:          0       0       0       0       0       0       0       0       0
  4524 ;;      Totals:         0       0       0       0       0       0       0       0       0
  4525 ;;Total ram usage:        0 bytes
  4526 ;; Hardware stack levels used: 1
  4527 ;; Hardware stack levels required when called: 2
  4528 ;; This function calls:
  4529 ;;		Nothing
  4530 ;; This function is called by:
  4531 ;;		_fputc
  4532 ;; This function uses a non-reentrant model
  4533 ;;
  4534                           
  4535                           	psect	text13
  4536  003F1E                     __ptext13:
  4537                           	callstack 0
  4538  003F1E                     _putch:
  4539                           	callstack 24
  4540  003F1E  0012               	return		;funcret
  4541  003F20                     __end_of_putch:
  4542                           	callstack 0
  4543                           
  4544 ;; *************** function _floorf *****************
  4545 ;; Defined at:
  4546 ;;		line 3 in file "E:\MPLAB\pic\sources\c99\common\floorf.c"
  4547 ;; Parameters:    Size  Location     Type
  4548 ;;  x               4   25[BANK0 ] float 
  4549 ;; Auto vars:     Size  Location     Type
  4550 ;;  u               4   41[BANK0 ] struct .
  4551 ;;  m               4   35[BANK0 ] unsigned long 
  4552 ;;  e               2   39[BANK0 ] int 
  4553 ;; Return value:  Size  Location     Type
  4554 ;;                  4   25[BANK0 ] float 
  4555 ;; Registers used:
  4556 ;;		wreg, status,2, status,0
  4557 ;; Tracked objects:
  4558 ;;		On entry : 0/0
  4559 ;;		On exit  : 0/0
  4560 ;;		Unchanged: 0/0
  4561 ;; Data sizes:     COMRAM   BANK0   BANK1   BANK2   BANK3   BANK4   BANK5   BANK6   BANK7
  4562 ;;      Params:         0       4       0       0       0       0       0       0       0
  4563 ;;      Locals:         0      10       0       0       0       0       0       0       0
  4564 ;;      Temps:          0       6       0       0       0       0       0       0       0
  4565 ;;      Totals:         0      20       0       0       0       0       0       0       0
  4566 ;;Total ram usage:       20 bytes
  4567 ;; Hardware stack levels used: 1
  4568 ;; Hardware stack levels required when called: 2
  4569 ;; This function calls:
  4570 ;;		Nothing
  4571 ;; This function is called by:
  4572 ;;		_efgtoa
  4573 ;; This function uses a non-reentrant model
  4574 ;;
  4575                           
  4576                           	psect	text14
  4577  002A36                     __ptext14:
  4578                           	callstack 0
  4579  002A36                     _floorf:
  4580                           	callstack 24
  4581  002A36  C040  F089         	movff	floorf@F527,floorf@u
  4582  002A3A  C041  F08A         	movff	floorf@F527+1,floorf@u+1
  4583  002A3E  C042  F08B         	movff	floorf@F527+2,floorf@u+2
  4584  002A42  C043  F08C         	movff	floorf@F527+3,floorf@u+3
  4585  002A46  C079  F089         	movff	floorf@x,floorf@u
  4586  002A4A  C07A  F08A         	movff	floorf@x+1,floorf@u+1
  4587  002A4E  C07B  F08B         	movff	floorf@x+2,floorf@u+2
  4588  002A52  C07C  F08C         	movff	floorf@x+3,floorf@u+3
  4589  002A56  0E81               	movlw	129
  4590  002A58  0100               	movlb	0	; () banked
  4591  002A5A  6F7D               	movwf	??_floorf& (0+255),b
  4592  002A5C  0EFF               	movlw	255
  4593  002A5E  6F7E               	movwf	(??_floorf+1)& (0+255),b
  4594  002A60  C089  F07F         	movff	floorf@u,??_floorf+2
  4595  002A64  C08A  F080         	movff	floorf@u+1,??_floorf+3
  4596  002A68  C08B  F081         	movff	floorf@u+2,??_floorf+4
  4597  002A6C  C08C  F082         	movff	floorf@u+3,??_floorf+5
  4598  002A70  0E18               	movlw	24
  4599  002A72  EF40  F015         	goto	u7200
  4600  002A76                     u7205:
  4601  002A76  90D8               	bcf	status,0,c
  4602  002A78  3382               	rrcf	(??_floorf+5)& (0+255),f,b
  4603  002A7A  3381               	rrcf	(??_floorf+4)& (0+255),f,b
  4604  002A7C  3380               	rrcf	(??_floorf+3)& (0+255),f,b
  4605  002A7E  337F               	rrcf	(??_floorf+2)& (0+255),f,b
  4606  002A80                     u7200:
  4607  002A80  2EE8               	decfsz	wreg,f,c
  4608  002A82  EF3B  F015         	goto	u7205
  4609  002A86  517F               	movf	(??_floorf+2)& (0+255),w,b
  4610  002A88  257D               	addwf	??_floorf& (0+255),w,b
  4611  002A8A  6F87               	movwf	floorf@e& (0+255),b
  4612  002A8C  0E00               	movlw	0
  4613  002A8E  217E               	addwfc	(??_floorf+1)& (0+255),w,b
  4614  002A90  6F88               	movwf	(floorf@e+1)& (0+255),b
  4615  002A92  BF88               	btfsc	(floorf@e+1)& (0+255),7,b
  4616  002A94  EF55  F015         	goto	u7211
  4617  002A98  5188               	movf	(floorf@e+1)& (0+255),w,b
  4618  002A9A  E109               	bnz	u7210
  4619  002A9C  0E17               	movlw	23
  4620  002A9E  5D87               	subwf	floorf@e& (0+255),w,b
  4621  002AA0  A0D8               	btfss	status,0,c
  4622  002AA2  EF55  F015         	goto	u7211
  4623  002AA6  EF57  F015         	goto	u7210
  4624  002AAA                     u7211:
  4625  002AAA  EF61  F015         	goto	l5259
  4626  002AAE                     u7210:
  4627  002AAE                     l5257:
  4628                           
  4629                           ; BSR set to: 0
  4630  002AAE  C079  F079         	movff	floorf@x,?_floorf
  4631  002AB2  C07A  F07A         	movff	floorf@x+1,?_floorf+1
  4632  002AB6  C07B  F07B         	movff	floorf@x+2,?_floorf+2
  4633  002ABA  C07C  F07C         	movff	floorf@x+3,?_floorf+3
  4634  002ABE  EF25  F016         	goto	l1041
  4635  002AC2                     l5259:
  4636                           
  4637                           ; BSR set to: 0
  4638  002AC2  BF88               	btfsc	(floorf@e+1)& (0+255),7,b
  4639  002AC4  EF66  F015         	goto	u7221
  4640  002AC8  EF68  F015         	goto	u7220
  4641  002ACC                     u7221:
  4642  002ACC  EFD9  F015         	goto	l5269
  4643  002AD0                     u7220:
  4644  002AD0                     
  4645                           ; BSR set to: 0
  4646  002AD0  C087  F07D         	movff	floorf@e,??_floorf
  4647  002AD4  0EFF               	movlw	255
  4648  002AD6  6F7E               	movwf	(??_floorf+1)& (0+255),b
  4649  002AD8  0EFF               	movlw	255
  4650  002ADA  6F7F               	movwf	(??_floorf+2)& (0+255),b
  4651  002ADC  0E7F               	movlw	127
  4652  002ADE  6F80               	movwf	(??_floorf+3)& (0+255),b
  4653  002AE0  0E00               	movlw	0
  4654  002AE2  6F81               	movwf	(??_floorf+4)& (0+255),b
  4655  002AE4                     u7235:
  4656  002AE4  677D               	tstfsz	??_floorf& (0+255),b
  4657  002AE6  EF77  F015         	goto	u7236
  4658  002AEA  EF7F  F015         	goto	u7237
  4659  002AEE                     u7236:
  4660  002AEE  3581               	rlcf	(??_floorf+4)& (0+255),w,b
  4661  002AF0  3381               	rrcf	(??_floorf+4)& (0+255),f,b
  4662  002AF2  3380               	rrcf	(??_floorf+3)& (0+255),f,b
  4663  002AF4  337F               	rrcf	(??_floorf+2)& (0+255),f,b
  4664  002AF6  337E               	rrcf	(??_floorf+1)& (0+255),f,b
  4665  002AF8  2F7D               	decfsz	??_floorf& (0+255),f,b
  4666  002AFA  EF72  F015         	goto	u7235
  4667  002AFE                     u7237:
  4668  002AFE  C07E  F083         	movff	??_floorf+1,floorf@m
  4669  002B02  C07F  F084         	movff	??_floorf+2,floorf@m+1
  4670  002B06  C080  F085         	movff	??_floorf+3,floorf@m+2
  4671  002B0A  C081  F086         	movff	??_floorf+4,floorf@m+3
  4672  002B0E  0100               	movlb	0	; () banked
  4673  002B10  5183               	movf	floorf@m& (0+255),w,b
  4674  002B12  1589               	andwf	floorf@u& (0+255),w,b
  4675  002B14  6F7D               	movwf	??_floorf& (0+255),b
  4676  002B16  5184               	movf	(floorf@m+1)& (0+255),w,b
  4677  002B18  158A               	andwf	(floorf@u+1)& (0+255),w,b
  4678  002B1A  6F7E               	movwf	(??_floorf+1)& (0+255),b
  4679  002B1C  5185               	movf	(floorf@m+2)& (0+255),w,b
  4680  002B1E  158B               	andwf	(floorf@u+2)& (0+255),w,b
  4681  002B20  6F7F               	movwf	(??_floorf+2)& (0+255),b
  4682  002B22  5186               	movf	(floorf@m+3)& (0+255),w,b
  4683  002B24  158C               	andwf	(floorf@u+3)& (0+255),w,b
  4684  002B26  6F80               	movwf	(??_floorf+3)& (0+255),b
  4685  002B28  517D               	movf	??_floorf& (0+255),w,b
  4686  002B2A  117E               	iorwf	(??_floorf+1)& (0+255),w,b
  4687  002B2C  117F               	iorwf	(??_floorf+2)& (0+255),w,b
  4688  002B2E  1180               	iorwf	(??_floorf+3)& (0+255),w,b
  4689  002B30  A4D8               	btfss	status,2,c
  4690  002B32  EF9D  F015         	goto	u7241
  4691  002B36  EF9F  F015         	goto	u7240
  4692  002B3A                     u7241:
  4693  002B3A  EFA1  F015         	goto	l5265
  4694  002B3E                     u7240:
  4695  002B3E  EF57  F015         	goto	l5257
  4696  002B42                     l5265:
  4697                           
  4698                           ; BSR set to: 0
  4699  002B42  C089  F07D         	movff	floorf@u,??_floorf
  4700  002B46  C08A  F07E         	movff	floorf@u+1,??_floorf+1
  4701  002B4A  C08B  F07F         	movff	floorf@u+2,??_floorf+2
  4702  002B4E  C08C  F080         	movff	floorf@u+3,??_floorf+3
  4703  002B52  0E20               	movlw	32
  4704  002B54  EFB1  F015         	goto	u7250
  4705  002B58                     u7255:
  4706  002B58  90D8               	bcf	status,0,c
  4707  002B5A  3380               	rrcf	(??_floorf+3)& (0+255),f,b
  4708  002B5C  337F               	rrcf	(??_floorf+2)& (0+255),f,b
  4709  002B5E  337E               	rrcf	(??_floorf+1)& (0+255),f,b
  4710  002B60  337D               	rrcf	??_floorf& (0+255),f,b
  4711  002B62                     u7250:
  4712  002B62  2EE8               	decfsz	wreg,f,c
  4713  002B64  EFAC  F015         	goto	u7255
  4714  002B68  517D               	movf	??_floorf& (0+255),w,b
  4715  002B6A  117E               	iorwf	(??_floorf+1)& (0+255),w,b
  4716  002B6C  117F               	iorwf	(??_floorf+2)& (0+255),w,b
  4717  002B6E  1180               	iorwf	(??_floorf+3)& (0+255),w,b
  4718  002B70  B4D8               	btfsc	status,2,c
  4719  002B72  EFBD  F015         	goto	u7261
  4720  002B76  EFBF  F015         	goto	u7260
  4721  002B7A                     u7261:
  4722  002B7A  EFC7  F015         	goto	l1044
  4723  002B7E                     u7260:
  4724  002B7E                     
  4725                           ; BSR set to: 0
  4726  002B7E  5183               	movf	floorf@m& (0+255),w,b
  4727  002B80  2789               	addwf	floorf@u& (0+255),f,b
  4728  002B82  5184               	movf	(floorf@m+1)& (0+255),w,b
  4729  002B84  238A               	addwfc	(floorf@u+1)& (0+255),f,b
  4730  002B86  5185               	movf	(floorf@m+2)& (0+255),w,b
  4731  002B88  238B               	addwfc	(floorf@u+2)& (0+255),f,b
  4732  002B8A  5186               	movf	(floorf@m+3)& (0+255),w,b
  4733  002B8C  238C               	addwfc	(floorf@u+3)& (0+255),f,b
  4734  002B8E                     l1044:
  4735                           
  4736                           ; BSR set to: 0
  4737  002B8E  1D83               	comf	floorf@m& (0+255),w,b
  4738  002B90  6F7D               	movwf	??_floorf& (0+255),b
  4739  002B92  1D84               	comf	(floorf@m+1)& (0+255),w,b
  4740  002B94  6F7E               	movwf	(??_floorf+1)& (0+255),b
  4741  002B96  1D85               	comf	(floorf@m+2)& (0+255),w,b
  4742  002B98  6F7F               	movwf	(??_floorf+2)& (0+255),b
  4743  002B9A  1D86               	comf	(floorf@m+3)& (0+255),w,b
  4744  002B9C  6F80               	movwf	(??_floorf+3)& (0+255),b
  4745  002B9E  517D               	movf	??_floorf& (0+255),w,b
  4746  002BA0  1789               	andwf	floorf@u& (0+255),f,b
  4747  002BA2  517E               	movf	(??_floorf+1)& (0+255),w,b
  4748  002BA4  178A               	andwf	(floorf@u+1)& (0+255),f,b
  4749  002BA6  517F               	movf	(??_floorf+2)& (0+255),w,b
  4750  002BA8  178B               	andwf	(floorf@u+2)& (0+255),f,b
  4751  002BAA  5180               	movf	(??_floorf+3)& (0+255),w,b
  4752  002BAC  178C               	andwf	(floorf@u+3)& (0+255),f,b
  4753  002BAE  EF1D  F016         	goto	l5277
  4754  002BB2                     l5269:
  4755                           
  4756                           ; BSR set to: 0
  4757  002BB2  C089  F07D         	movff	floorf@u,??_floorf
  4758  002BB6  C08A  F07E         	movff	floorf@u+1,??_floorf+1
  4759  002BBA  C08B  F07F         	movff	floorf@u+2,??_floorf+2
  4760  002BBE  C08C  F080         	movff	floorf@u+3,??_floorf+3
  4761  002BC2  0E20               	movlw	32
  4762  002BC4  EFE9  F015         	goto	u7270
  4763  002BC8                     u7275:
  4764  002BC8  90D8               	bcf	status,0,c
  4765  002BCA  3380               	rrcf	(??_floorf+3)& (0+255),f,b
  4766  002BCC  337F               	rrcf	(??_floorf+2)& (0+255),f,b
  4767  002BCE  337E               	rrcf	(??_floorf+1)& (0+255),f,b
  4768  002BD0  337D               	rrcf	??_floorf& (0+255),f,b
  4769  002BD2                     u7270:
  4770  002BD2  2EE8               	decfsz	wreg,f,c
  4771  002BD4  EFE4  F015         	goto	u7275
  4772  002BD8  517D               	movf	??_floorf& (0+255),w,b
  4773  002BDA  117E               	iorwf	(??_floorf+1)& (0+255),w,b
  4774  002BDC  117F               	iorwf	(??_floorf+2)& (0+255),w,b
  4775  002BDE  1180               	iorwf	(??_floorf+3)& (0+255),w,b
  4776  002BE0  A4D8               	btfss	status,2,c
  4777  002BE2  EFF5  F015         	goto	u7281
  4778  002BE6  EFF7  F015         	goto	u7280
  4779  002BEA                     u7281:
  4780  002BEA  EF01  F016         	goto	l5273
  4781  002BEE                     u7280:
  4782  002BEE                     
  4783                           ; BSR set to: 0
  4784  002BEE  0E00               	movlw	0
  4785  002BF0  6F89               	movwf	floorf@u& (0+255),b
  4786  002BF2  0E00               	movlw	0
  4787  002BF4  6F8A               	movwf	(floorf@u+1)& (0+255),b
  4788  002BF6  0E00               	movlw	0
  4789  002BF8  6F8B               	movwf	(floorf@u+2)& (0+255),b
  4790  002BFA  0E00               	movlw	0
  4791  002BFC  6F8C               	movwf	(floorf@u+3)& (0+255),b
  4792  002BFE  EF1D  F016         	goto	l5277
  4793  002C02                     l5273:
  4794                           
  4795                           ; BSR set to: 0
  4796  002C02  90D8               	bcf	status,0,c
  4797  002C04  3589               	rlcf	floorf@u& (0+255),w,b
  4798  002C06  6F7D               	movwf	??_floorf& (0+255),b
  4799  002C08  358A               	rlcf	(floorf@u+1)& (0+255),w,b
  4800  002C0A  6F7E               	movwf	(??_floorf+1)& (0+255),b
  4801  002C0C  358B               	rlcf	(floorf@u+2)& (0+255),w,b
  4802  002C0E  6F7F               	movwf	(??_floorf+2)& (0+255),b
  4803  002C10  358C               	rlcf	(floorf@u+3)& (0+255),w,b
  4804  002C12  6F80               	movwf	(??_floorf+3)& (0+255),b
  4805  002C14  517D               	movf	??_floorf& (0+255),w,b
  4806  002C16  117E               	iorwf	(??_floorf+1)& (0+255),w,b
  4807  002C18  117F               	iorwf	(??_floorf+2)& (0+255),w,b
  4808  002C1A  1180               	iorwf	(??_floorf+3)& (0+255),w,b
  4809  002C1C  B4D8               	btfsc	status,2,c
  4810  002C1E  EF13  F016         	goto	u7291
  4811  002C22  EF15  F016         	goto	u7290
  4812  002C26                     u7291:
  4813  002C26  EF1D  F016         	goto	l5277
  4814  002C2A                     u7290:
  4815  002C2A                     
  4816                           ; BSR set to: 0
  4817  002C2A  0E00               	movlw	0
  4818  002C2C  6F89               	movwf	floorf@u& (0+255),b
  4819  002C2E  0E00               	movlw	0
  4820  002C30  6F8A               	movwf	(floorf@u+1)& (0+255),b
  4821  002C32  0E80               	movlw	128
  4822  002C34  6F8B               	movwf	(floorf@u+2)& (0+255),b
  4823  002C36  0EBF               	movlw	191
  4824  002C38  6F8C               	movwf	(floorf@u+3)& (0+255),b
  4825  002C3A                     l5277:
  4826                           
  4827                           ; BSR set to: 0
  4828  002C3A  C089  F079         	movff	floorf@u,?_floorf
  4829  002C3E  C08A  F07A         	movff	floorf@u+1,?_floorf+1
  4830  002C42  C08B  F07B         	movff	floorf@u+2,?_floorf+2
  4831  002C46  C08C  F07C         	movff	floorf@u+3,?_floorf+3
  4832  002C4A                     l1041:
  4833                           
  4834                           ; BSR set to: 0
  4835  002C4A  0012               	return		;funcret
  4836  002C4C                     __end_of_floorf:
  4837                           	callstack 0
  4838                           
  4839 ;; *************** function ___fpclassifyf *****************
  4840 ;; Defined at:
  4841 ;;		line 4 in file "E:\MPLAB\pic\sources\c99\common\__fpclassifyf.c"
  4842 ;; Parameters:    Size  Location     Type
  4843 ;;  x               4   16[COMRAM] float 
  4844 ;; Auto vars:     Size  Location     Type
  4845 ;;  u               4   26[COMRAM] struct .
  4846 ;;  e               2   24[COMRAM] int 
  4847 ;; Return value:  Size  Location     Type
  4848 ;;                  2   16[COMRAM] int 
  4849 ;; Registers used:
  4850 ;;		wreg, status,2, status,0
  4851 ;; Tracked objects:
  4852 ;;		On entry : 0/0
  4853 ;;		On exit  : 0/0
  4854 ;;		Unchanged: 0/0
  4855 ;; Data sizes:     COMRAM   BANK0   BANK1   BANK2   BANK3   BANK4   BANK5   BANK6   BANK7
  4856 ;;      Params:         4       0       0       0       0       0       0       0       0
  4857 ;;      Locals:         6       0       0       0       0       0       0       0       0
  4858 ;;      Temps:          4       0       0       0       0       0       0       0       0
  4859 ;;      Totals:        14       0       0       0       0       0       0       0       0
  4860 ;;Total ram usage:       14 bytes
  4861 ;; Hardware stack levels used: 1
  4862 ;; Hardware stack levels required when called: 2
  4863 ;; This function calls:
  4864 ;;		Nothing
  4865 ;; This function is called by:
  4866 ;;		_efgtoa
  4867 ;; This function uses a non-reentrant model
  4868 ;;
  4869                           
  4870                           	psect	text15
  4871  0032FC                     __ptext15:
  4872                           	callstack 0
  4873  0032FC                     ___fpclassifyf:
  4874                           	callstack 24
  4875  0032FC  C044  F01B         	movff	___fpclassifyf@F465,___fpclassifyf@u
  4876  003300  C045  F01C         	movff	___fpclassifyf@F465+1,___fpclassifyf@u+1
  4877  003304  C046  F01D         	movff	___fpclassifyf@F465+2,___fpclassifyf@u+2
  4878  003308  C047  F01E         	movff	___fpclassifyf@F465+3,___fpclassifyf@u+3
  4879  00330C  C011  F01B         	movff	___fpclassifyf@x,___fpclassifyf@u
  4880  003310  C012  F01C         	movff	___fpclassifyf@x+1,___fpclassifyf@u+1
  4881  003314  C013  F01D         	movff	___fpclassifyf@x+2,___fpclassifyf@u+2
  4882  003318  C014  F01E         	movff	___fpclassifyf@x+3,___fpclassifyf@u+3
  4883  00331C  C01B  F015         	movff	___fpclassifyf@u,??___fpclassifyf
  4884  003320  C01C  F016         	movff	___fpclassifyf@u+1,??___fpclassifyf+1
  4885  003324  C01D  F017         	movff	___fpclassifyf@u+2,??___fpclassifyf+2
  4886  003328  C01E  F018         	movff	___fpclassifyf@u+3,??___fpclassifyf+3
  4887  00332C  0E18               	movlw	24
  4888  00332E  EF9E  F019         	goto	u7080
  4889  003332                     u7085:
  4890  003332  90D8               	bcf	status,0,c
  4891  003334  3218               	rrcf	(??___fpclassifyf+3)^0,f,c
  4892  003336  3217               	rrcf	(??___fpclassifyf+2)^0,f,c
  4893  003338  3216               	rrcf	(??___fpclassifyf+1)^0,f,c
  4894  00333A  3215               	rrcf	??___fpclassifyf^0,f,c
  4895  00333C                     u7080:
  4896  00333C  2EE8               	decfsz	wreg,f,c
  4897  00333E  EF99  F019         	goto	u7085
  4898  003342  5015               	movf	??___fpclassifyf^0,w,c
  4899  003344  6E19               	movwf	___fpclassifyf@e^0,c
  4900  003346  6A1A               	clrf	(___fpclassifyf@e+1)^0,c
  4901  003348  5019               	movf	___fpclassifyf@e^0,w,c
  4902  00334A  101A               	iorwf	(___fpclassifyf@e+1)^0,w,c
  4903  00334C  A4D8               	btfss	status,2,c
  4904  00334E  EFAB  F019         	goto	u7091
  4905  003352  EFAD  F019         	goto	u7090
  4906  003356                     u7091:
  4907  003356  EFCD  F019         	goto	l5229
  4908  00335A                     u7090:
  4909  00335A  90D8               	bcf	status,0,c
  4910  00335C  341B               	rlcf	___fpclassifyf@u^0,w,c
  4911  00335E  6E15               	movwf	??___fpclassifyf^0,c
  4912  003360  341C               	rlcf	(___fpclassifyf@u+1)^0,w,c
  4913  003362  6E16               	movwf	(??___fpclassifyf+1)^0,c
  4914  003364  341D               	rlcf	(___fpclassifyf@u+2)^0,w,c
  4915  003366  6E17               	movwf	(??___fpclassifyf+2)^0,c
  4916  003368  341E               	rlcf	(___fpclassifyf@u+3)^0,w,c
  4917  00336A  6E18               	movwf	(??___fpclassifyf+3)^0,c
  4918  00336C  5015               	movf	??___fpclassifyf^0,w,c
  4919  00336E  1016               	iorwf	(??___fpclassifyf+1)^0,w,c
  4920  003370  1017               	iorwf	(??___fpclassifyf+2)^0,w,c
  4921  003372  1018               	iorwf	(??___fpclassifyf+3)^0,w,c
  4922  003374  A4D8               	btfss	status,2,c
  4923  003376  EFBF  F019         	goto	u7101
  4924  00337A  EFC1  F019         	goto	u7100
  4925  00337E                     u7101:
  4926  00337E  EFC7  F019         	goto	l5225
  4927  003382                     u7100:
  4928  003382  0E00               	movlw	0
  4929  003384  6E12               	movwf	(?___fpclassifyf+1)^0,c
  4930  003386  0E02               	movlw	2
  4931  003388  6E11               	movwf	?___fpclassifyf^0,c
  4932  00338A  EFFC  F019         	goto	l1003
  4933  00338E                     l5225:
  4934  00338E  0E00               	movlw	0
  4935  003390  6E12               	movwf	(?___fpclassifyf+1)^0,c
  4936  003392  0E03               	movlw	3
  4937  003394  6E11               	movwf	?___fpclassifyf^0,c
  4938  003396  EFFC  F019         	goto	l1003
  4939  00339A                     l5229:
  4940  00339A  2819               	incf	___fpclassifyf@e^0,w,c
  4941  00339C  101A               	iorwf	(___fpclassifyf@e+1)^0,w,c
  4942  00339E  A4D8               	btfss	status,2,c
  4943  0033A0  EFD4  F019         	goto	u7111
  4944  0033A4  EFD6  F019         	goto	u7110
  4945  0033A8                     u7111:
  4946  0033A8  EFF8  F019         	goto	l5235
  4947  0033AC                     u7110:
  4948  0033AC  C01B  F015         	movff	___fpclassifyf@u,??___fpclassifyf
  4949  0033B0  C01C  F016         	movff	___fpclassifyf@u+1,??___fpclassifyf+1
  4950  0033B4  C01D  F017         	movff	___fpclassifyf@u+2,??___fpclassifyf+2
  4951  0033B8  C01E  F018         	movff	___fpclassifyf@u+3,??___fpclassifyf+3
  4952  0033BC  0E09               	movlw	9
  4953  0033BE                     u7125:
  4954  0033BE  90D8               	bcf	status,0,c
  4955  0033C0  3615               	rlcf	??___fpclassifyf^0,f,c
  4956  0033C2  3616               	rlcf	(??___fpclassifyf+1)^0,f,c
  4957  0033C4  3617               	rlcf	(??___fpclassifyf+2)^0,f,c
  4958  0033C6  3618               	rlcf	(??___fpclassifyf+3)^0,f,c
  4959  0033C8  2EE8               	decfsz	wreg,f,c
  4960  0033CA  EFDF  F019         	goto	u7125
  4961  0033CE  5015               	movf	??___fpclassifyf^0,w,c
  4962  0033D0  1016               	iorwf	(??___fpclassifyf+1)^0,w,c
  4963  0033D2  1017               	iorwf	(??___fpclassifyf+2)^0,w,c
  4964  0033D4  1018               	iorwf	(??___fpclassifyf+3)^0,w,c
  4965  0033D6  B4D8               	btfsc	status,2,c
  4966  0033D8  EFF0  F019         	goto	u7131
  4967  0033DC  EFF3  F019         	goto	u7130
  4968  0033E0                     u7131:
  4969  0033E0  0E01               	movlw	1
  4970  0033E2  EFF4  F019         	goto	u7140
  4971  0033E6                     u7130:
  4972  0033E6  0E00               	movlw	0
  4973  0033E8                     u7140:
  4974  0033E8  6E11               	movwf	?___fpclassifyf^0,c
  4975  0033EA  6A12               	clrf	(?___fpclassifyf+1)^0,c
  4976  0033EC  EFFC  F019         	goto	l1003
  4977  0033F0                     l5235:
  4978  0033F0  0E00               	movlw	0
  4979  0033F2  6E12               	movwf	(?___fpclassifyf+1)^0,c
  4980  0033F4  0E04               	movlw	4
  4981  0033F6  6E11               	movwf	?___fpclassifyf^0,c
  4982  0033F8                     l1003:
  4983  0033F8  0012               	return		;funcret
  4984  0033FA                     __end_of___fpclassifyf:
  4985                           	callstack 0
  4986                           
  4987 ;; *************** function ___flsub *****************
  4988 ;; Defined at:
  4989 ;;		line 245 in file "E:\MPLAB\pic\sources\c99\common\sprcadd.c"
  4990 ;; Parameters:    Size  Location     Type
  4991 ;;  b               4    0[BANK0 ] int 
  4992 ;;  a               4    4[BANK0 ] int 
  4993 ;; Auto vars:     Size  Location     Type
  4994 ;;		None
  4995 ;; Return value:  Size  Location     Type
  4996 ;;                  4    0[BANK0 ] int 
  4997 ;; Registers used:
  4998 ;;		wreg, status,2, status,0, cstack
  4999 ;; Tracked objects:
  5000 ;;		On entry : 0/0
  5001 ;;		On exit  : 0/0
  5002 ;;		Unchanged: 0/0
  5003 ;; Data sizes:     COMRAM   BANK0   BANK1   BANK2   BANK3   BANK4   BANK5   BANK6   BANK7
  5004 ;;      Params:         0       8       0       0       0       0       0       0       0
  5005 ;;      Locals:         0       0       0       0       0       0       0       0       0
  5006 ;;      Temps:          0       0       0       0       0       0       0       0       0
  5007 ;;      Totals:         0       8       0       0       0       0       0       0       0
  5008 ;;Total ram usage:        8 bytes
  5009 ;; Hardware stack levels used: 1
  5010 ;; Hardware stack levels required when called: 3
  5011 ;; This function calls:
  5012 ;;		___fladd
  5013 ;; This function is called by:
  5014 ;;		_efgtoa
  5015 ;; This function uses a non-reentrant model
  5016 ;;
  5017                           
  5018                           	psect	text16
  5019  003CE4                     __ptext16:
  5020                           	callstack 0
  5021  003CE4                     ___flsub:
  5022                           	callstack 23
  5023  003CE4  0E00               	movlw	0
  5024  003CE6  0100               	movlb	0	; () banked
  5025  003CE8  1B64               	xorwf	___flsub@a& (0+255),f,b
  5026  003CEA  0E00               	movlw	0
  5027  003CEC  1B65               	xorwf	(___flsub@a+1)& (0+255),f,b
  5028  003CEE  0E00               	movlw	0
  5029  003CF0  1B66               	xorwf	(___flsub@a+2)& (0+255),f,b
  5030  003CF2  0E80               	movlw	128
  5031  003CF4  1B67               	xorwf	(___flsub@a+3)& (0+255),f,b
  5032  003CF6                     
  5033                           ; BSR set to: 0
  5034  003CF6  C060  F011         	movff	___flsub@b,___fladd@b
  5035  003CFA  C061  F012         	movff	___flsub@b+1,___fladd@b+1
  5036  003CFE  C062  F013         	movff	___flsub@b+2,___fladd@b+2
  5037  003D02  C063  F014         	movff	___flsub@b+3,___fladd@b+3
  5038  003D06  C064  F015         	movff	___flsub@a,___fladd@a
  5039  003D0A  C065  F016         	movff	___flsub@a+1,___fladd@a+1
  5040  003D0E  C066  F017         	movff	___flsub@a+2,___fladd@a+2
  5041  003D12  C067  F018         	movff	___flsub@a+3,___fladd@a+3
  5042  003D16  EC41  F00A         	call	___fladd	;wreg free
  5043  003D1A  C011  F060         	movff	?___fladd,?___flsub
  5044  003D1E  C012  F061         	movff	?___fladd+1,?___flsub+1
  5045  003D22  C013  F062         	movff	?___fladd+2,?___flsub+2
  5046  003D26  C014  F063         	movff	?___fladd+3,?___flsub+3
  5047  003D2A  0012               	return		;funcret
  5048  003D2C                     __end_of___flsub:
  5049                           	callstack 0
  5050                           
  5051 ;; *************** function ___fladd *****************
  5052 ;; Defined at:
  5053 ;;		line 10 in file "E:\MPLAB\pic\sources\c99\common\sprcadd.c"
  5054 ;; Parameters:    Size  Location     Type
  5055 ;;  b               4   16[COMRAM] int 
  5056 ;;  a               4   20[COMRAM] int 
  5057 ;; Auto vars:     Size  Location     Type
  5058 ;;  grs             1   31[COMRAM] unsigned char 
  5059 ;;  bexp            1   30[COMRAM] unsigned char 
  5060 ;;  aexp            1   29[COMRAM] unsigned char 
  5061 ;;  signs           1   28[COMRAM] unsigned char 
  5062 ;; Return value:  Size  Location     Type
  5063 ;;                  4   16[COMRAM] unsigned char 
  5064 ;; Registers used:
  5065 ;;		wreg, status,2, status,0
  5066 ;; Tracked objects:
  5067 ;;		On entry : 0/0
  5068 ;;		On exit  : 0/0
  5069 ;;		Unchanged: 0/0
  5070 ;; Data sizes:     COMRAM   BANK0   BANK1   BANK2   BANK3   BANK4   BANK5   BANK6   BANK7
  5071 ;;      Params:         8       0       0       0       0       0       0       0       0
  5072 ;;      Locals:         4       0       0       0       0       0       0       0       0
  5073 ;;      Temps:          4       0       0       0       0       0       0       0       0
  5074 ;;      Totals:        16       0       0       0       0       0       0       0       0
  5075 ;;Total ram usage:       16 bytes
  5076 ;; Hardware stack levels used: 1
  5077 ;; Hardware stack levels required when called: 2
  5078 ;; This function calls:
  5079 ;;		Nothing
  5080 ;; This function is called by:
  5081 ;;		___flsub
  5082 ;;		_efgtoa
  5083 ;; This function uses a non-reentrant model
  5084 ;;
  5085                           
  5086                           	psect	text17
  5087  001482                     __ptext17:
  5088                           	callstack 0
  5089  001482                     ___fladd:
  5090                           	callstack 23
  5091  001482  5014               	movf	(___fladd@b+3)^0,w,c
  5092  001484  0B80               	andlw	128
  5093  001486  6E1D               	movwf	___fladd@signs^0,c
  5094  001488  5014               	movf	(___fladd@b+3)^0,w,c
  5095  00148A  2414               	addwf	(___fladd@b+3)^0,w,c
  5096  00148C  6E1F               	movwf	___fladd@bexp^0,c
  5097  00148E  AE13               	btfss	(___fladd@b+2)^0,7,c
  5098  001490  EF4C  F00A         	goto	u5911
  5099  001494  EF4E  F00A         	goto	u5910
  5100  001498                     u5911:
  5101  001498  EF4F  F00A         	goto	l4527
  5102  00149C                     u5910:
  5103  00149C  801F               	bsf	___fladd@bexp^0,0,c
  5104  00149E                     l4527:
  5105  00149E  501F               	movf	___fladd@bexp^0,w,c
  5106  0014A0  B4D8               	btfsc	status,2,c
  5107  0014A2  EF55  F00A         	goto	u5921
  5108  0014A6  EF57  F00A         	goto	u5920
  5109  0014AA                     u5921:
  5110  0014AA  EF6C  F00A         	goto	l4537
  5111  0014AE                     u5920:
  5112  0014AE  281F               	incf	___fladd@bexp^0,w,c
  5113  0014B0  A4D8               	btfss	status,2,c
  5114  0014B2  EF5D  F00A         	goto	u5931
  5115  0014B6  EF5F  F00A         	goto	u5930
  5116  0014BA                     u5931:
  5117  0014BA  EF67  F00A         	goto	l4533
  5118  0014BE                     u5930:
  5119  0014BE  0E00               	movlw	0
  5120  0014C0  6E11               	movwf	___fladd@b^0,c
  5121  0014C2  0E00               	movlw	0
  5122  0014C4  6E12               	movwf	(___fladd@b+1)^0,c
  5123  0014C6  0E00               	movlw	0
  5124  0014C8  6E13               	movwf	(___fladd@b+2)^0,c
  5125  0014CA  0E00               	movlw	0
  5126  0014CC  6E14               	movwf	(___fladd@b+3)^0,c
  5127  0014CE                     l4533:
  5128  0014CE  8E13               	bsf	(___fladd@b+2)^0,7,c
  5129  0014D0  0E00               	movlw	0
  5130  0014D2  6E14               	movwf	(___fladd@b+3)^0,c
  5131  0014D4  EF74  F00A         	goto	l4539
  5132  0014D8                     l4537:
  5133  0014D8  0E00               	movlw	0
  5134  0014DA  6E11               	movwf	___fladd@b^0,c
  5135  0014DC  0E00               	movlw	0
  5136  0014DE  6E12               	movwf	(___fladd@b+1)^0,c
  5137  0014E0  0E00               	movlw	0
  5138  0014E2  6E13               	movwf	(___fladd@b+2)^0,c
  5139  0014E4  0E00               	movlw	0
  5140  0014E6  6E14               	movwf	(___fladd@b+3)^0,c
  5141  0014E8                     l4539:
  5142  0014E8  5018               	movf	(___fladd@a+3)^0,w,c
  5143  0014EA  0B80               	andlw	128
  5144  0014EC  6E1E               	movwf	___fladd@aexp^0,c
  5145  0014EE  501D               	movf	___fladd@signs^0,w,c
  5146  0014F0  181E               	xorwf	___fladd@aexp^0,w,c
  5147  0014F2  B4D8               	btfsc	status,2,c
  5148  0014F4  EF7E  F00A         	goto	u5941
  5149  0014F8  EF80  F00A         	goto	u5940
  5150  0014FC                     u5941:
  5151  0014FC  EF81  F00A         	goto	l4545
  5152  001500                     u5940:
  5153  001500  8C1D               	bsf	___fladd@signs^0,6,c
  5154  001502                     l4545:
  5155  001502  5018               	movf	(___fladd@a+3)^0,w,c
  5156  001504  2418               	addwf	(___fladd@a+3)^0,w,c
  5157  001506  6E1E               	movwf	___fladd@aexp^0,c
  5158  001508  AE17               	btfss	(___fladd@a+2)^0,7,c
  5159  00150A  EF89  F00A         	goto	u5951
  5160  00150E  EF8B  F00A         	goto	u5950
  5161  001512                     u5951:
  5162  001512  EF8C  F00A         	goto	l4551
  5163  001516                     u5950:
  5164  001516  801E               	bsf	___fladd@aexp^0,0,c
  5165  001518                     l4551:
  5166  001518  501E               	movf	___fladd@aexp^0,w,c
  5167  00151A  B4D8               	btfsc	status,2,c
  5168  00151C  EF92  F00A         	goto	u5961
  5169  001520  EF94  F00A         	goto	u5960
  5170  001524                     u5961:
  5171  001524  EFA9  F00A         	goto	l4561
  5172  001528                     u5960:
  5173  001528  281E               	incf	___fladd@aexp^0,w,c
  5174  00152A  A4D8               	btfss	status,2,c
  5175  00152C  EF9A  F00A         	goto	u5971
  5176  001530  EF9C  F00A         	goto	u5970
  5177  001534                     u5971:
  5178  001534  EFA4  F00A         	goto	l4557
  5179  001538                     u5970:
  5180  001538  0E00               	movlw	0
  5181  00153A  6E15               	movwf	___fladd@a^0,c
  5182  00153C  0E00               	movlw	0
  5183  00153E  6E16               	movwf	(___fladd@a+1)^0,c
  5184  001540  0E00               	movlw	0
  5185  001542  6E17               	movwf	(___fladd@a+2)^0,c
  5186  001544  0E00               	movlw	0
  5187  001546  6E18               	movwf	(___fladd@a+3)^0,c
  5188  001548                     l4557:
  5189  001548  8E17               	bsf	(___fladd@a+2)^0,7,c
  5190  00154A  0E00               	movlw	0
  5191  00154C  6E18               	movwf	(___fladd@a+3)^0,c
  5192  00154E  EFB1  F00A         	goto	l4563
  5193  001552                     l4561:
  5194  001552  0E00               	movlw	0
  5195  001554  6E15               	movwf	___fladd@a^0,c
  5196  001556  0E00               	movlw	0
  5197  001558  6E16               	movwf	(___fladd@a+1)^0,c
  5198  00155A  0E00               	movlw	0
  5199  00155C  6E17               	movwf	(___fladd@a+2)^0,c
  5200  00155E  0E00               	movlw	0
  5201  001560  6E18               	movwf	(___fladd@a+3)^0,c
  5202  001562                     l4563:
  5203  001562  501F               	movf	___fladd@bexp^0,w,c
  5204  001564  5C1E               	subwf	___fladd@aexp^0,w,c
  5205  001566  B0D8               	btfsc	status,0,c
  5206  001568  EFB8  F00A         	goto	u5981
  5207  00156C  EFBA  F00A         	goto	u5980
  5208  001570                     u5981:
  5209  001570  EFE1  F00A         	goto	l4599
  5210  001574                     u5980:
  5211  001574  AC1D               	btfss	___fladd@signs^0,6,c
  5212  001576  EFBF  F00A         	goto	u5991
  5213  00157A  EFC1  F00A         	goto	u5990
  5214  00157E                     u5991:
  5215  00157E  EFC3  F00A         	goto	l4569
  5216  001582                     u5990:
  5217  001582  0E80               	movlw	128
  5218  001584  1A1D               	xorwf	___fladd@signs^0,f,c
  5219  001586                     l4569:
  5220  001586  C01F  F020         	movff	___fladd@bexp,___fladd@grs
  5221  00158A  C01E  F01F         	movff	___fladd@aexp,___fladd@bexp
  5222  00158E  C020  F01E         	movff	___fladd@grs,___fladd@aexp
  5223  001592  C011  F020         	movff	___fladd@b,___fladd@grs
  5224  001596  C015  F011         	movff	___fladd@a,___fladd@b
  5225  00159A  C020  F015         	movff	___fladd@grs,___fladd@a
  5226  00159E  C012  F020         	movff	___fladd@b+1,___fladd@grs
  5227  0015A2  C016  F012         	movff	___fladd@a+1,___fladd@b+1
  5228  0015A6  C020  F016         	movff	___fladd@grs,___fladd@a+1
  5229  0015AA  C013  F020         	movff	___fladd@b+2,___fladd@grs
  5230  0015AE  C017  F013         	movff	___fladd@a+2,___fladd@b+2
  5231  0015B2  C020  F017         	movff	___fladd@grs,___fladd@a+2
  5232  0015B6  C014  F020         	movff	___fladd@b+3,___fladd@grs
  5233  0015BA  C018  F014         	movff	___fladd@a+3,___fladd@b+3
  5234  0015BE  C020  F018         	movff	___fladd@grs,___fladd@a+3
  5235  0015C2                     l4599:
  5236  0015C2  0E00               	movlw	0
  5237  0015C4  6E20               	movwf	___fladd@grs^0,c
  5238  0015C6  501F               	movf	___fladd@bexp^0,w,c
  5239  0015C8  C01E  F019         	movff	___fladd@aexp,??___fladd
  5240  0015CC  6A1A               	clrf	(??___fladd+1)^0,c
  5241  0015CE  5E19               	subwf	??___fladd^0,f,c
  5242  0015D0  0E00               	movlw	0
  5243  0015D2  5A1A               	subwfb	(??___fladd+1)^0,f,c
  5244  0015D4  BE1A               	btfsc	(??___fladd+1)^0,7,c
  5245  0015D6  EFF6  F00A         	goto	u6001
  5246  0015DA  501A               	movf	(??___fladd+1)^0,w,c
  5247  0015DC  E109               	bnz	u6000
  5248  0015DE  0E1A               	movlw	26
  5249  0015E0  5C19               	subwf	??___fladd^0,w,c
  5250  0015E2  A0D8               	btfss	status,0,c
  5251  0015E4  EFF6  F00A         	goto	u6001
  5252  0015E8  EFF8  F00A         	goto	u6000
  5253  0015EC                     u6001:
  5254  0015EC  EF2F  F00B         	goto	l674
  5255  0015F0                     u6000:
  5256  0015F0  5011               	movf	___fladd@b^0,w,c
  5257  0015F2  1012               	iorwf	(___fladd@b+1)^0,w,c
  5258  0015F4  1013               	iorwf	(___fladd@b+2)^0,w,c
  5259  0015F6  1014               	iorwf	(___fladd@b+3)^0,w,c
  5260  0015F8  A4D8               	btfss	status,2,c
  5261  0015FA  EF01  F00B         	goto	u6011
  5262  0015FE  EF04  F00B         	goto	u6010
  5263  001602                     u6011:
  5264  001602  0E01               	movlw	1
  5265  001604  EF05  F00B         	goto	u6020
  5266  001608                     u6010:
  5267  001608  0E00               	movlw	0
  5268  00160A                     u6020:
  5269  00160A  6E20               	movwf	___fladd@grs^0,c
  5270  00160C  0E00               	movlw	0
  5271  00160E  6E11               	movwf	___fladd@b^0,c
  5272  001610  0E00               	movlw	0
  5273  001612  6E12               	movwf	(___fladd@b+1)^0,c
  5274  001614  0E00               	movlw	0
  5275  001616  6E13               	movwf	(___fladd@b+2)^0,c
  5276  001618  0E00               	movlw	0
  5277  00161A  6E14               	movwf	(___fladd@b+3)^0,c
  5278  00161C  C01E  F01F         	movff	___fladd@aexp,___fladd@bexp
  5279  001620  EF38  F00B         	goto	l673
  5280  001624                     l675:
  5281  001624  A020               	btfss	___fladd@grs^0,0,c
  5282  001626  EF17  F00B         	goto	u6031
  5283  00162A  EF19  F00B         	goto	u6030
  5284  00162E                     u6031:
  5285  00162E  EF1F  F00B         	goto	l4611
  5286  001632                     u6030:
  5287  001632  90D8               	bcf	status,0,c
  5288  001634  3020               	rrcf	___fladd@grs^0,w,c
  5289  001636  0901               	iorlw	1
  5290  001638  6E20               	movwf	___fladd@grs^0,c
  5291  00163A  EF21  F00B         	goto	l4613
  5292  00163E                     l4611:
  5293  00163E  90D8               	bcf	status,0,c
  5294  001640  3220               	rrcf	___fladd@grs^0,f,c
  5295  001642                     l4613:
  5296  001642  A011               	btfss	___fladd@b^0,0,c
  5297  001644  EF26  F00B         	goto	u6041
  5298  001648  EF28  F00B         	goto	u6040
  5299  00164C                     u6041:
  5300  00164C  EF29  F00B         	goto	l4617
  5301  001650                     u6040:
  5302  001650  8E20               	bsf	___fladd@grs^0,7,c
  5303  001652                     l4617:
  5304  001652  3414               	rlcf	(___fladd@b+3)^0,w,c
  5305  001654  3214               	rrcf	(___fladd@b+3)^0,f,c
  5306  001656  3213               	rrcf	(___fladd@b+2)^0,f,c
  5307  001658  3212               	rrcf	(___fladd@b+1)^0,f,c
  5308  00165A  3211               	rrcf	___fladd@b^0,f,c
  5309  00165C  2A1F               	incf	___fladd@bexp^0,f,c
  5310  00165E                     l674:
  5311  00165E  501E               	movf	___fladd@aexp^0,w,c
  5312  001660  5C1F               	subwf	___fladd@bexp^0,w,c
  5313  001662  A0D8               	btfss	status,0,c
  5314  001664  EF36  F00B         	goto	u6051
  5315  001668  EF38  F00B         	goto	u6050
  5316  00166C                     u6051:
  5317  00166C  EF12  F00B         	goto	l675
  5318  001670                     u6050:
  5319  001670                     l673:
  5320  001670  BC1D               	btfsc	___fladd@signs^0,6,c
  5321  001672  EF3D  F00B         	goto	u6061
  5322  001676  EF3F  F00B         	goto	u6060
  5323  00167A                     u6061:
  5324  00167A  EF7F  F00B         	goto	l4645
  5325  00167E                     u6060:
  5326  00167E  501F               	movf	___fladd@bexp^0,w,c
  5327  001680  A4D8               	btfss	status,2,c
  5328  001682  EF45  F00B         	goto	u6071
  5329  001686  EF47  F00B         	goto	u6070
  5330  00168A                     u6071:
  5331  00168A  EF51  F00B         	goto	l4627
  5332  00168E                     u6070:
  5333  00168E  0E00               	movlw	0
  5334  001690  6E11               	movwf	?___fladd^0,c
  5335  001692  0E00               	movlw	0
  5336  001694  6E12               	movwf	(?___fladd+1)^0,c
  5337  001696  0E00               	movlw	0
  5338  001698  6E13               	movwf	(?___fladd+2)^0,c
  5339  00169A  0E00               	movlw	0
  5340  00169C  6E14               	movwf	(?___fladd+3)^0,c
  5341  00169E  EFA0  F00C         	goto	l682
  5342  0016A2                     l4627:
  5343  0016A2  5015               	movf	___fladd@a^0,w,c
  5344  0016A4  2611               	addwf	___fladd@b^0,f,c
  5345  0016A6  5016               	movf	(___fladd@a+1)^0,w,c
  5346  0016A8  2212               	addwfc	(___fladd@b+1)^0,f,c
  5347  0016AA  5017               	movf	(___fladd@a+2)^0,w,c
  5348  0016AC  2213               	addwfc	(___fladd@b+2)^0,f,c
  5349  0016AE  5018               	movf	(___fladd@a+3)^0,w,c
  5350  0016B0  2214               	addwfc	(___fladd@b+3)^0,f,c
  5351  0016B2  A014               	btfss	(___fladd@b+3)^0,0,c
  5352  0016B4  EF5E  F00B         	goto	u6081
  5353  0016B8  EF60  F00B         	goto	u6080
  5354  0016BC                     u6081:
  5355  0016BC  EF0C  F00C         	goto	l4681
  5356  0016C0                     u6080:
  5357  0016C0  A020               	btfss	___fladd@grs^0,0,c
  5358  0016C2  EF65  F00B         	goto	u6091
  5359  0016C6  EF67  F00B         	goto	u6090
  5360  0016CA                     u6091:
  5361  0016CA  EF6D  F00B         	goto	l4635
  5362  0016CE                     u6090:
  5363  0016CE  90D8               	bcf	status,0,c
  5364  0016D0  3020               	rrcf	___fladd@grs^0,w,c
  5365  0016D2  0901               	iorlw	1
  5366  0016D4  6E20               	movwf	___fladd@grs^0,c
  5367  0016D6  EF6F  F00B         	goto	l4637
  5368  0016DA                     l4635:
  5369  0016DA  90D8               	bcf	status,0,c
  5370  0016DC  3220               	rrcf	___fladd@grs^0,f,c
  5371  0016DE                     l4637:
  5372  0016DE  A011               	btfss	___fladd@b^0,0,c
  5373  0016E0  EF74  F00B         	goto	u6101
  5374  0016E4  EF76  F00B         	goto	u6100
  5375  0016E8                     u6101:
  5376  0016E8  EF77  F00B         	goto	l4641
  5377  0016EC                     u6100:
  5378  0016EC  8E20               	bsf	___fladd@grs^0,7,c
  5379  0016EE                     l4641:
  5380  0016EE  3414               	rlcf	(___fladd@b+3)^0,w,c
  5381  0016F0  3214               	rrcf	(___fladd@b+3)^0,f,c
  5382  0016F2  3213               	rrcf	(___fladd@b+2)^0,f,c
  5383  0016F4  3212               	rrcf	(___fladd@b+1)^0,f,c
  5384  0016F6  3211               	rrcf	___fladd@b^0,f,c
  5385  0016F8  2A1F               	incf	___fladd@bexp^0,f,c
  5386  0016FA  EF0C  F00C         	goto	l4681
  5387  0016FE                     l4645:
  5388  0016FE  5015               	movf	___fladd@a^0,w,c
  5389  001700  5C11               	subwf	___fladd@b^0,w,c
  5390  001702  5016               	movf	(___fladd@a+1)^0,w,c
  5391  001704  5812               	subwfb	(___fladd@b+1)^0,w,c
  5392  001706  5017               	movf	(___fladd@a+2)^0,w,c
  5393  001708  5813               	subwfb	(___fladd@b+2)^0,w,c
  5394  00170A  5014               	movf	(___fladd@b+3)^0,w,c
  5395  00170C  0A80               	xorlw	128
  5396  00170E  6E19               	movwf	??___fladd^0,c
  5397  001710  5018               	movf	(___fladd@a+3)^0,w,c
  5398  001712  0A80               	xorlw	128
  5399  001714  5819               	subwfb	??___fladd^0,w,c
  5400  001716  B0D8               	btfsc	status,0,c
  5401  001718  EF90  F00B         	goto	u6111
  5402  00171C  EF92  F00B         	goto	u6110
  5403  001720                     u6111:
  5404  001720  EFBD  F00B         	goto	l4655
  5405  001724                     u6110:
  5406  001724  5011               	movf	___fladd@b^0,w,c
  5407  001726  5C15               	subwf	___fladd@a^0,w,c
  5408  001728  6E19               	movwf	??___fladd^0,c
  5409  00172A  5012               	movf	(___fladd@b+1)^0,w,c
  5410  00172C  5816               	subwfb	(___fladd@a+1)^0,w,c
  5411  00172E  6E1A               	movwf	(??___fladd+1)^0,c
  5412  001730  5013               	movf	(___fladd@b+2)^0,w,c
  5413  001732  5817               	subwfb	(___fladd@a+2)^0,w,c
  5414  001734  6E1B               	movwf	(??___fladd+2)^0,c
  5415  001736  5014               	movf	(___fladd@b+3)^0,w,c
  5416  001738  5818               	subwfb	(___fladd@a+3)^0,w,c
  5417  00173A  6E1C               	movwf	(??___fladd+3)^0,c
  5418  00173C  0EFF               	movlw	255
  5419  00173E  2419               	addwf	??___fladd^0,w,c
  5420  001740  6E11               	movwf	___fladd@b^0,c
  5421  001742  0EFF               	movlw	255
  5422  001744  201A               	addwfc	(??___fladd+1)^0,w,c
  5423  001746  6E12               	movwf	(___fladd@b+1)^0,c
  5424  001748  0EFF               	movlw	255
  5425  00174A  201B               	addwfc	(??___fladd+2)^0,w,c
  5426  00174C  6E13               	movwf	(___fladd@b+2)^0,c
  5427  00174E  0EFF               	movlw	255
  5428  001750  201C               	addwfc	(??___fladd+3)^0,w,c
  5429  001752  6E14               	movwf	(___fladd@b+3)^0,c
  5430  001754  0E80               	movlw	128
  5431  001756  1A1D               	xorwf	___fladd@signs^0,f,c
  5432  001758  6C20               	negf	___fladd@grs^0,c
  5433  00175A  5020               	movf	___fladd@grs^0,w,c
  5434  00175C  A4D8               	btfss	status,2,c
  5435  00175E  EFB3  F00B         	goto	u6121
  5436  001762  EFB5  F00B         	goto	u6120
  5437  001766                     u6121:
  5438  001766  EFC5  F00B         	goto	l690
  5439  00176A                     u6120:
  5440  00176A  0E01               	movlw	1
  5441  00176C  2611               	addwf	___fladd@b^0,f,c
  5442  00176E  0E00               	movlw	0
  5443  001770  2212               	addwfc	(___fladd@b+1)^0,f,c
  5444  001772  2213               	addwfc	(___fladd@b+2)^0,f,c
  5445  001774  2214               	addwfc	(___fladd@b+3)^0,f,c
  5446  001776  EFC5  F00B         	goto	l690
  5447  00177A                     l4655:
  5448  00177A  5015               	movf	___fladd@a^0,w,c
  5449  00177C  5E11               	subwf	___fladd@b^0,f,c
  5450  00177E  5016               	movf	(___fladd@a+1)^0,w,c
  5451  001780  5A12               	subwfb	(___fladd@b+1)^0,f,c
  5452  001782  5017               	movf	(___fladd@a+2)^0,w,c
  5453  001784  5A13               	subwfb	(___fladd@b+2)^0,f,c
  5454  001786  5018               	movf	(___fladd@a+3)^0,w,c
  5455  001788  5A14               	subwfb	(___fladd@b+3)^0,f,c
  5456  00178A                     l690:
  5457  00178A  5011               	movf	___fladd@b^0,w,c
  5458  00178C  1012               	iorwf	(___fladd@b+1)^0,w,c
  5459  00178E  1013               	iorwf	(___fladd@b+2)^0,w,c
  5460  001790  1014               	iorwf	(___fladd@b+3)^0,w,c
  5461  001792  A4D8               	btfss	status,2,c
  5462  001794  EFCE  F00B         	goto	u6131
  5463  001798  EFD0  F00B         	goto	u6130
  5464  00179C                     u6131:
  5465  00179C  EF05  F00C         	goto	l4679
  5466  0017A0                     u6130:
  5467  0017A0  5020               	movf	___fladd@grs^0,w,c
  5468  0017A2  A4D8               	btfss	status,2,c
  5469  0017A4  EFD6  F00B         	goto	u6141
  5470  0017A8  EFD8  F00B         	goto	u6140
  5471  0017AC                     u6141:
  5472  0017AC  EF05  F00C         	goto	l4679
  5473  0017B0                     u6140:
  5474  0017B0  0E00               	movlw	0
  5475  0017B2  6E11               	movwf	?___fladd^0,c
  5476  0017B4  0E00               	movlw	0
  5477  0017B6  6E12               	movwf	(?___fladd+1)^0,c
  5478  0017B8  0E00               	movlw	0
  5479  0017BA  6E13               	movwf	(?___fladd+2)^0,c
  5480  0017BC  0E00               	movlw	0
  5481  0017BE  6E14               	movwf	(?___fladd+3)^0,c
  5482  0017C0  EFA0  F00C         	goto	l682
  5483  0017C4                     l4663:
  5484  0017C4  90D8               	bcf	status,0,c
  5485  0017C6  3611               	rlcf	___fladd@b^0,f,c
  5486  0017C8  3612               	rlcf	(___fladd@b+1)^0,f,c
  5487  0017CA  3613               	rlcf	(___fladd@b+2)^0,f,c
  5488  0017CC  3614               	rlcf	(___fladd@b+3)^0,f,c
  5489  0017CE  AE20               	btfss	___fladd@grs^0,7,c
  5490  0017D0  EFEC  F00B         	goto	u6151
  5491  0017D4  EFEE  F00B         	goto	u6150
  5492  0017D8                     u6151:
  5493  0017D8  EFEF  F00B         	goto	l4669
  5494  0017DC                     u6150:
  5495  0017DC  8011               	bsf	___fladd@b^0,0,c
  5496  0017DE                     l4669:
  5497  0017DE  A020               	btfss	___fladd@grs^0,0,c
  5498  0017E0  EFF4  F00B         	goto	u6161
  5499  0017E4  EFF6  F00B         	goto	u6160
  5500  0017E8                     u6161:
  5501  0017E8  EFFA  F00B         	goto	l4673
  5502  0017EC                     u6160:
  5503  0017EC  80D8               	bsf	status,0,c
  5504  0017EE  3620               	rlcf	___fladd@grs^0,f,c
  5505  0017F0  EFFC  F00B         	goto	l4675
  5506  0017F4                     l4673:
  5507  0017F4  90D8               	bcf	status,0,c
  5508  0017F6  3620               	rlcf	___fladd@grs^0,f,c
  5509  0017F8                     l4675:
  5510  0017F8  501F               	movf	___fladd@bexp^0,w,c
  5511  0017FA  B4D8               	btfsc	status,2,c
  5512  0017FC  EF02  F00C         	goto	u6171
  5513  001800  EF04  F00C         	goto	u6170
  5514  001804                     u6171:
  5515  001804  EF05  F00C         	goto	l4679
  5516  001808                     u6170:
  5517  001808  061F               	decf	___fladd@bexp^0,f,c
  5518  00180A                     l4679:
  5519  00180A  AE13               	btfss	(___fladd@b+2)^0,7,c
  5520  00180C  EF0A  F00C         	goto	u6181
  5521  001810  EF0C  F00C         	goto	u6180
  5522  001814                     u6181:
  5523  001814  EFE2  F00B         	goto	l4663
  5524  001818                     u6180:
  5525  001818                     l4681:
  5526  001818  0E00               	movlw	0
  5527  00181A  6E1E               	movwf	___fladd@aexp^0,c
  5528  00181C  AE20               	btfss	___fladd@grs^0,7,c
  5529  00181E  EF13  F00C         	goto	u6191
  5530  001822  EF15  F00C         	goto	u6190
  5531  001826                     u6191:
  5532  001826  EF2D  F00C         	goto	l699
  5533  00182A                     u6190:
  5534  00182A  C020  F019         	movff	___fladd@grs,??___fladd
  5535  00182E  0E7F               	movlw	127
  5536  001830  1619               	andwf	??___fladd^0,f,c
  5537  001832  B4D8               	btfsc	status,2,c
  5538  001834  EF1E  F00C         	goto	u6201
  5539  001838  EF20  F00C         	goto	u6200
  5540  00183C                     u6201:
  5541  00183C  EF24  F00C         	goto	l700
  5542  001840                     u6200:
  5543  001840                     l4687:
  5544  001840  0E01               	movlw	1
  5545  001842  6E1E               	movwf	___fladd@aexp^0,c
  5546  001844  EF2D  F00C         	goto	l699
  5547  001848                     l700:
  5548  001848  A011               	btfss	___fladd@b^0,0,c
  5549  00184A  EF29  F00C         	goto	u6211
  5550  00184E  EF2B  F00C         	goto	u6210
  5551  001852                     u6211:
  5552  001852  EF2D  F00C         	goto	l699
  5553  001856                     u6210:
  5554  001856  EF20  F00C         	goto	l4687
  5555  00185A                     l699:
  5556  00185A  501E               	movf	___fladd@aexp^0,w,c
  5557  00185C  B4D8               	btfsc	status,2,c
  5558  00185E  EF33  F00C         	goto	u6221
  5559  001862  EF35  F00C         	goto	u6220
  5560  001866                     u6221:
  5561  001866  EF60  F00C         	goto	l4699
  5562  00186A                     u6220:
  5563  00186A  0E01               	movlw	1
  5564  00186C  2611               	addwf	___fladd@b^0,f,c
  5565  00186E  0E00               	movlw	0
  5566  001870  2212               	addwfc	(___fladd@b+1)^0,f,c
  5567  001872  2213               	addwfc	(___fladd@b+2)^0,f,c
  5568  001874  2214               	addwfc	(___fladd@b+3)^0,f,c
  5569  001876  A014               	btfss	(___fladd@b+3)^0,0,c
  5570  001878  EF40  F00C         	goto	u6231
  5571  00187C  EF42  F00C         	goto	u6230
  5572  001880                     u6231:
  5573  001880  EF60  F00C         	goto	l4699
  5574  001884                     u6230:
  5575  001884  C011  F019         	movff	___fladd@b,??___fladd
  5576  001888  C012  F01A         	movff	___fladd@b+1,??___fladd+1
  5577  00188C  C013  F01B         	movff	___fladd@b+2,??___fladd+2
  5578  001890  C014  F01C         	movff	___fladd@b+3,??___fladd+3
  5579  001894  341C               	rlcf	(??___fladd+3)^0,w,c
  5580  001896  321C               	rrcf	(??___fladd+3)^0,f,c
  5581  001898  321B               	rrcf	(??___fladd+2)^0,f,c
  5582  00189A  321A               	rrcf	(??___fladd+1)^0,f,c
  5583  00189C  3219               	rrcf	??___fladd^0,f,c
  5584  00189E  C019  F011         	movff	??___fladd,___fladd@b
  5585  0018A2  C01A  F012         	movff	??___fladd+1,___fladd@b+1
  5586  0018A6  C01B  F013         	movff	??___fladd+2,___fladd@b+2
  5587  0018AA  C01C  F014         	movff	??___fladd+3,___fladd@b+3
  5588  0018AE  281F               	incf	___fladd@bexp^0,w,c
  5589  0018B0  B4D8               	btfsc	status,2,c
  5590  0018B2  EF5D  F00C         	goto	u6241
  5591  0018B6  EF5F  F00C         	goto	u6240
  5592  0018BA                     u6241:
  5593  0018BA  EF60  F00C         	goto	l4699
  5594  0018BE                     u6240:
  5595  0018BE  2A1F               	incf	___fladd@bexp^0,f,c
  5596  0018C0                     l4699:
  5597  0018C0  281F               	incf	___fladd@bexp^0,w,c
  5598  0018C2  B4D8               	btfsc	status,2,c
  5599  0018C4  EF66  F00C         	goto	u6251
  5600  0018C8  EF68  F00C         	goto	u6250
  5601  0018CC                     u6251:
  5602  0018CC  EF70  F00C         	goto	l4703
  5603  0018D0                     u6250:
  5604  0018D0  501F               	movf	___fladd@bexp^0,w,c
  5605  0018D2  A4D8               	btfss	status,2,c
  5606  0018D4  EF6E  F00C         	goto	u6261
  5607  0018D8  EF70  F00C         	goto	u6260
  5608  0018DC                     u6261:
  5609  0018DC  EF82  F00C         	goto	l4707
  5610  0018E0                     u6260:
  5611  0018E0                     l4703:
  5612  0018E0  0E00               	movlw	0
  5613  0018E2  6E11               	movwf	___fladd@b^0,c
  5614  0018E4  0E00               	movlw	0
  5615  0018E6  6E12               	movwf	(___fladd@b+1)^0,c
  5616  0018E8  0E00               	movlw	0
  5617  0018EA  6E13               	movwf	(___fladd@b+2)^0,c
  5618  0018EC  0E00               	movlw	0
  5619  0018EE  6E14               	movwf	(___fladd@b+3)^0,c
  5620  0018F0  501F               	movf	___fladd@bexp^0,w,c
  5621  0018F2  A4D8               	btfss	status,2,c
  5622  0018F4  EF7E  F00C         	goto	u6271
  5623  0018F8  EF80  F00C         	goto	u6270
  5624  0018FC                     u6271:
  5625  0018FC  EF82  F00C         	goto	l4707
  5626  001900                     u6270:
  5627  001900  0E00               	movlw	0
  5628  001902  6E1D               	movwf	___fladd@signs^0,c
  5629  001904                     l4707:
  5630  001904  A01F               	btfss	___fladd@bexp^0,0,c
  5631  001906  EF87  F00C         	goto	u6281
  5632  00190A  EF89  F00C         	goto	u6280
  5633  00190E                     u6281:
  5634  00190E  EF8C  F00C         	goto	l4711
  5635  001912                     u6280:
  5636  001912  8E13               	bsf	(___fladd@b+2)^0,7,c
  5637  001914  EF8D  F00C         	goto	l4713
  5638  001918                     l4711:
  5639  001918  9E13               	bcf	(___fladd@b+2)^0,7,c
  5640  00191A                     l4713:
  5641  00191A  90D8               	bcf	status,0,c
  5642  00191C  301F               	rrcf	___fladd@bexp^0,w,c
  5643  00191E  6E14               	movwf	(___fladd@b+3)^0,c
  5644  001920  AE1D               	btfss	___fladd@signs^0,7,c
  5645  001922  EF95  F00C         	goto	u6291
  5646  001926  EF97  F00C         	goto	u6290
  5647  00192A                     u6291:
  5648  00192A  EF98  F00C         	goto	l4719
  5649  00192E                     u6290:
  5650  00192E  8E14               	bsf	(___fladd@b+3)^0,7,c
  5651  001930                     l4719:
  5652  001930  C011  F011         	movff	___fladd@b,?___fladd
  5653  001934  C012  F012         	movff	___fladd@b+1,?___fladd+1
  5654  001938  C013  F013         	movff	___fladd@b+2,?___fladd+2
  5655  00193C  C014  F014         	movff	___fladd@b+3,?___fladd+3
  5656  001940                     l682:
  5657  001940  0012               	return		;funcret
  5658  001942                     __end_of___fladd:
  5659                           	callstack 0
  5660                           
  5661 ;; *************** function ___flneg *****************
  5662 ;; Defined at:
  5663 ;;		line 15 in file "E:\MPLAB\pic\sources\c99\common\flneg.c"
  5664 ;; Parameters:    Size  Location     Type
  5665 ;;  f1              4   16[COMRAM] unsigned char 
  5666 ;; Auto vars:     Size  Location     Type
  5667 ;;		None
  5668 ;; Return value:  Size  Location     Type
  5669 ;;                  4   16[COMRAM] unsigned char 
  5670 ;; Registers used:
  5671 ;;		wreg, status,2, status,0
  5672 ;; Tracked objects:
  5673 ;;		On entry : 0/0
  5674 ;;		On exit  : 0/0
  5675 ;;		Unchanged: 0/0
  5676 ;; Data sizes:     COMRAM   BANK0   BANK1   BANK2   BANK3   BANK4   BANK5   BANK6   BANK7
  5677 ;;      Params:         4       0       0       0       0       0       0       0       0
  5678 ;;      Locals:         0       0       0       0       0       0       0       0       0
  5679 ;;      Temps:          0       0       0       0       0       0       0       0       0
  5680 ;;      Totals:         4       0       0       0       0       0       0       0       0
  5681 ;;Total ram usage:        4 bytes
  5682 ;; Hardware stack levels used: 1
  5683 ;; Hardware stack levels required when called: 2
  5684 ;; This function calls:
  5685 ;;		Nothing
  5686 ;; This function is called by:
  5687 ;;		_efgtoa
  5688 ;; This function uses a non-reentrant model
  5689 ;;
  5690                           
  5691                           	psect	text18
  5692  003DA8                     __ptext18:
  5693                           	callstack 0
  5694  003DA8                     ___flneg:
  5695                           	callstack 24
  5696  003DA8  5011               	movf	___flneg@f1^0,w,c
  5697  003DAA  1012               	iorwf	(___flneg@f1+1)^0,w,c
  5698  003DAC  1013               	iorwf	(___flneg@f1+2)^0,w,c
  5699  003DAE  1014               	iorwf	(___flneg@f1+3)^0,w,c
  5700  003DB0  B4D8               	btfsc	status,2,c
  5701  003DB2  EFDD  F01E         	goto	u6961
  5702  003DB6  EFDF  F01E         	goto	u6960
  5703  003DBA                     u6961:
  5704  003DBA  EFE7  F01E         	goto	l5147
  5705  003DBE                     u6960:
  5706  003DBE  0E00               	movlw	0
  5707  003DC0  1A11               	xorwf	___flneg@f1^0,f,c
  5708  003DC2  0E00               	movlw	0
  5709  003DC4  1A12               	xorwf	(___flneg@f1+1)^0,f,c
  5710  003DC6  0E00               	movlw	0
  5711  003DC8  1A13               	xorwf	(___flneg@f1+2)^0,f,c
  5712  003DCA  0E80               	movlw	128
  5713  003DCC  1A14               	xorwf	(___flneg@f1+3)^0,f,c
  5714  003DCE                     l5147:
  5715  003DCE  C011  F011         	movff	___flneg@f1,?___flneg
  5716  003DD2  C012  F012         	movff	___flneg@f1+1,?___flneg+1
  5717  003DD6  C013  F013         	movff	___flneg@f1+2,?___flneg+2
  5718  003DDA  C014  F014         	movff	___flneg@f1+3,?___flneg+3
  5719  003DDE  0012               	return		;funcret
  5720  003DE0                     __end_of___flneg:
  5721                           	callstack 0
  5722                           
  5723 ;; *************** function ___flge *****************
  5724 ;; Defined at:
  5725 ;;		line 4 in file "E:\MPLAB\pic\sources\c99\common\flge.c"
  5726 ;; Parameters:    Size  Location     Type
  5727 ;;  ff1             4    0[BANK0 ] unsigned char 
  5728 ;;  ff2             4    4[BANK0 ] unsigned char 
  5729 ;; Auto vars:     Size  Location     Type
  5730 ;;		None
  5731 ;; Return value:  Size  Location     Type
  5732 ;;		None               void
  5733 ;; Registers used:
  5734 ;;		wreg, status,2, status,0
  5735 ;; Tracked objects:
  5736 ;;		On entry : 0/0
  5737 ;;		On exit  : 0/0
  5738 ;;		Unchanged: 0/0
  5739 ;; Data sizes:     COMRAM   BANK0   BANK1   BANK2   BANK3   BANK4   BANK5   BANK6   BANK7
  5740 ;;      Params:         0       8       0       0       0       0       0       0       0
  5741 ;;      Locals:         0       0       0       0       0       0       0       0       0
  5742 ;;      Temps:          0       4       0       0       0       0       0       0       0
  5743 ;;      Totals:         0      12       0       0       0       0       0       0       0
  5744 ;;Total ram usage:       12 bytes
  5745 ;; Hardware stack levels used: 1
  5746 ;; Hardware stack levels required when called: 2
  5747 ;; This function calls:
  5748 ;;		Nothing
  5749 ;; This function is called by:
  5750 ;;		_efgtoa
  5751 ;; This function uses a non-reentrant model
  5752 ;;
  5753                           
  5754                           	psect	text19
  5755  0031F6                     __ptext19:
  5756                           	callstack 0
  5757  0031F6                     ___flge:
  5758                           	callstack 24
  5759  0031F6  0E00               	movlw	0
  5760  0031F8  0100               	movlb	0	; () banked
  5761  0031FA  1560               	andwf	___flge@ff1& (0+255),w,b
  5762  0031FC  6F68               	movwf	??___flge& (0+255),b
  5763  0031FE  0E00               	movlw	0
  5764  003200  1561               	andwf	(___flge@ff1+1)& (0+255),w,b
  5765  003202  6F69               	movwf	(??___flge+1)& (0+255),b
  5766  003204  0E80               	movlw	128
  5767  003206  1562               	andwf	(___flge@ff1+2)& (0+255),w,b
  5768  003208  6F6A               	movwf	(??___flge+2)& (0+255),b
  5769  00320A  0E7F               	movlw	127
  5770  00320C  1563               	andwf	(___flge@ff1+3)& (0+255),w,b
  5771  00320E  6F6B               	movwf	(??___flge+3)& (0+255),b
  5772  003210  5168               	movf	??___flge& (0+255),w,b
  5773  003212  1169               	iorwf	(??___flge+1)& (0+255),w,b
  5774  003214  116A               	iorwf	(??___flge+2)& (0+255),w,b
  5775  003216  116B               	iorwf	(??___flge+3)& (0+255),w,b
  5776  003218  A4D8               	btfss	status,2,c
  5777  00321A  EF11  F019         	goto	u6911
  5778  00321E  EF13  F019         	goto	u6910
  5779  003222                     u6911:
  5780  003222  EF1B  F019         	goto	l5125
  5781  003226                     u6910:
  5782  003226                     
  5783                           ; BSR set to: 0
  5784  003226  0E00               	movlw	0
  5785  003228  6F60               	movwf	___flge@ff1& (0+255),b
  5786  00322A  0E00               	movlw	0
  5787  00322C  6F61               	movwf	(___flge@ff1+1)& (0+255),b
  5788  00322E  0E00               	movlw	0
  5789  003230  6F62               	movwf	(___flge@ff1+2)& (0+255),b
  5790  003232  0E00               	movlw	0
  5791  003234  6F63               	movwf	(___flge@ff1+3)& (0+255),b
  5792  003236                     l5125:
  5793                           
  5794                           ; BSR set to: 0
  5795  003236  0E00               	movlw	0
  5796  003238  1564               	andwf	___flge@ff2& (0+255),w,b
  5797  00323A  6F68               	movwf	??___flge& (0+255),b
  5798  00323C  0E00               	movlw	0
  5799  00323E  1565               	andwf	(___flge@ff2+1)& (0+255),w,b
  5800  003240  6F69               	movwf	(??___flge+1)& (0+255),b
  5801  003242  0E80               	movlw	128
  5802  003244  1566               	andwf	(___flge@ff2+2)& (0+255),w,b
  5803  003246  6F6A               	movwf	(??___flge+2)& (0+255),b
  5804  003248  0E7F               	movlw	127
  5805  00324A  1567               	andwf	(___flge@ff2+3)& (0+255),w,b
  5806  00324C  6F6B               	movwf	(??___flge+3)& (0+255),b
  5807  00324E  5168               	movf	??___flge& (0+255),w,b
  5808  003250  1169               	iorwf	(??___flge+1)& (0+255),w,b
  5809  003252  116A               	iorwf	(??___flge+2)& (0+255),w,b
  5810  003254  116B               	iorwf	(??___flge+3)& (0+255),w,b
  5811  003256  A4D8               	btfss	status,2,c
  5812  003258  EF30  F019         	goto	u6921
  5813  00325C  EF32  F019         	goto	u6920
  5814  003260                     u6921:
  5815  003260  EF3A  F019         	goto	l5129
  5816  003264                     u6920:
  5817  003264                     
  5818                           ; BSR set to: 0
  5819  003264  0E00               	movlw	0
  5820  003266  6F64               	movwf	___flge@ff2& (0+255),b
  5821  003268  0E00               	movlw	0
  5822  00326A  6F65               	movwf	(___flge@ff2+1)& (0+255),b
  5823  00326C  0E00               	movlw	0
  5824  00326E  6F66               	movwf	(___flge@ff2+2)& (0+255),b
  5825  003270  0E00               	movlw	0
  5826  003272  6F67               	movwf	(___flge@ff2+3)& (0+255),b
  5827  003274                     l5129:
  5828                           
  5829                           ; BSR set to: 0
  5830  003274  AF63               	btfss	(___flge@ff1+3)& (0+255),7,b
  5831  003276  EF3F  F019         	goto	u6931
  5832  00327A  EF41  F019         	goto	u6930
  5833  00327E                     u6931:
  5834  00327E  EF4A  F019         	goto	l5133
  5835  003282                     u6930:
  5836  003282                     
  5837                           ; BSR set to: 0
  5838  003282  6D60               	negf	___flge@ff1& (0+255),b
  5839  003284  1F61               	comf	(___flge@ff1+1)& (0+255),f,b
  5840  003286  B0D8               	btfsc	status,0,c
  5841  003288  2B61               	incf	(___flge@ff1+1)& (0+255),f,b
  5842  00328A  1F62               	comf	(___flge@ff1+2)& (0+255),f,b
  5843  00328C  B0D8               	btfsc	status,0,c
  5844  00328E  2B62               	incf	(___flge@ff1+2)& (0+255),f,b
  5845  003290  0E80               	movlw	128
  5846  003292  5763               	subfwb	(___flge@ff1+3)& (0+255),f,b
  5847  003294                     l5133:
  5848                           
  5849                           ; BSR set to: 0
  5850  003294  AF67               	btfss	(___flge@ff2+3)& (0+255),7,b
  5851  003296  EF4F  F019         	goto	u6941
  5852  00329A  EF51  F019         	goto	u6940
  5853  00329E                     u6941:
  5854  00329E  EF5A  F019         	goto	l410
  5855  0032A2                     u6940:
  5856  0032A2                     
  5857                           ; BSR set to: 0
  5858  0032A2  6D64               	negf	___flge@ff2& (0+255),b
  5859  0032A4  1F65               	comf	(___flge@ff2+1)& (0+255),f,b
  5860  0032A6  B0D8               	btfsc	status,0,c
  5861  0032A8  2B65               	incf	(___flge@ff2+1)& (0+255),f,b
  5862  0032AA  1F66               	comf	(___flge@ff2+2)& (0+255),f,b
  5863  0032AC  B0D8               	btfsc	status,0,c
  5864  0032AE  2B66               	incf	(___flge@ff2+2)& (0+255),f,b
  5865  0032B0  0E80               	movlw	128
  5866  0032B2  5767               	subfwb	(___flge@ff2+3)& (0+255),f,b
  5867  0032B4                     l410:
  5868                           
  5869                           ; BSR set to: 0
  5870  0032B4  0E00               	movlw	0
  5871  0032B6  1B60               	xorwf	___flge@ff1& (0+255),f,b
  5872  0032B8  0E00               	movlw	0
  5873  0032BA  1B61               	xorwf	(___flge@ff1+1)& (0+255),f,b
  5874  0032BC  0E00               	movlw	0
  5875  0032BE  1B62               	xorwf	(___flge@ff1+2)& (0+255),f,b
  5876  0032C0  0E80               	movlw	128
  5877  0032C2  1B63               	xorwf	(___flge@ff1+3)& (0+255),f,b
  5878  0032C4  0E00               	movlw	0
  5879  0032C6  1B64               	xorwf	___flge@ff2& (0+255),f,b
  5880  0032C8  0E00               	movlw	0
  5881  0032CA  1B65               	xorwf	(___flge@ff2+1)& (0+255),f,b
  5882  0032CC  0E00               	movlw	0
  5883  0032CE  1B66               	xorwf	(___flge@ff2+2)& (0+255),f,b
  5884  0032D0  0E80               	movlw	128
  5885  0032D2  1B67               	xorwf	(___flge@ff2+3)& (0+255),f,b
  5886  0032D4  5164               	movf	___flge@ff2& (0+255),w,b
  5887  0032D6  5D60               	subwf	___flge@ff1& (0+255),w,b
  5888  0032D8  5165               	movf	(___flge@ff2+1)& (0+255),w,b
  5889  0032DA  5961               	subwfb	(___flge@ff1+1)& (0+255),w,b
  5890  0032DC  5166               	movf	(___flge@ff2+2)& (0+255),w,b
  5891  0032DE  5962               	subwfb	(___flge@ff1+2)& (0+255),w,b
  5892  0032E0  5167               	movf	(___flge@ff2+3)& (0+255),w,b
  5893  0032E2  5963               	subwfb	(___flge@ff1+3)& (0+255),w,b
  5894  0032E4  B0D8               	btfsc	status,0,c
  5895  0032E6  EF77  F019         	goto	u6951
  5896  0032EA  EF79  F019         	goto	u6950
  5897  0032EE                     u6951:
  5898  0032EE  EF7C  F019         	goto	l5139
  5899  0032F2                     u6950:
  5900  0032F2                     
  5901                           ; BSR set to: 0
  5902  0032F2  90D8               	bcf	status,0,c
  5903  0032F4  EF7D  F019         	goto	l415
  5904  0032F8                     l5139:
  5905                           
  5906                           ; BSR set to: 0
  5907  0032F8  80D8               	bsf	status,0,c
  5908  0032FA                     l415:
  5909                           
  5910                           ; BSR set to: 0
  5911  0032FA  0012               	return		;funcret
  5912  0032FC                     __end_of___flge:
  5913                           	callstack 0
  5914                           
  5915 ;; *************** function ___fleq *****************
  5916 ;; Defined at:
  5917 ;;		line 4 in file "E:\MPLAB\pic\sources\c99\common\fleq.c"
  5918 ;; Parameters:    Size  Location     Type
  5919 ;;  ff1             4   16[COMRAM] unsigned char 
  5920 ;;  ff2             4   20[COMRAM] unsigned char 
  5921 ;; Auto vars:     Size  Location     Type
  5922 ;;		None
  5923 ;; Return value:  Size  Location     Type
  5924 ;;		None               void
  5925 ;; Registers used:
  5926 ;;		wreg, status,2, status,0
  5927 ;; Tracked objects:
  5928 ;;		On entry : 0/0
  5929 ;;		On exit  : 0/0
  5930 ;;		Unchanged: 0/0
  5931 ;; Data sizes:     COMRAM   BANK0   BANK1   BANK2   BANK3   BANK4   BANK5   BANK6   BANK7
  5932 ;;      Params:         8       0       0       0       0       0       0       0       0
  5933 ;;      Locals:         0       0       0       0       0       0       0       0       0
  5934 ;;      Temps:          4       0       0       0       0       0       0       0       0
  5935 ;;      Totals:        12       0       0       0       0       0       0       0       0
  5936 ;;Total ram usage:       12 bytes
  5937 ;; Hardware stack levels used: 1
  5938 ;; Hardware stack levels required when called: 2
  5939 ;; This function calls:
  5940 ;;		Nothing
  5941 ;; This function is called by:
  5942 ;;		_efgtoa
  5943 ;; This function uses a non-reentrant model
  5944 ;;
  5945                           
  5946                           	psect	text20
  5947  0037D0                     __ptext20:
  5948                           	callstack 0
  5949  0037D0                     ___fleq:
  5950                           	callstack 24
  5951  0037D0  0E00               	movlw	0
  5952  0037D2  1411               	andwf	___fleq@ff1^0,w,c
  5953  0037D4  6E19               	movwf	??___fleq^0,c
  5954  0037D6  0E00               	movlw	0
  5955  0037D8  1412               	andwf	(___fleq@ff1+1)^0,w,c
  5956  0037DA  6E1A               	movwf	(??___fleq+1)^0,c
  5957  0037DC  0E80               	movlw	128
  5958  0037DE  1413               	andwf	(___fleq@ff1+2)^0,w,c
  5959  0037E0  6E1B               	movwf	(??___fleq+2)^0,c
  5960  0037E2  0E7F               	movlw	127
  5961  0037E4  1414               	andwf	(___fleq@ff1+3)^0,w,c
  5962  0037E6  6E1C               	movwf	(??___fleq+3)^0,c
  5963  0037E8  5019               	movf	??___fleq^0,w,c
  5964  0037EA  101A               	iorwf	(??___fleq+1)^0,w,c
  5965  0037EC  101B               	iorwf	(??___fleq+2)^0,w,c
  5966  0037EE  101C               	iorwf	(??___fleq+3)^0,w,c
  5967  0037F0  A4D8               	btfss	status,2,c
  5968  0037F2  EFFD  F01B         	goto	u6881
  5969  0037F6  EFFF  F01B         	goto	u6880
  5970  0037FA                     u6881:
  5971  0037FA  EF07  F01C         	goto	l5109
  5972  0037FE                     u6880:
  5973  0037FE  0E00               	movlw	0
  5974  003800  6E11               	movwf	___fleq@ff1^0,c
  5975  003802  0E00               	movlw	0
  5976  003804  6E12               	movwf	(___fleq@ff1+1)^0,c
  5977  003806  0E00               	movlw	0
  5978  003808  6E13               	movwf	(___fleq@ff1+2)^0,c
  5979  00380A  0E00               	movlw	0
  5980  00380C  6E14               	movwf	(___fleq@ff1+3)^0,c
  5981  00380E                     l5109:
  5982  00380E  0E00               	movlw	0
  5983  003810  1415               	andwf	___fleq@ff2^0,w,c
  5984  003812  6E19               	movwf	??___fleq^0,c
  5985  003814  0E00               	movlw	0
  5986  003816  1416               	andwf	(___fleq@ff2+1)^0,w,c
  5987  003818  6E1A               	movwf	(??___fleq+1)^0,c
  5988  00381A  0E80               	movlw	128
  5989  00381C  1417               	andwf	(___fleq@ff2+2)^0,w,c
  5990  00381E  6E1B               	movwf	(??___fleq+2)^0,c
  5991  003820  0E7F               	movlw	127
  5992  003822  1418               	andwf	(___fleq@ff2+3)^0,w,c
  5993  003824  6E1C               	movwf	(??___fleq+3)^0,c
  5994  003826  5019               	movf	??___fleq^0,w,c
  5995  003828  101A               	iorwf	(??___fleq+1)^0,w,c
  5996  00382A  101B               	iorwf	(??___fleq+2)^0,w,c
  5997  00382C  101C               	iorwf	(??___fleq+3)^0,w,c
  5998  00382E  A4D8               	btfss	status,2,c
  5999  003830  EF1C  F01C         	goto	u6891
  6000  003834  EF1E  F01C         	goto	u6890
  6001  003838                     u6891:
  6002  003838  EF26  F01C         	goto	l5113
  6003  00383C                     u6890:
  6004  00383C  0E00               	movlw	0
  6005  00383E  6E15               	movwf	___fleq@ff2^0,c
  6006  003840  0E00               	movlw	0
  6007  003842  6E16               	movwf	(___fleq@ff2+1)^0,c
  6008  003844  0E00               	movlw	0
  6009  003846  6E17               	movwf	(___fleq@ff2+2)^0,c
  6010  003848  0E00               	movlw	0
  6011  00384A  6E18               	movwf	(___fleq@ff2+3)^0,c
  6012  00384C                     l5113:
  6013  00384C  5015               	movf	___fleq@ff2^0,w,c
  6014  00384E  1811               	xorwf	___fleq@ff1^0,w,c
  6015  003850  E10F               	bnz	u6900
  6016  003852  5016               	movf	(___fleq@ff2+1)^0,w,c
  6017  003854  1812               	xorwf	(___fleq@ff1+1)^0,w,c
  6018  003856  E10C               	bnz	u6900
  6019  003858  5017               	movf	(___fleq@ff2+2)^0,w,c
  6020  00385A  1813               	xorwf	(___fleq@ff1+2)^0,w,c
  6021  00385C  E109               	bnz	u6900
  6022  00385E  5018               	movf	(___fleq@ff2+3)^0,w,c
  6023  003860  1814               	xorwf	(___fleq@ff1+3)^0,w,c
  6024  003862  B4D8               	btfsc	status,2,c
  6025  003864  EF36  F01C         	goto	u6901
  6026  003868  EF38  F01C         	goto	u6900
  6027  00386C                     u6901:
  6028  00386C  EF3B  F01C         	goto	l5117
  6029  003870                     u6900:
  6030  003870  90D8               	bcf	status,0,c
  6031  003872  EF3C  F01C         	goto	l404
  6032  003876                     l5117:
  6033  003876  80D8               	bsf	status,0,c
  6034  003878                     l404:
  6035  003878  0012               	return		;funcret
  6036  00387A                     __end_of___fleq:
  6037                           	callstack 0
  6038                           
  6039 ;; *************** function ___awmod *****************
  6040 ;; Defined at:
  6041 ;;		line 7 in file "E:\MPLAB\pic\sources\c99\common\awmod.c"
  6042 ;; Parameters:    Size  Location     Type
  6043 ;;  dividend        2   16[COMRAM] int 
  6044 ;;  divisor         2   18[COMRAM] int 
  6045 ;; Auto vars:     Size  Location     Type
  6046 ;;  sign            1   21[COMRAM] unsigned char 
  6047 ;;  counter         1   20[COMRAM] unsigned char 
  6048 ;; Return value:  Size  Location     Type
  6049 ;;                  2   16[COMRAM] int 
  6050 ;; Registers used:
  6051 ;;		wreg, status,2, status,0
  6052 ;; Tracked objects:
  6053 ;;		On entry : 0/0
  6054 ;;		On exit  : 0/0
  6055 ;;		Unchanged: 0/0
  6056 ;; Data sizes:     COMRAM   BANK0   BANK1   BANK2   BANK3   BANK4   BANK5   BANK6   BANK7
  6057 ;;      Params:         4       0       0       0       0       0       0       0       0
  6058 ;;      Locals:         2       0       0       0       0       0       0       0       0
  6059 ;;      Temps:          0       0       0       0       0       0       0       0       0
  6060 ;;      Totals:         6       0       0       0       0       0       0       0       0
  6061 ;;Total ram usage:        6 bytes
  6062 ;; Hardware stack levels used: 1
  6063 ;; Hardware stack levels required when called: 2
  6064 ;; This function calls:
  6065 ;;		Nothing
  6066 ;; This function is called by:
  6067 ;;		_efgtoa
  6068 ;; This function uses a non-reentrant model
  6069 ;;
  6070                           
  6071                           	psect	text21
  6072  003720                     __ptext21:
  6073                           	callstack 0
  6074  003720                     ___awmod:
  6075                           	callstack 24
  6076  003720  0E00               	movlw	0
  6077  003722  6E16               	movwf	___awmod@sign^0,c
  6078  003724  BE12               	btfsc	(___awmod@dividend+1)^0,7,c
  6079  003726  EF99  F01B         	goto	u6820
  6080  00372A  EF97  F01B         	goto	u6821
  6081  00372E                     u6821:
  6082  00372E  EF9F  F01B         	goto	l5077
  6083  003732                     u6820:
  6084  003732  6C11               	negf	___awmod@dividend^0,c
  6085  003734  1E12               	comf	(___awmod@dividend+1)^0,f,c
  6086  003736  B0D8               	btfsc	status,0,c
  6087  003738  2A12               	incf	(___awmod@dividend+1)^0,f,c
  6088  00373A  0E01               	movlw	1
  6089  00373C  6E16               	movwf	___awmod@sign^0,c
  6090  00373E                     l5077:
  6091  00373E  BE14               	btfsc	(___awmod@divisor+1)^0,7,c
  6092  003740  EFA6  F01B         	goto	u6830
  6093  003744  EFA4  F01B         	goto	u6831
  6094  003748                     u6831:
  6095  003748  EFAA  F01B         	goto	l5081
  6096  00374C                     u6830:
  6097  00374C  6C13               	negf	___awmod@divisor^0,c
  6098  00374E  1E14               	comf	(___awmod@divisor+1)^0,f,c
  6099  003750  B0D8               	btfsc	status,0,c
  6100  003752  2A14               	incf	(___awmod@divisor+1)^0,f,c
  6101  003754                     l5081:
  6102  003754  5013               	movf	___awmod@divisor^0,w,c
  6103  003756  1014               	iorwf	(___awmod@divisor+1)^0,w,c
  6104  003758  B4D8               	btfsc	status,2,c
  6105  00375A  EFB1  F01B         	goto	u6841
  6106  00375E  EFB3  F01B         	goto	u6840
  6107  003762                     u6841:
  6108  003762  EFD7  F01B         	goto	l5097
  6109  003766                     u6840:
  6110  003766  0E01               	movlw	1
  6111  003768  6E15               	movwf	___awmod@counter^0,c
  6112  00376A  EFBB  F01B         	goto	l5087
  6113  00376E                     l5085:
  6114  00376E  90D8               	bcf	status,0,c
  6115  003770  3613               	rlcf	___awmod@divisor^0,f,c
  6116  003772  3614               	rlcf	(___awmod@divisor+1)^0,f,c
  6117  003774  2A15               	incf	___awmod@counter^0,f,c
  6118  003776                     l5087:
  6119  003776  AE14               	btfss	(___awmod@divisor+1)^0,7,c
  6120  003778  EFC0  F01B         	goto	u6851
  6121  00377C  EFC2  F01B         	goto	u6850
  6122  003780                     u6851:
  6123  003780  EFB7  F01B         	goto	l5085
  6124  003784                     u6850:
  6125  003784                     l5089:
  6126  003784  5013               	movf	___awmod@divisor^0,w,c
  6127  003786  5C11               	subwf	___awmod@dividend^0,w,c
  6128  003788  5014               	movf	(___awmod@divisor+1)^0,w,c
  6129  00378A  5812               	subwfb	(___awmod@dividend+1)^0,w,c
  6130  00378C  A0D8               	btfss	status,0,c
  6131  00378E  EFCB  F01B         	goto	u6861
  6132  003792  EFCD  F01B         	goto	u6860
  6133  003796                     u6861:
  6134  003796  EFD1  F01B         	goto	l5093
  6135  00379A                     u6860:
  6136  00379A  5013               	movf	___awmod@divisor^0,w,c
  6137  00379C  5E11               	subwf	___awmod@dividend^0,f,c
  6138  00379E  5014               	movf	(___awmod@divisor+1)^0,w,c
  6139  0037A0  5A12               	subwfb	(___awmod@dividend+1)^0,f,c
  6140  0037A2                     l5093:
  6141  0037A2  90D8               	bcf	status,0,c
  6142  0037A4  3214               	rrcf	(___awmod@divisor+1)^0,f,c
  6143  0037A6  3213               	rrcf	___awmod@divisor^0,f,c
  6144  0037A8  2E15               	decfsz	___awmod@counter^0,f,c
  6145  0037AA  EFC2  F01B         	goto	l5089
  6146  0037AE                     l5097:
  6147  0037AE  5016               	movf	___awmod@sign^0,w,c
  6148  0037B0  B4D8               	btfsc	status,2,c
  6149  0037B2  EFDD  F01B         	goto	u6871
  6150  0037B6  EFDF  F01B         	goto	u6870
  6151  0037BA                     u6871:
  6152  0037BA  EFE3  F01B         	goto	l5101
  6153  0037BE                     u6870:
  6154  0037BE  6C11               	negf	___awmod@dividend^0,c
  6155  0037C0  1E12               	comf	(___awmod@dividend+1)^0,f,c
  6156  0037C2  B0D8               	btfsc	status,0,c
  6157  0037C4  2A12               	incf	(___awmod@dividend+1)^0,f,c
  6158  0037C6                     l5101:
  6159  0037C6  C011  F011         	movff	___awmod@dividend,?___awmod
  6160  0037CA  C012  F012         	movff	___awmod@dividend+1,?___awmod+1
  6161  0037CE  0012               	return		;funcret
  6162  0037D0                     __end_of___awmod:
  6163                           	callstack 0
  6164                           
  6165 ;; *************** function ___awdiv *****************
  6166 ;; Defined at:
  6167 ;;		line 7 in file "E:\MPLAB\pic\sources\c99\common\awdiv.c"
  6168 ;; Parameters:    Size  Location     Type
  6169 ;;  dividend        2   16[COMRAM] int 
  6170 ;;  divisor         2   18[COMRAM] int 
  6171 ;; Auto vars:     Size  Location     Type
  6172 ;;  quotient        2   22[COMRAM] int 
  6173 ;;  sign            1   21[COMRAM] unsigned char 
  6174 ;;  counter         1   20[COMRAM] unsigned char 
  6175 ;; Return value:  Size  Location     Type
  6176 ;;                  2   16[COMRAM] int 
  6177 ;; Registers used:
  6178 ;;		wreg, status,2, status,0
  6179 ;; Tracked objects:
  6180 ;;		On entry : 0/0
  6181 ;;		On exit  : 0/0
  6182 ;;		Unchanged: 0/0
  6183 ;; Data sizes:     COMRAM   BANK0   BANK1   BANK2   BANK3   BANK4   BANK5   BANK6   BANK7
  6184 ;;      Params:         4       0       0       0       0       0       0       0       0
  6185 ;;      Locals:         4       0       0       0       0       0       0       0       0
  6186 ;;      Temps:          0       0       0       0       0       0       0       0       0
  6187 ;;      Totals:         8       0       0       0       0       0       0       0       0
  6188 ;;Total ram usage:        8 bytes
  6189 ;; Hardware stack levels used: 1
  6190 ;; Hardware stack levels required when called: 2
  6191 ;; This function calls:
  6192 ;;		Nothing
  6193 ;; This function is called by:
  6194 ;;		_efgtoa
  6195 ;; This function uses a non-reentrant model
  6196 ;;
  6197                           
  6198                           	psect	text22
  6199  00359A                     __ptext22:
  6200                           	callstack 0
  6201  00359A                     ___awdiv:
  6202                           	callstack 24
  6203  00359A  0E00               	movlw	0
  6204  00359C  6E16               	movwf	___awdiv@sign^0,c
  6205  00359E  BE14               	btfsc	(___awdiv@divisor+1)^0,7,c
  6206  0035A0  EFD6  F01A         	goto	u6760
  6207  0035A4  EFD4  F01A         	goto	u6761
  6208  0035A8                     u6761:
  6209  0035A8  EFDC  F01A         	goto	l5033
  6210  0035AC                     u6760:
  6211  0035AC  6C13               	negf	___awdiv@divisor^0,c
  6212  0035AE  1E14               	comf	(___awdiv@divisor+1)^0,f,c
  6213  0035B0  B0D8               	btfsc	status,0,c
  6214  0035B2  2A14               	incf	(___awdiv@divisor+1)^0,f,c
  6215  0035B4  0E01               	movlw	1
  6216  0035B6  6E16               	movwf	___awdiv@sign^0,c
  6217  0035B8                     l5033:
  6218  0035B8  BE12               	btfsc	(___awdiv@dividend+1)^0,7,c
  6219  0035BA  EFE3  F01A         	goto	u6770
  6220  0035BE  EFE1  F01A         	goto	u6771
  6221  0035C2                     u6771:
  6222  0035C2  EFE9  F01A         	goto	l5039
  6223  0035C6                     u6770:
  6224  0035C6  6C11               	negf	___awdiv@dividend^0,c
  6225  0035C8  1E12               	comf	(___awdiv@dividend+1)^0,f,c
  6226  0035CA  B0D8               	btfsc	status,0,c
  6227  0035CC  2A12               	incf	(___awdiv@dividend+1)^0,f,c
  6228  0035CE  0E01               	movlw	1
  6229  0035D0  1A16               	xorwf	___awdiv@sign^0,f,c
  6230  0035D2                     l5039:
  6231  0035D2  0E00               	movlw	0
  6232  0035D4  6E18               	movwf	(___awdiv@quotient+1)^0,c
  6233  0035D6  0E00               	movlw	0
  6234  0035D8  6E17               	movwf	___awdiv@quotient^0,c
  6235  0035DA  5013               	movf	___awdiv@divisor^0,w,c
  6236  0035DC  1014               	iorwf	(___awdiv@divisor+1)^0,w,c
  6237  0035DE  B4D8               	btfsc	status,2,c
  6238  0035E0  EFF4  F01A         	goto	u6781
  6239  0035E4  EFF6  F01A         	goto	u6780
  6240  0035E8                     u6781:
  6241  0035E8  EF1E  F01B         	goto	l5061
  6242  0035EC                     u6780:
  6243  0035EC  0E01               	movlw	1
  6244  0035EE  6E15               	movwf	___awdiv@counter^0,c
  6245  0035F0  EFFE  F01A         	goto	l5047
  6246  0035F4                     l5045:
  6247  0035F4  90D8               	bcf	status,0,c
  6248  0035F6  3613               	rlcf	___awdiv@divisor^0,f,c
  6249  0035F8  3614               	rlcf	(___awdiv@divisor+1)^0,f,c
  6250  0035FA  2A15               	incf	___awdiv@counter^0,f,c
  6251  0035FC                     l5047:
  6252  0035FC  AE14               	btfss	(___awdiv@divisor+1)^0,7,c
  6253  0035FE  EF03  F01B         	goto	u6791
  6254  003602  EF05  F01B         	goto	u6790
  6255  003606                     u6791:
  6256  003606  EFFA  F01A         	goto	l5045
  6257  00360A                     u6790:
  6258  00360A                     l5049:
  6259  00360A  90D8               	bcf	status,0,c
  6260  00360C  3617               	rlcf	___awdiv@quotient^0,f,c
  6261  00360E  3618               	rlcf	(___awdiv@quotient+1)^0,f,c
  6262  003610  5013               	movf	___awdiv@divisor^0,w,c
  6263  003612  5C11               	subwf	___awdiv@dividend^0,w,c
  6264  003614  5014               	movf	(___awdiv@divisor+1)^0,w,c
  6265  003616  5812               	subwfb	(___awdiv@dividend+1)^0,w,c
  6266  003618  A0D8               	btfss	status,0,c
  6267  00361A  EF11  F01B         	goto	u6801
  6268  00361E  EF13  F01B         	goto	u6800
  6269  003622                     u6801:
  6270  003622  EF18  F01B         	goto	l5057
  6271  003626                     u6800:
  6272  003626  5013               	movf	___awdiv@divisor^0,w,c
  6273  003628  5E11               	subwf	___awdiv@dividend^0,f,c
  6274  00362A  5014               	movf	(___awdiv@divisor+1)^0,w,c
  6275  00362C  5A12               	subwfb	(___awdiv@dividend+1)^0,f,c
  6276  00362E  8017               	bsf	___awdiv@quotient^0,0,c
  6277  003630                     l5057:
  6278  003630  90D8               	bcf	status,0,c
  6279  003632  3214               	rrcf	(___awdiv@divisor+1)^0,f,c
  6280  003634  3213               	rrcf	___awdiv@divisor^0,f,c
  6281  003636  2E15               	decfsz	___awdiv@counter^0,f,c
  6282  003638  EF05  F01B         	goto	l5049
  6283  00363C                     l5061:
  6284  00363C  5016               	movf	___awdiv@sign^0,w,c
  6285  00363E  B4D8               	btfsc	status,2,c
  6286  003640  EF24  F01B         	goto	u6811
  6287  003644  EF26  F01B         	goto	u6810
  6288  003648                     u6811:
  6289  003648  EF2A  F01B         	goto	l5065
  6290  00364C                     u6810:
  6291  00364C  6C17               	negf	___awdiv@quotient^0,c
  6292  00364E  1E18               	comf	(___awdiv@quotient+1)^0,f,c
  6293  003650  B0D8               	btfsc	status,0,c
  6294  003652  2A18               	incf	(___awdiv@quotient+1)^0,f,c
  6295  003654                     l5065:
  6296  003654  C017  F011         	movff	___awdiv@quotient,?___awdiv
  6297  003658  C018  F012         	movff	___awdiv@quotient+1,?___awdiv+1
  6298  00365C  0012               	return		;funcret
  6299  00365E                     __end_of___awdiv:
  6300                           	callstack 0
  6301                           
  6302 ;; *************** function _atoi *****************
  6303 ;; Defined at:
  6304 ;;		line 4 in file "E:\MPLAB\pic\sources\c99\common\atoi.c"
  6305 ;; Parameters:    Size  Location     Type
  6306 ;;  s               2   23[COMRAM] PTR const unsigned char 
  6307 ;;		 -> STR_1(12), 
  6308 ;; Auto vars:     Size  Location     Type
  6309 ;;  n               2   36[COMRAM] int 
  6310 ;;  neg             2   29[COMRAM] int 
  6311 ;; Return value:  Size  Location     Type
  6312 ;;                  2   23[COMRAM] int 
  6313 ;; Registers used:
  6314 ;;		wreg, status,2, status,0, tblptrl, tblptrh, tblptru, prodl, prodh, cstack
  6315 ;; Tracked objects:
  6316 ;;		On entry : 0/0
  6317 ;;		On exit  : 0/0
  6318 ;;		Unchanged: 0/0
  6319 ;; Data sizes:     COMRAM   BANK0   BANK1   BANK2   BANK3   BANK4   BANK5   BANK6   BANK7
  6320 ;;      Params:         2       0       0       0       0       0       0       0       0
  6321 ;;      Locals:         9       0       0       0       0       0       0       0       0
  6322 ;;      Temps:          4       0       0       0       0       0       0       0       0
  6323 ;;      Totals:        15       0       0       0       0       0       0       0       0
  6324 ;;Total ram usage:       15 bytes
  6325 ;; Hardware stack levels used: 1
  6326 ;; Hardware stack levels required when called: 3
  6327 ;; This function calls:
  6328 ;;		___wmul
  6329 ;;		_isdigit
  6330 ;;		_isspace
  6331 ;; This function is called by:
  6332 ;;		_vfpfcnvrt
  6333 ;; This function uses a non-reentrant model
  6334 ;;
  6335                           
  6336                           	psect	text23
  6337  002E00                     __ptext23:
  6338                           	callstack 0
  6339  002E00                     _atoi:
  6340                           	callstack 24
  6341  002E00  0E00               	movlw	0
  6342  002E02  6E26               	movwf	(atoi@n+1)^0,c
  6343  002E04  0E00               	movlw	0
  6344  002E06  6E25               	movwf	atoi@n^0,c
  6345  002E08  0E00               	movlw	0
  6346  002E0A  6E1F               	movwf	(atoi@neg+1)^0,c
  6347  002E0C  0E00               	movlw	0
  6348  002E0E  6E1E               	movwf	atoi@neg^0,c
  6349  002E10  EF0C  F017         	goto	l5609
  6350  002E14                     l5607:
  6351  002E14  4A18               	infsnz	atoi@s^0,f,c
  6352  002E16  2A19               	incf	(atoi@s+1)^0,f,c
  6353  002E18                     l5609:
  6354  002E18  0E01               	movlw	1
  6355  002E1A  6E24               	movwf	_atoi$1389^0,c
  6356  002E1C  C018  FFF6         	movff	atoi@s,tblptrl
  6357  002E20  C019  FFF7         	movff	atoi@s+1,tblptrh
  6358  002E24                     	if	0	;tblptru may be non-zero
  6359  002E24                     	endif
  6360  002E24                     	if	0	;tblptru may be non-zero
  6361  002E24                     	endif
  6362  002E24  0008               	tblrd		*
  6363  002E26  50F5               	movf	tablat,w,c
  6364  002E28  0A20               	xorlw	32
  6365  002E2A  B4D8               	btfsc	status,2,c
  6366  002E2C  EF1A  F017         	goto	u7881
  6367  002E30  EF1C  F017         	goto	u7880
  6368  002E34                     u7881:
  6369  002E34  EF39  F017         	goto	l5617
  6370  002E38                     u7880:
  6371  002E38  0EF7               	movlw	247
  6372  002E3A  6E1A               	movwf	??_atoi^0,c
  6373  002E3C  0EFF               	movlw	255
  6374  002E3E  6E1B               	movwf	(??_atoi+1)^0,c
  6375  002E40  C018  FFF6         	movff	atoi@s,tblptrl
  6376  002E44  C019  FFF7         	movff	atoi@s+1,tblptrh
  6377  002E48                     	if	0	;tblptru may be non-zero
  6378  002E48                     	endif
  6379  002E48                     	if	0	;tblptru may be non-zero
  6380  002E48                     	endif
  6381  002E48  0008               	tblrd		*
  6382  002E4A  50F5               	movf	tablat,w,c
  6383  002E4C  6E1C               	movwf	(??_atoi+2)^0,c
  6384  002E4E  6A1D               	clrf	(??_atoi+3)^0,c
  6385  002E50  501A               	movf	??_atoi^0,w,c
  6386  002E52  261C               	addwf	(??_atoi+2)^0,f,c
  6387  002E54  501B               	movf	(??_atoi+1)^0,w,c
  6388  002E56  221D               	addwfc	(??_atoi+3)^0,f,c
  6389  002E58  501D               	movf	(??_atoi+3)^0,w,c
  6390  002E5A  E109               	bnz	u7890
  6391  002E5C  0E05               	movlw	5
  6392  002E5E  5C1C               	subwf	(??_atoi+2)^0,w,c
  6393  002E60  A0D8               	btfss	status,0,c
  6394  002E62  EF35  F017         	goto	u7891
  6395  002E66  EF37  F017         	goto	u7890
  6396  002E6A                     u7891:
  6397  002E6A  EF39  F017         	goto	l5617
  6398  002E6E                     u7890:
  6399  002E6E  0E00               	movlw	0
  6400  002E70  6E24               	movwf	_atoi$1389^0,c
  6401  002E72                     l5617:
  6402  002E72  C024  F020         	movff	_atoi$1389,_atoi$1388
  6403  002E76  6A21               	clrf	(_atoi$1388+1)^0,c
  6404  002E78  5020               	movf	_atoi$1388^0,w,c
  6405  002E7A  1021               	iorwf	(_atoi$1388+1)^0,w,c
  6406  002E7C  A4D8               	btfss	status,2,c
  6407  002E7E  EF43  F017         	goto	u7901
  6408  002E82  EF45  F017         	goto	u7900
  6409  002E86                     u7901:
  6410  002E86  EF0A  F017         	goto	l5607
  6411  002E8A                     u7900:
  6412  002E8A  EF4F  F017         	goto	l5627
  6413  002E8E                     l5623:
  6414  002E8E  0E00               	movlw	0
  6415  002E90  6E1F               	movwf	(atoi@neg+1)^0,c
  6416  002E92  0E01               	movlw	1
  6417  002E94  6E1E               	movwf	atoi@neg^0,c
  6418  002E96                     l5625:
  6419  002E96  4A18               	infsnz	atoi@s^0,f,c
  6420  002E98  2A19               	incf	(atoi@s+1)^0,f,c
  6421  002E9A  EF84  F017         	goto	l5633
  6422  002E9E                     l5627:
  6423  002E9E  C018  FFF6         	movff	atoi@s,tblptrl
  6424  002EA2  C019  FFF7         	movff	atoi@s+1,tblptrh
  6425  002EA6                     	if	0	;tblptru may be non-zero
  6426  002EA6                     	endif
  6427  002EA6                     	if	0	;tblptru may be non-zero
  6428  002EA6                     	endif
  6429  002EA6  0008               	tblrd		*
  6430  002EA8  50F5               	movf	tablat,w,c
  6431  002EAA  6E1A               	movwf	??_atoi^0,c
  6432  002EAC  6A1B               	clrf	(??_atoi+1)^0,c
  6433                           
  6434                           ; Switch on 2 bytes has been partitioned into a top level switch of size 1, and 1 sub-sw
      +                          itches
  6435                           ; Switch size 1, requested type "simple"
  6436                           ; Number of cases is 1, Range of values is 0 to 0
  6437                           ; switch strategies available:
  6438                           ; Name         Instructions Cycles
  6439                           ; simple_byte            4     3 (average)
  6440                           ;	Chosen strategy is simple_byte
  6441  002EAE  501B               	movf	(??_atoi+1)^0,w,c
  6442  002EB0  0A00               	xorlw	0	; case 0
  6443  002EB2  B4D8               	btfsc	status,2,c
  6444  002EB4  EF5E  F017         	goto	l5827
  6445  002EB8  EF84  F017         	goto	l5633
  6446  002EBC                     l5827:
  6447                           
  6448                           ; Switch size 1, requested type "simple"
  6449                           ; Number of cases is 2, Range of values is 43 to 45
  6450                           ; switch strategies available:
  6451                           ; Name         Instructions Cycles
  6452                           ; simple_byte            7     4 (average)
  6453                           ;	Chosen strategy is simple_byte
  6454  002EBC  501A               	movf	??_atoi^0,w,c
  6455  002EBE  0A2B               	xorlw	43	; case 43
  6456  002EC0  B4D8               	btfsc	status,2,c
  6457  002EC2  EF4B  F017         	goto	l5625
  6458  002EC6  0A06               	xorlw	6	; case 45
  6459  002EC8  B4D8               	btfsc	status,2,c
  6460  002ECA  EF47  F017         	goto	l5623
  6461  002ECE  EF84  F017         	goto	l5633
  6462  002ED2                     l5629:
  6463  002ED2  C025  F011         	movff	atoi@n,___wmul@multiplier
  6464  002ED6  C026  F012         	movff	atoi@n+1,___wmul@multiplier+1
  6465  002EDA  0E00               	movlw	0
  6466  002EDC  6E14               	movwf	(___wmul@multiplicand+1)^0,c
  6467  002EDE  0E0A               	movlw	10
  6468  002EE0  6E13               	movwf	___wmul@multiplicand^0,c
  6469  002EE2  EC58  F01F         	call	___wmul	;wreg free
  6470  002EE6  C018  FFF6         	movff	atoi@s,tblptrl
  6471  002EEA  C019  FFF7         	movff	atoi@s+1,tblptrh
  6472  002EEE                     	if	0	;tblptru may be non-zero
  6473  002EEE                     	endif
  6474  002EEE                     	if	0	;tblptru may be non-zero
  6475  002EEE                     	endif
  6476  002EEE  0008               	tblrd		*
  6477  002EF0  50F5               	movf	tablat,w,c
  6478  002EF2  5E11               	subwf	?___wmul^0,f,c
  6479  002EF4  0E00               	movlw	0
  6480  002EF6  5A12               	subwfb	(?___wmul+1)^0,f,c
  6481  002EF8  0E30               	movlw	48
  6482  002EFA  2411               	addwf	?___wmul^0,w,c
  6483  002EFC  6E25               	movwf	atoi@n^0,c
  6484  002EFE  0E00               	movlw	0
  6485  002F00  2012               	addwfc	(?___wmul+1)^0,w,c
  6486  002F02  6E26               	movwf	(atoi@n+1)^0,c
  6487  002F04  EF4B  F017         	goto	l5625
  6488  002F08                     l5633:
  6489  002F08  0ED0               	movlw	208
  6490  002F0A  6E1A               	movwf	??_atoi^0,c
  6491  002F0C  0EFF               	movlw	255
  6492  002F0E  6E1B               	movwf	(??_atoi+1)^0,c
  6493  002F10  C018  FFF6         	movff	atoi@s,tblptrl
  6494  002F14  C019  FFF7         	movff	atoi@s+1,tblptrh
  6495  002F18                     	if	0	;tblptru may be non-zero
  6496  002F18                     	endif
  6497  002F18                     	if	0	;tblptru may be non-zero
  6498  002F18                     	endif
  6499  002F18  0008               	tblrd		*
  6500  002F1A  50F5               	movf	tablat,w,c
  6501  002F1C  6E1C               	movwf	(??_atoi+2)^0,c
  6502  002F1E  6A1D               	clrf	(??_atoi+3)^0,c
  6503  002F20  501A               	movf	??_atoi^0,w,c
  6504  002F22  261C               	addwf	(??_atoi+2)^0,f,c
  6505  002F24  501B               	movf	(??_atoi+1)^0,w,c
  6506  002F26  221D               	addwfc	(??_atoi+3)^0,f,c
  6507  002F28  501D               	movf	(??_atoi+3)^0,w,c
  6508  002F2A  E10A               	bnz	u7910
  6509  002F2C  0E0A               	movlw	10
  6510  002F2E  5C1C               	subwf	(??_atoi+2)^0,w,c
  6511  002F30  A0D8               	btfss	status,0,c
  6512  002F32  EF9D  F017         	goto	u7911
  6513  002F36  EFA0  F017         	goto	u7910
  6514  002F3A                     u7911:
  6515  002F3A  0E01               	movlw	1
  6516  002F3C  EFA1  F017         	goto	u7920
  6517  002F40                     u7910:
  6518  002F40  0E00               	movlw	0
  6519  002F42                     u7920:
  6520  002F42  6E22               	movwf	_atoi$1390^0,c
  6521  002F44  6A23               	clrf	(_atoi$1390+1)^0,c
  6522  002F46  5022               	movf	_atoi$1390^0,w,c
  6523  002F48  1023               	iorwf	(_atoi$1390+1)^0,w,c
  6524  002F4A  A4D8               	btfss	status,2,c
  6525  002F4C  EFAA  F017         	goto	u7931
  6526  002F50  EFAC  F017         	goto	u7930
  6527  002F54                     u7931:
  6528  002F54  EF69  F017         	goto	l5629
  6529  002F58                     u7930:
  6530  002F58  501E               	movf	atoi@neg^0,w,c
  6531  002F5A  101F               	iorwf	(atoi@neg+1)^0,w,c
  6532  002F5C  A4D8               	btfss	status,2,c
  6533  002F5E  EFB3  F017         	goto	u7941
  6534  002F62  EFB5  F017         	goto	u7940
  6535  002F66                     u7941:
  6536  002F66  EFC3  F017         	goto	l1032
  6537  002F6A                     u7940:
  6538  002F6A  C025  F01A         	movff	atoi@n,??_atoi
  6539  002F6E  C026  F01B         	movff	atoi@n+1,??_atoi+1
  6540  002F72  1E1A               	comf	??_atoi^0,f,c
  6541  002F74  1E1B               	comf	(??_atoi+1)^0,f,c
  6542  002F76  4A1A               	infsnz	??_atoi^0,f,c
  6543  002F78  2A1B               	incf	(??_atoi+1)^0,f,c
  6544  002F7A  C01A  F018         	movff	??_atoi,?_atoi
  6545  002F7E  C01B  F019         	movff	??_atoi+1,?_atoi+1
  6546  002F82  EFC7  F017         	goto	l1035
  6547  002F86                     l1032:
  6548  002F86  C025  F018         	movff	atoi@n,?_atoi
  6549  002F8A  C026  F019         	movff	atoi@n+1,?_atoi+1
  6550  002F8E                     l1035:
  6551  002F8E  0012               	return		;funcret
  6552  002F90                     __end_of_atoi:
  6553                           	callstack 0
  6554                           
  6555 ;; *************** function _isspace *****************
  6556 ;; Defined at:
  6557 ;;		line 5 in file "E:\MPLAB\pic\sources\c99\common\isspace.c"
  6558 ;; Parameters:    Size  Location     Type
  6559 ;;  c               2   16[COMRAM] int 
  6560 ;; Auto vars:     Size  Location     Type
  6561 ;;		None
  6562 ;; Return value:  Size  Location     Type
  6563 ;;                  2   16[COMRAM] int 
  6564 ;; Registers used:
  6565 ;;		wreg, status,2, status,0
  6566 ;; Tracked objects:
  6567 ;;		On entry : 0/0
  6568 ;;		On exit  : 0/0
  6569 ;;		Unchanged: 0/0
  6570 ;; Data sizes:     COMRAM   BANK0   BANK1   BANK2   BANK3   BANK4   BANK5   BANK6   BANK7
  6571 ;;      Params:         2       0       0       0       0       0       0       0       0
  6572 ;;      Locals:         1       0       0       0       0       0       0       0       0
  6573 ;;      Temps:          4       0       0       0       0       0       0       0       0
  6574 ;;      Totals:         7       0       0       0       0       0       0       0       0
  6575 ;;Total ram usage:        7 bytes
  6576 ;; Hardware stack levels used: 1
  6577 ;; Hardware stack levels required when called: 2
  6578 ;; This function calls:
  6579 ;;		Nothing
  6580 ;; This function is called by:
  6581 ;;		_atoi
  6582 ;; This function uses a non-reentrant model
  6583 ;;
  6584                           
  6585                           	psect	text24
  6586  003BA8                     __ptext24:
  6587                           	callstack 0
  6588  003BA8                     _isspace:
  6589                           	callstack 24
  6590  003BA8  0E01               	movlw	1
  6591  003BAA  6E17               	movwf	_isspace$1419^0,c
  6592  003BAC  0E20               	movlw	32
  6593  003BAE  1811               	xorwf	isspace@c^0,w,c
  6594  003BB0  1012               	iorwf	(isspace@c+1)^0,w,c
  6595  003BB2  B4D8               	btfsc	status,2,c
  6596  003BB4  EFDE  F01D         	goto	u7321
  6597  003BB8  EFE0  F01D         	goto	u7320
  6598  003BBC                     u7321:
  6599  003BBC  EFF9  F01D         	goto	l5293
  6600  003BC0                     u7320:
  6601  003BC0  0EF7               	movlw	247
  6602  003BC2  6E13               	movwf	??_isspace^0,c
  6603  003BC4  0EFF               	movlw	255
  6604  003BC6  6E14               	movwf	(??_isspace+1)^0,c
  6605  003BC8  C011  F015         	movff	isspace@c,??_isspace+2
  6606  003BCC  C012  F016         	movff	isspace@c+1,??_isspace+3
  6607  003BD0  5013               	movf	??_isspace^0,w,c
  6608  003BD2  2615               	addwf	(??_isspace+2)^0,f,c
  6609  003BD4  5014               	movf	(??_isspace+1)^0,w,c
  6610  003BD6  2216               	addwfc	(??_isspace+3)^0,f,c
  6611  003BD8  5016               	movf	(??_isspace+3)^0,w,c
  6612  003BDA  E109               	bnz	u7330
  6613  003BDC  0E05               	movlw	5
  6614  003BDE  5C15               	subwf	(??_isspace+2)^0,w,c
  6615  003BE0  A0D8               	btfss	status,0,c
  6616  003BE2  EFF5  F01D         	goto	u7331
  6617  003BE6  EFF7  F01D         	goto	u7330
  6618  003BEA                     u7331:
  6619  003BEA  EFF9  F01D         	goto	l5293
  6620  003BEE                     u7330:
  6621  003BEE  0E00               	movlw	0
  6622  003BF0  6E17               	movwf	_isspace$1419^0,c
  6623  003BF2                     l5293:
  6624  003BF2  C017  F011         	movff	_isspace$1419,?_isspace
  6625  003BF6  6A12               	clrf	(?_isspace+1)^0,c
  6626  003BF8  0012               	return		;funcret
  6627  003BFA                     __end_of_isspace:
  6628                           	callstack 0
  6629                           
  6630 ;; *************** function _isdigit *****************
  6631 ;; Defined at:
  6632 ;;		line 5 in file "E:\MPLAB\pic\sources\c99\common\isdigit.c"
  6633 ;; Parameters:    Size  Location     Type
  6634 ;;  c               2   16[COMRAM] int 
  6635 ;; Auto vars:     Size  Location     Type
  6636 ;;		None
  6637 ;; Return value:  Size  Location     Type
  6638 ;;                  2   16[COMRAM] int 
  6639 ;; Registers used:
  6640 ;;		wreg, status,2, status,0
  6641 ;; Tracked objects:
  6642 ;;		On entry : 0/0
  6643 ;;		On exit  : 0/0
  6644 ;;		Unchanged: 0/0
  6645 ;; Data sizes:     COMRAM   BANK0   BANK1   BANK2   BANK3   BANK4   BANK5   BANK6   BANK7
  6646 ;;      Params:         2       0       0       0       0       0       0       0       0
  6647 ;;      Locals:         0       0       0       0       0       0       0       0       0
  6648 ;;      Temps:          4       0       0       0       0       0       0       0       0
  6649 ;;      Totals:         6       0       0       0       0       0       0       0       0
  6650 ;;Total ram usage:        6 bytes
  6651 ;; Hardware stack levels used: 1
  6652 ;; Hardware stack levels required when called: 2
  6653 ;; This function calls:
  6654 ;;		Nothing
  6655 ;; This function is called by:
  6656 ;;		_vfpfcnvrt
  6657 ;;		_atoi
  6658 ;; This function uses a non-reentrant model
  6659 ;;
  6660                           
  6661                           	psect	text25
  6662  003DE0                     __ptext25:
  6663                           	callstack 0
  6664  003DE0                     _isdigit:
  6665                           	callstack 25
  6666  003DE0  0ED0               	movlw	208
  6667  003DE2  6E13               	movwf	??_isdigit^0,c
  6668  003DE4  0EFF               	movlw	255
  6669  003DE6  6E14               	movwf	(??_isdigit+1)^0,c
  6670  003DE8  C011  F015         	movff	isdigit@c,??_isdigit+2
  6671  003DEC  C012  F016         	movff	isdigit@c+1,??_isdigit+3
  6672  003DF0  5013               	movf	??_isdigit^0,w,c
  6673  003DF2  2615               	addwf	(??_isdigit+2)^0,f,c
  6674  003DF4  5014               	movf	(??_isdigit+1)^0,w,c
  6675  003DF6  2216               	addwfc	(??_isdigit+3)^0,f,c
  6676  003DF8  5016               	movf	(??_isdigit+3)^0,w,c
  6677  003DFA  E10A               	bnz	u7300
  6678  003DFC  0E0A               	movlw	10
  6679  003DFE  5C15               	subwf	(??_isdigit+2)^0,w,c
  6680  003E00  A0D8               	btfss	status,0,c
  6681  003E02  EF05  F01F         	goto	u7301
  6682  003E06  EF08  F01F         	goto	u7300
  6683  003E0A                     u7301:
  6684  003E0A  0E01               	movlw	1
  6685  003E0C  EF09  F01F         	goto	u7310
  6686  003E10                     u7300:
  6687  003E10  0E00               	movlw	0
  6688  003E12                     u7310:
  6689  003E12  6E11               	movwf	?_isdigit^0,c
  6690  003E14  6A12               	clrf	(?_isdigit+1)^0,c
  6691  003E16  0012               	return		;funcret
  6692  003E18                     __end_of_isdigit:
  6693                           	callstack 0
  6694                           
  6695 ;; *************** function ___wmul *****************
  6696 ;; Defined at:
  6697 ;;		line 15 in file "E:\MPLAB\pic\sources\c99\common\Umul16.c"
  6698 ;; Parameters:    Size  Location     Type
  6699 ;;  multiplier      2   16[COMRAM] unsigned int 
  6700 ;;  multiplicand    2   18[COMRAM] unsigned int 
  6701 ;; Auto vars:     Size  Location     Type
  6702 ;;  product         2   20[COMRAM] unsigned int 
  6703 ;; Return value:  Size  Location     Type
  6704 ;;                  2   16[COMRAM] unsigned int 
  6705 ;; Registers used:
  6706 ;;		wreg, status,2, status,0, prodl, prodh
  6707 ;; Tracked objects:
  6708 ;;		On entry : 0/0
  6709 ;;		On exit  : 0/0
  6710 ;;		Unchanged: 0/0
  6711 ;; Data sizes:     COMRAM   BANK0   BANK1   BANK2   BANK3   BANK4   BANK5   BANK6   BANK7
  6712 ;;      Params:         4       0       0       0       0       0       0       0       0
  6713 ;;      Locals:         2       0       0       0       0       0       0       0       0
  6714 ;;      Temps:          0       0       0       0       0       0       0       0       0
  6715 ;;      Totals:         6       0       0       0       0       0       0       0       0
  6716 ;;Total ram usage:        6 bytes
  6717 ;; Hardware stack levels used: 1
  6718 ;; Hardware stack levels required when called: 2
  6719 ;; This function calls:
  6720 ;;		Nothing
  6721 ;; This function is called by:
  6722 ;;		_atoi
  6723 ;; This function uses a non-reentrant model
  6724 ;;
  6725                           
  6726                           	psect	text26
  6727  003EB0                     __ptext26:
  6728                           	callstack 0
  6729  003EB0                     ___wmul:
  6730                           	callstack 24
  6731  003EB0  5011               	movf	___wmul@multiplier^0,w,c
  6732  003EB2  0213               	mulwf	___wmul@multiplicand^0,c
  6733  003EB4  CFF3 F015          	movff	prodl,___wmul@product
  6734  003EB8  CFF4 F016          	movff	prodh,___wmul@product+1
  6735  003EBC  5011               	movf	___wmul@multiplier^0,w,c
  6736  003EBE  0214               	mulwf	(___wmul@multiplicand+1)^0,c
  6737  003EC0  50F3               	movf	243,w,c
  6738  003EC2  2616               	addwf	(___wmul@product+1)^0,f,c
  6739  003EC4  5012               	movf	(___wmul@multiplier+1)^0,w,c
  6740  003EC6  0213               	mulwf	___wmul@multiplicand^0,c
  6741  003EC8  50F3               	movf	243,w,c
  6742  003ECA  2616               	addwf	(___wmul@product+1)^0,f,c
  6743  003ECC  C015  F011         	movff	___wmul@product,?___wmul
  6744  003ED0  C016  F012         	movff	___wmul@product+1,?___wmul+1
  6745  003ED4  0012               	return		;funcret
  6746  003ED6                     __end_of___wmul:
  6747                           	callstack 0
  6748                           
  6749 ;; *************** function _set_duty_cpp1 *****************
  6750 ;; Defined at:
  6751 ;;		line 142 in file "librerias.c"
  6752 ;; Parameters:    Size  Location     Type
  6753 ;;  duty            4   33[BANK0 ] float 
  6754 ;; Auto vars:     Size  Location     Type
  6755 ;;		None
  6756 ;; Return value:  Size  Location     Type
  6757 ;;                  1    wreg      void 
  6758 ;; Registers used:
  6759 ;;		wreg, status,2, status,0, prodl, prodh, cstack
  6760 ;; Tracked objects:
  6761 ;;		On entry : 0/0
  6762 ;;		On exit  : 0/0
  6763 ;;		Unchanged: 0/0
  6764 ;; Data sizes:     COMRAM   BANK0   BANK1   BANK2   BANK3   BANK4   BANK5   BANK6   BANK7
  6765 ;;      Params:         0       4       0       0       0       0       0       0       0
  6766 ;;      Locals:         0       0       0       0       0       0       0       0       0
  6767 ;;      Temps:          0       0       0       0       0       0       0       0       0
  6768 ;;      Totals:         0       4       0       0       0       0       0       0       0
  6769 ;;Total ram usage:        4 bytes
  6770 ;; Hardware stack levels used: 1
  6771 ;; Hardware stack levels required when called: 3
  6772 ;; This function calls:
  6773 ;;		___fldiv
  6774 ;;		___flmul
  6775 ;;		___fltol
  6776 ;;		___xxtofl
  6777 ;; This function is called by:
  6778 ;;		_main
  6779 ;; This function uses a non-reentrant model
  6780 ;;
  6781                           
  6782                           	psect	text27
  6783  0039C0                     __ptext27:
  6784                           	callstack 0
  6785  0039C0                     _set_duty_cpp1:
  6786                           	callstack 27
  6787  0039C0                     
  6788                           ;librerias.c: 143:     CCPR1L = (unsigned char)((PR2)*(duty/100));
  6789  0039C0  0E00               	movlw	0
  6790  0039C2  0100               	movlb	0	; () banked
  6791  0039C4  6F64               	movwf	___fldiv@a& (0+255),b
  6792  0039C6  0E00               	movlw	0
  6793  0039C8  6F65               	movwf	(___fldiv@a+1)& (0+255),b
  6794  0039CA  0EC8               	movlw	200
  6795  0039CC  6F66               	movwf	(___fldiv@a+2)& (0+255),b
  6796  0039CE  0E42               	movlw	66
  6797  0039D0  6F67               	movwf	(___fldiv@a+3)& (0+255),b
  6798  0039D2  C081  F060         	movff	set_duty_cpp1@duty,___fldiv@b
  6799  0039D6  C082  F061         	movff	set_duty_cpp1@duty+1,___fldiv@b+1
  6800  0039DA  C083  F062         	movff	set_duty_cpp1@duty+2,___fldiv@b+2
  6801  0039DE  C084  F063         	movff	set_duty_cpp1@duty+3,___fldiv@b+3
  6802  0039E2  EC4D  F013         	call	___fldiv	;wreg free
  6803  0039E6  C060  F029         	movff	?___fldiv,___flmul@a
  6804  0039EA  C061  F02A         	movff	?___fldiv+1,___flmul@a+1
  6805  0039EE  C062  F02B         	movff	?___fldiv+2,___flmul@a+2
  6806  0039F2  C063  F02C         	movff	?___fldiv+3,___flmul@a+3
  6807  0039F6  50CB               	movf	203,w,c	;volatile
  6808  0039F8  6E11               	movwf	___xxtofl@val^0,c
  6809  0039FA  6A12               	clrf	(___xxtofl@val+1)^0,c
  6810  0039FC  6A13               	clrf	(___xxtofl@val+2)^0,c
  6811  0039FE  6A14               	clrf	(___xxtofl@val+3)^0,c
  6812  003A00  0E01               	movlw	1
  6813  003A02  EC26  F016         	call	___xxtofl
  6814  003A06  C011  F025         	movff	?___xxtofl,___flmul@b
  6815  003A0A  C012  F026         	movff	?___xxtofl+1,___flmul@b+1
  6816  003A0E  C013  F027         	movff	?___xxtofl+2,___flmul@b+2
  6817  003A12  C014  F028         	movff	?___xxtofl+3,___flmul@b+3
  6818  003A16  EC38  F011         	call	___flmul	;wreg free
  6819  003A1A  C025  F079         	movff	?___flmul,___fltol@f1
  6820  003A1E  C026  F07A         	movff	?___flmul+1,___fltol@f1+1
  6821  003A22  C027  F07B         	movff	?___flmul+2,___fltol@f1+2
  6822  003A26  C028  F07C         	movff	?___flmul+3,___fltol@f1+3
  6823  003A2A  EC77  F018         	call	___fltol	;wreg free
  6824  003A2E  0100               	movlb	0	; () banked
  6825  003A30  5179               	movf	?___fltol& (0+255),w,b
  6826  003A32  6EBE               	movwf	190,c	;volatile
  6827  003A34                     
  6828                           ; BSR set to: 0
  6829  003A34  0012               	return		;funcret
  6830  003A36                     __end_of_set_duty_cpp1:
  6831                           	callstack 0
  6832                           
  6833 ;; *************** function ___fltol *****************
  6834 ;; Defined at:
  6835 ;;		line 43 in file "E:\MPLAB\pic\sources\c99\common\fltol.c"
  6836 ;; Parameters:    Size  Location     Type
  6837 ;;  f1              4   25[BANK0 ] void 
  6838 ;; Auto vars:     Size  Location     Type
  6839 ;;  exp1            1   62[COMRAM] unsigned char 
  6840 ;;  sign1           1   61[COMRAM] unsigned char 
  6841 ;; Return value:  Size  Location     Type
  6842 ;;                  4   25[BANK0 ] long 
  6843 ;; Registers used:
  6844 ;;		wreg, status,2, status,0
  6845 ;; Tracked objects:
  6846 ;;		On entry : 0/0
  6847 ;;		On exit  : 0/0
  6848 ;;		Unchanged: 0/0
  6849 ;; Data sizes:     COMRAM   BANK0   BANK1   BANK2   BANK3   BANK4   BANK5   BANK6   BANK7
  6850 ;;      Params:         0       4       0       0       0       0       0       0       0
  6851 ;;      Locals:         2       0       0       0       0       0       0       0       0
  6852 ;;      Temps:          0       4       0       0       0       0       0       0       0
  6853 ;;      Totals:         2       8       0       0       0       0       0       0       0
  6854 ;;Total ram usage:       10 bytes
  6855 ;; Hardware stack levels used: 1
  6856 ;; Hardware stack levels required when called: 2
  6857 ;; This function calls:
  6858 ;;		Nothing
  6859 ;; This function is called by:
  6860 ;;		_set_duty_cpp1
  6861 ;;		_efgtoa
  6862 ;;		_set_duty_cpp2
  6863 ;; This function uses a non-reentrant model
  6864 ;;
  6865                           
  6866                           	psect	text28
  6867  0030EE                     __ptext28:
  6868                           	callstack 0
  6869  0030EE                     ___fltol:
  6870                           	callstack 24
  6871  0030EE  0100               	movlb	0	; () banked
  6872  0030F0  357B               	rlcf	(___fltol@f1+2)& (0+255),w,b
  6873  0030F2  357C               	rlcf	(___fltol@f1+3)& (0+255),w,b
  6874  0030F4  6E3F               	movwf	___fltol@exp1^0,c
  6875  0030F6  503F               	movf	___fltol@exp1^0,w,c
  6876  0030F8  A4D8               	btfss	status,2,c
  6877  0030FA  EF81  F018         	goto	u6971
  6878  0030FE  EF83  F018         	goto	u6970
  6879  003102                     u6971:
  6880  003102  EF8D  F018         	goto	l5157
  6881  003106                     u6970:
  6882  003106                     l5153:
  6883                           
  6884                           ; BSR set to: 0
  6885  003106  0E00               	movlw	0
  6886  003108  6F79               	movwf	?___fltol& (0+255),b
  6887  00310A  0E00               	movlw	0
  6888  00310C  6F7A               	movwf	(?___fltol+1)& (0+255),b
  6889  00310E  0E00               	movlw	0
  6890  003110  6F7B               	movwf	(?___fltol+2)& (0+255),b
  6891  003112  0E00               	movlw	0
  6892  003114  6F7C               	movwf	(?___fltol+3)& (0+255),b
  6893  003116  EFFA  F018         	goto	l442
  6894  00311A                     l5157:
  6895                           
  6896                           ; BSR set to: 0
  6897  00311A  C079  F07D         	movff	___fltol@f1,??___fltol
  6898  00311E  C07A  F07E         	movff	___fltol@f1+1,??___fltol+1
  6899  003122  C07B  F07F         	movff	___fltol@f1+2,??___fltol+2
  6900  003126  C07C  F080         	movff	___fltol@f1+3,??___fltol+3
  6901  00312A  0E20               	movlw	32
  6902  00312C  EF9D  F018         	goto	u6980
  6903  003130                     u6985:
  6904  003130  90D8               	bcf	status,0,c
  6905  003132  3380               	rrcf	(??___fltol+3)& (0+255),f,b
  6906  003134  337F               	rrcf	(??___fltol+2)& (0+255),f,b
  6907  003136  337E               	rrcf	(??___fltol+1)& (0+255),f,b
  6908  003138  337D               	rrcf	??___fltol& (0+255),f,b
  6909  00313A                     u6980:
  6910  00313A  2EE8               	decfsz	wreg,f,c
  6911  00313C  EF98  F018         	goto	u6985
  6912  003140  517D               	movf	??___fltol& (0+255),w,b
  6913  003142  6E3E               	movwf	___fltol@sign1^0,c
  6914  003144                     
  6915                           ; BSR set to: 0
  6916  003144  8F7B               	bsf	(___fltol@f1+2)& (0+255),7,b
  6917  003146                     
  6918                           ; BSR set to: 0
  6919  003146  0EFF               	movlw	255
  6920  003148  1779               	andwf	___fltol@f1& (0+255),f,b
  6921  00314A  0EFF               	movlw	255
  6922  00314C  177A               	andwf	(___fltol@f1+1)& (0+255),f,b
  6923  00314E  0EFF               	movlw	255
  6924  003150  177B               	andwf	(___fltol@f1+2)& (0+255),f,b
  6925  003152  0E00               	movlw	0
  6926  003154  177C               	andwf	(___fltol@f1+3)& (0+255),f,b
  6927  003156                     
  6928                           ; BSR set to: 0
  6929  003156  0E96               	movlw	150
  6930  003158  5E3F               	subwf	___fltol@exp1^0,f,c
  6931  00315A                     
  6932                           ; BSR set to: 0
  6933  00315A  BE3F               	btfsc	___fltol@exp1^0,7,c
  6934  00315C  EFB4  F018         	goto	u6990
  6935  003160  EFB2  F018         	goto	u6991
  6936  003164                     u6991:
  6937  003164  EFCA  F018         	goto	l5177
  6938  003168                     u6990:
  6939  003168                     
  6940                           ; BSR set to: 0
  6941  003168  503F               	movf	___fltol@exp1^0,w,c
  6942  00316A  0A80               	xorlw	128
  6943  00316C  0F97               	addlw	151
  6944  00316E  B0D8               	btfsc	status,0,c
  6945  003170  EFBC  F018         	goto	u7001
  6946  003174  EFBE  F018         	goto	u7000
  6947  003178                     u7001:
  6948  003178  EFC0  F018         	goto	l5173
  6949  00317C                     u7000:
  6950  00317C  EF83  F018         	goto	l5153
  6951  003180                     l5173:
  6952                           
  6953                           ; BSR set to: 0
  6954  003180  90D8               	bcf	status,0,c
  6955  003182  337C               	rrcf	(___fltol@f1+3)& (0+255),f,b
  6956  003184  337B               	rrcf	(___fltol@f1+2)& (0+255),f,b
  6957  003186  337A               	rrcf	(___fltol@f1+1)& (0+255),f,b
  6958  003188  3379               	rrcf	___fltol@f1& (0+255),f,b
  6959  00318A                     
  6960                           ; BSR set to: 0
  6961  00318A  3E3F               	incfsz	___fltol@exp1^0,f,c
  6962  00318C  EFC0  F018         	goto	l5173
  6963  003190  EFE2  F018         	goto	l5187
  6964  003194                     l5177:
  6965                           
  6966                           ; BSR set to: 0
  6967  003194  0E1F               	movlw	31
  6968  003196  643F               	cpfsgt	___fltol@exp1^0,c
  6969  003198  EFD0  F018         	goto	u7011
  6970  00319C  EFD2  F018         	goto	u7010
  6971  0031A0                     u7011:
  6972  0031A0  EFDA  F018         	goto	l5185
  6973  0031A4                     u7010:
  6974  0031A4  EF83  F018         	goto	l5153
  6975  0031A8                     l5183:
  6976                           
  6977                           ; BSR set to: 0
  6978  0031A8  90D8               	bcf	status,0,c
  6979  0031AA  3779               	rlcf	___fltol@f1& (0+255),f,b
  6980  0031AC  377A               	rlcf	(___fltol@f1+1)& (0+255),f,b
  6981  0031AE  377B               	rlcf	(___fltol@f1+2)& (0+255),f,b
  6982  0031B0  377C               	rlcf	(___fltol@f1+3)& (0+255),f,b
  6983  0031B2  063F               	decf	___fltol@exp1^0,f,c
  6984  0031B4                     l5185:
  6985                           
  6986                           ; BSR set to: 0
  6987  0031B4  503F               	movf	___fltol@exp1^0,w,c
  6988  0031B6  A4D8               	btfss	status,2,c
  6989  0031B8  EFE0  F018         	goto	u7021
  6990  0031BC  EFE2  F018         	goto	u7020
  6991  0031C0                     u7021:
  6992  0031C0  EFD4  F018         	goto	l5183
  6993  0031C4                     u7020:
  6994  0031C4                     l5187:
  6995                           
  6996                           ; BSR set to: 0
  6997  0031C4  503E               	movf	___fltol@sign1^0,w,c
  6998  0031C6  B4D8               	btfsc	status,2,c
  6999  0031C8  EFE8  F018         	goto	u7031
  7000  0031CC  EFEA  F018         	goto	u7030
  7001  0031D0                     u7031:
  7002  0031D0  EFF2  F018         	goto	l5191
  7003  0031D4                     u7030:
  7004  0031D4                     
  7005                           ; BSR set to: 0
  7006  0031D4  1F7C               	comf	(___fltol@f1+3)& (0+255),f,b
  7007  0031D6  1F7B               	comf	(___fltol@f1+2)& (0+255),f,b
  7008  0031D8  1F7A               	comf	(___fltol@f1+1)& (0+255),f,b
  7009  0031DA  6D79               	negf	___fltol@f1& (0+255),b
  7010  0031DC  0E00               	movlw	0
  7011  0031DE  237A               	addwfc	(___fltol@f1+1)& (0+255),f,b
  7012  0031E0  237B               	addwfc	(___fltol@f1+2)& (0+255),f,b
  7013  0031E2  237C               	addwfc	(___fltol@f1+3)& (0+255),f,b
  7014  0031E4                     l5191:
  7015                           
  7016                           ; BSR set to: 0
  7017  0031E4  C079  F079         	movff	___fltol@f1,?___fltol
  7018  0031E8  C07A  F07A         	movff	___fltol@f1+1,?___fltol+1
  7019  0031EC  C07B  F07B         	movff	___fltol@f1+2,?___fltol+2
  7020  0031F0  C07C  F07C         	movff	___fltol@f1+3,?___fltol+3
  7021  0031F4                     l442:
  7022                           
  7023                           ; BSR set to: 0
  7024  0031F4  0012               	return		;funcret
  7025  0031F6                     __end_of___fltol:
  7026                           	callstack 0
  7027                           
  7028 ;; *************** function ___flmul *****************
  7029 ;; Defined at:
  7030 ;;		line 8 in file "E:\MPLAB\pic\sources\c99\common\sprcmul.c"
  7031 ;; Parameters:    Size  Location     Type
  7032 ;;  b               4   36[COMRAM] long 
  7033 ;;  a               4   40[COMRAM] long 
  7034 ;; Auto vars:     Size  Location     Type
  7035 ;;  prod            4   55[COMRAM] struct .
  7036 ;;  grs             4   50[COMRAM] unsigned long 
  7037 ;;  temp            2   59[COMRAM] struct .
  7038 ;;  bexp            1   54[COMRAM] unsigned char 
  7039 ;;  aexp            1   49[COMRAM] unsigned char 
  7040 ;;  sign            1   48[COMRAM] unsigned char 
  7041 ;; Return value:  Size  Location     Type
  7042 ;;                  4   36[COMRAM] unsigned char 
  7043 ;; Registers used:
  7044 ;;		wreg, status,2, status,0, prodl, prodh
  7045 ;; Tracked objects:
  7046 ;;		On entry : 0/0
  7047 ;;		On exit  : 0/0
  7048 ;;		Unchanged: 0/0
  7049 ;; Data sizes:     COMRAM   BANK0   BANK1   BANK2   BANK3   BANK4   BANK5   BANK6   BANK7
  7050 ;;      Params:         8       0       0       0       0       0       0       0       0
  7051 ;;      Locals:        13       0       0       0       0       0       0       0       0
  7052 ;;      Temps:          4       0       0       0       0       0       0       0       0
  7053 ;;      Totals:        25       0       0       0       0       0       0       0       0
  7054 ;;Total ram usage:       25 bytes
  7055 ;; Hardware stack levels used: 1
  7056 ;; Hardware stack levels required when called: 2
  7057 ;; This function calls:
  7058 ;;		Nothing
  7059 ;; This function is called by:
  7060 ;;		_main
  7061 ;;		_set_duty_cpp1
  7062 ;;		_efgtoa
  7063 ;;		_set_duty_cpp2
  7064 ;; This function uses a non-reentrant model
  7065 ;;
  7066                           
  7067                           	psect	text29
  7068  002270                     __ptext29:
  7069                           	callstack 0
  7070  002270                     ___flmul:
  7071                           	callstack 24
  7072  002270  5028               	movf	(___flmul@b+3)^0,w,c
  7073  002272  0B80               	andlw	128
  7074  002274  6E31               	movwf	___flmul@sign^0,c
  7075  002276  5028               	movf	(___flmul@b+3)^0,w,c
  7076  002278  2428               	addwf	(___flmul@b+3)^0,w,c
  7077  00227A  6E37               	movwf	___flmul@bexp^0,c
  7078  00227C  AE27               	btfss	(___flmul@b+2)^0,7,c
  7079  00227E  EF43  F011         	goto	u6571
  7080  002282  EF45  F011         	goto	u6570
  7081  002286                     u6571:
  7082  002286  EF46  F011         	goto	l4895
  7083  00228A                     u6570:
  7084  00228A  8037               	bsf	___flmul@bexp^0,0,c
  7085  00228C                     l4895:
  7086  00228C  5037               	movf	___flmul@bexp^0,w,c
  7087  00228E  B4D8               	btfsc	status,2,c
  7088  002290  EF4C  F011         	goto	u6581
  7089  002294  EF4E  F011         	goto	u6580
  7090  002298                     u6581:
  7091  002298  EF61  F011         	goto	l4903
  7092  00229C                     u6580:
  7093  00229C  2837               	incf	___flmul@bexp^0,w,c
  7094  00229E  A4D8               	btfss	status,2,c
  7095  0022A0  EF54  F011         	goto	u6591
  7096  0022A4  EF56  F011         	goto	u6590
  7097  0022A8                     u6591:
  7098  0022A8  EF5E  F011         	goto	l4901
  7099  0022AC                     u6590:
  7100  0022AC  0E00               	movlw	0
  7101  0022AE  6E25               	movwf	___flmul@b^0,c
  7102  0022B0  0E00               	movlw	0
  7103  0022B2  6E26               	movwf	(___flmul@b+1)^0,c
  7104  0022B4  0E00               	movlw	0
  7105  0022B6  6E27               	movwf	(___flmul@b+2)^0,c
  7106  0022B8  0E00               	movlw	0
  7107  0022BA  6E28               	movwf	(___flmul@b+3)^0,c
  7108  0022BC                     l4901:
  7109  0022BC  8E27               	bsf	(___flmul@b+2)^0,7,c
  7110  0022BE  EF69  F011         	goto	l4905
  7111  0022C2                     l4903:
  7112  0022C2  0E00               	movlw	0
  7113  0022C4  6E25               	movwf	___flmul@b^0,c
  7114  0022C6  0E00               	movlw	0
  7115  0022C8  6E26               	movwf	(___flmul@b+1)^0,c
  7116  0022CA  0E00               	movlw	0
  7117  0022CC  6E27               	movwf	(___flmul@b+2)^0,c
  7118  0022CE  0E00               	movlw	0
  7119  0022D0  6E28               	movwf	(___flmul@b+3)^0,c
  7120  0022D2                     l4905:
  7121  0022D2  502C               	movf	(___flmul@a+3)^0,w,c
  7122  0022D4  0B80               	andlw	128
  7123  0022D6  1A31               	xorwf	___flmul@sign^0,f,c
  7124  0022D8  502C               	movf	(___flmul@a+3)^0,w,c
  7125  0022DA  242C               	addwf	(___flmul@a+3)^0,w,c
  7126  0022DC  6E32               	movwf	___flmul@aexp^0,c
  7127  0022DE  AE2B               	btfss	(___flmul@a+2)^0,7,c
  7128  0022E0  EF74  F011         	goto	u6601
  7129  0022E4  EF76  F011         	goto	u6600
  7130  0022E8                     u6601:
  7131  0022E8  EF77  F011         	goto	l4913
  7132  0022EC                     u6600:
  7133  0022EC  8032               	bsf	___flmul@aexp^0,0,c
  7134  0022EE                     l4913:
  7135  0022EE  5032               	movf	___flmul@aexp^0,w,c
  7136  0022F0  B4D8               	btfsc	status,2,c
  7137  0022F2  EF7D  F011         	goto	u6611
  7138  0022F6  EF7F  F011         	goto	u6610
  7139  0022FA                     u6611:
  7140  0022FA  EF92  F011         	goto	l4921
  7141  0022FE                     u6610:
  7142  0022FE  2832               	incf	___flmul@aexp^0,w,c
  7143  002300  A4D8               	btfss	status,2,c
  7144  002302  EF85  F011         	goto	u6621
  7145  002306  EF87  F011         	goto	u6620
  7146  00230A                     u6621:
  7147  00230A  EF8F  F011         	goto	l4919
  7148  00230E                     u6620:
  7149  00230E  0E00               	movlw	0
  7150  002310  6E29               	movwf	___flmul@a^0,c
  7151  002312  0E00               	movlw	0
  7152  002314  6E2A               	movwf	(___flmul@a+1)^0,c
  7153  002316  0E00               	movlw	0
  7154  002318  6E2B               	movwf	(___flmul@a+2)^0,c
  7155  00231A  0E00               	movlw	0
  7156  00231C  6E2C               	movwf	(___flmul@a+3)^0,c
  7157  00231E                     l4919:
  7158  00231E  8E2B               	bsf	(___flmul@a+2)^0,7,c
  7159  002320  EF9A  F011         	goto	l759
  7160  002324                     l4921:
  7161  002324  0E00               	movlw	0
  7162  002326  6E29               	movwf	___flmul@a^0,c
  7163  002328  0E00               	movlw	0
  7164  00232A  6E2A               	movwf	(___flmul@a+1)^0,c
  7165  00232C  0E00               	movlw	0
  7166  00232E  6E2B               	movwf	(___flmul@a+2)^0,c
  7167  002330  0E00               	movlw	0
  7168  002332  6E2C               	movwf	(___flmul@a+3)^0,c
  7169  002334                     l759:
  7170  002334  5032               	movf	___flmul@aexp^0,w,c
  7171  002336  B4D8               	btfsc	status,2,c
  7172  002338  EFA0  F011         	goto	u6631
  7173  00233C  EFA2  F011         	goto	u6630
  7174  002340                     u6631:
  7175  002340  EFAA  F011         	goto	l4925
  7176  002344                     u6630:
  7177  002344  5037               	movf	___flmul@bexp^0,w,c
  7178  002346  A4D8               	btfss	status,2,c
  7179  002348  EFA8  F011         	goto	u6641
  7180  00234C  EFAA  F011         	goto	u6640
  7181  002350                     u6641:
  7182  002350  EFB4  F011         	goto	l4929
  7183  002354                     u6640:
  7184  002354                     l4925:
  7185  002354  0E00               	movlw	0
  7186  002356  6E25               	movwf	?___flmul^0,c
  7187  002358  0E00               	movlw	0
  7188  00235A  6E26               	movwf	(?___flmul+1)^0,c
  7189  00235C  0E00               	movlw	0
  7190  00235E  6E27               	movwf	(?___flmul+2)^0,c
  7191  002360  0E00               	movlw	0
  7192  002362  6E28               	movwf	(?___flmul+3)^0,c
  7193  002364  EF4C  F013         	goto	l763
  7194  002368                     l4929:
  7195  002368  502B               	movf	(___flmul@a+2)^0,w,c
  7196  00236A  0225               	mulwf	___flmul@b^0,c
  7197  00236C  CFF3 F03C          	movff	prodl,___flmul@temp
  7198  002370  CFF4 F03D          	movff	prodh,___flmul@temp+1
  7199  002374  503C               	movf	___flmul@temp^0,w,c
  7200  002376  6E33               	movwf	___flmul@grs^0,c
  7201  002378  6A34               	clrf	(___flmul@grs+1)^0,c
  7202  00237A  6A35               	clrf	(___flmul@grs+2)^0,c
  7203  00237C  6A36               	clrf	(___flmul@grs+3)^0,c
  7204  00237E  503D               	movf	(___flmul@temp+1)^0,w,c
  7205  002380  6E38               	movwf	___flmul@prod^0,c
  7206  002382  6A39               	clrf	(___flmul@prod+1)^0,c
  7207  002384  6A3A               	clrf	(___flmul@prod+2)^0,c
  7208  002386  6A3B               	clrf	(___flmul@prod+3)^0,c
  7209  002388  502A               	movf	(___flmul@a+1)^0,w,c
  7210  00238A  0226               	mulwf	(___flmul@b+1)^0,c
  7211  00238C  CFF3 F03C          	movff	prodl,___flmul@temp
  7212  002390  CFF4 F03D          	movff	prodh,___flmul@temp+1
  7213  002394  503C               	movf	___flmul@temp^0,w,c
  7214  002396  2633               	addwf	___flmul@grs^0,f,c
  7215  002398  0E00               	movlw	0
  7216  00239A  2234               	addwfc	(___flmul@grs+1)^0,f,c
  7217  00239C  2235               	addwfc	(___flmul@grs+2)^0,f,c
  7218  00239E  2236               	addwfc	(___flmul@grs+3)^0,f,c
  7219  0023A0  503D               	movf	(___flmul@temp+1)^0,w,c
  7220  0023A2  2638               	addwf	___flmul@prod^0,f,c
  7221  0023A4  0E00               	movlw	0
  7222  0023A6  2239               	addwfc	(___flmul@prod+1)^0,f,c
  7223  0023A8  223A               	addwfc	(___flmul@prod+2)^0,f,c
  7224  0023AA  223B               	addwfc	(___flmul@prod+3)^0,f,c
  7225  0023AC  5029               	movf	___flmul@a^0,w,c
  7226  0023AE  0227               	mulwf	(___flmul@b+2)^0,c
  7227  0023B0  CFF3 F03C          	movff	prodl,___flmul@temp
  7228  0023B4  CFF4 F03D          	movff	prodh,___flmul@temp+1
  7229  0023B8  503C               	movf	___flmul@temp^0,w,c
  7230  0023BA  2633               	addwf	___flmul@grs^0,f,c
  7231  0023BC  0E00               	movlw	0
  7232  0023BE  2234               	addwfc	(___flmul@grs+1)^0,f,c
  7233  0023C0  2235               	addwfc	(___flmul@grs+2)^0,f,c
  7234  0023C2  2236               	addwfc	(___flmul@grs+3)^0,f,c
  7235  0023C4  503D               	movf	(___flmul@temp+1)^0,w,c
  7236  0023C6  2638               	addwf	___flmul@prod^0,f,c
  7237  0023C8  0E00               	movlw	0
  7238  0023CA  2239               	addwfc	(___flmul@prod+1)^0,f,c
  7239  0023CC  223A               	addwfc	(___flmul@prod+2)^0,f,c
  7240  0023CE  223B               	addwfc	(___flmul@prod+3)^0,f,c
  7241  0023D0  C035  F036         	movff	___flmul@grs+2,___flmul@grs+3
  7242  0023D4  C034  F035         	movff	___flmul@grs+1,___flmul@grs+2
  7243  0023D8  C033  F034         	movff	___flmul@grs,___flmul@grs+1
  7244  0023DC  6A33               	clrf	___flmul@grs^0,c
  7245  0023DE  5029               	movf	___flmul@a^0,w,c
  7246  0023E0  0226               	mulwf	(___flmul@b+1)^0,c
  7247  0023E2  CFF3 F03C          	movff	prodl,___flmul@temp
  7248  0023E6  CFF4 F03D          	movff	prodh,___flmul@temp+1
  7249  0023EA  503C               	movf	___flmul@temp^0,w,c
  7250  0023EC  2633               	addwf	___flmul@grs^0,f,c
  7251  0023EE  503D               	movf	(___flmul@temp+1)^0,w,c
  7252  0023F0  2234               	addwfc	(___flmul@grs+1)^0,f,c
  7253  0023F2  0E00               	movlw	0
  7254  0023F4  2235               	addwfc	(___flmul@grs+2)^0,f,c
  7255  0023F6  0E00               	movlw	0
  7256  0023F8  2236               	addwfc	(___flmul@grs+3)^0,f,c
  7257  0023FA  502A               	movf	(___flmul@a+1)^0,w,c
  7258  0023FC  0225               	mulwf	___flmul@b^0,c
  7259  0023FE  CFF3 F03C          	movff	prodl,___flmul@temp
  7260  002402  CFF4 F03D          	movff	prodh,___flmul@temp+1
  7261  002406  503C               	movf	___flmul@temp^0,w,c
  7262  002408  2633               	addwf	___flmul@grs^0,f,c
  7263  00240A  503D               	movf	(___flmul@temp+1)^0,w,c
  7264  00240C  2234               	addwfc	(___flmul@grs+1)^0,f,c
  7265  00240E  0E00               	movlw	0
  7266  002410  2235               	addwfc	(___flmul@grs+2)^0,f,c
  7267  002412  0E00               	movlw	0
  7268  002414  2236               	addwfc	(___flmul@grs+3)^0,f,c
  7269  002416  C035  F036         	movff	___flmul@grs+2,___flmul@grs+3
  7270  00241A  C034  F035         	movff	___flmul@grs+1,___flmul@grs+2
  7271  00241E  C033  F034         	movff	___flmul@grs,___flmul@grs+1
  7272  002422  6A33               	clrf	___flmul@grs^0,c
  7273  002424  5029               	movf	___flmul@a^0,w,c
  7274  002426  0225               	mulwf	___flmul@b^0,c
  7275  002428  CFF3 F03C          	movff	prodl,___flmul@temp
  7276  00242C  CFF4 F03D          	movff	prodh,___flmul@temp+1
  7277  002430  503C               	movf	___flmul@temp^0,w,c
  7278  002432  2633               	addwf	___flmul@grs^0,f,c
  7279  002434  503D               	movf	(___flmul@temp+1)^0,w,c
  7280  002436  2234               	addwfc	(___flmul@grs+1)^0,f,c
  7281  002438  0E00               	movlw	0
  7282  00243A  2235               	addwfc	(___flmul@grs+2)^0,f,c
  7283  00243C  0E00               	movlw	0
  7284  00243E  2236               	addwfc	(___flmul@grs+3)^0,f,c
  7285  002440  502B               	movf	(___flmul@a+2)^0,w,c
  7286  002442  0226               	mulwf	(___flmul@b+1)^0,c
  7287  002444  CFF3 F03C          	movff	prodl,___flmul@temp
  7288  002448  CFF4 F03D          	movff	prodh,___flmul@temp+1
  7289  00244C  503C               	movf	___flmul@temp^0,w,c
  7290  00244E  2638               	addwf	___flmul@prod^0,f,c
  7291  002450  503D               	movf	(___flmul@temp+1)^0,w,c
  7292  002452  2239               	addwfc	(___flmul@prod+1)^0,f,c
  7293  002454  0E00               	movlw	0
  7294  002456  223A               	addwfc	(___flmul@prod+2)^0,f,c
  7295  002458  0E00               	movlw	0
  7296  00245A  223B               	addwfc	(___flmul@prod+3)^0,f,c
  7297  00245C  502A               	movf	(___flmul@a+1)^0,w,c
  7298  00245E  0227               	mulwf	(___flmul@b+2)^0,c
  7299  002460  CFF3 F03C          	movff	prodl,___flmul@temp
  7300  002464  CFF4 F03D          	movff	prodh,___flmul@temp+1
  7301  002468  503C               	movf	___flmul@temp^0,w,c
  7302  00246A  2638               	addwf	___flmul@prod^0,f,c
  7303  00246C  503D               	movf	(___flmul@temp+1)^0,w,c
  7304  00246E  2239               	addwfc	(___flmul@prod+1)^0,f,c
  7305  002470  0E00               	movlw	0
  7306  002472  223A               	addwfc	(___flmul@prod+2)^0,f,c
  7307  002474  0E00               	movlw	0
  7308  002476  223B               	addwfc	(___flmul@prod+3)^0,f,c
  7309  002478  502B               	movf	(___flmul@a+2)^0,w,c
  7310  00247A  0227               	mulwf	(___flmul@b+2)^0,c
  7311  00247C  CFF3 F03C          	movff	prodl,___flmul@temp
  7312  002480  CFF4 F03D          	movff	prodh,___flmul@temp+1
  7313  002484  503C               	movf	___flmul@temp^0,w,c
  7314  002486  6E2D               	movwf	??___flmul^0,c
  7315  002488  503D               	movf	(___flmul@temp+1)^0,w,c
  7316  00248A  6E2E               	movwf	(??___flmul+1)^0,c
  7317  00248C  6A2F               	clrf	(??___flmul+2)^0,c
  7318  00248E  6A30               	clrf	(??___flmul+3)^0,c
  7319  002490  C02F  F030         	movff	??___flmul+2,??___flmul+3
  7320  002494  C02E  F02F         	movff	??___flmul+1,??___flmul+2
  7321  002498  C02D  F02E         	movff	??___flmul,??___flmul+1
  7322  00249C  6A2D               	clrf	??___flmul^0,c
  7323  00249E  502D               	movf	??___flmul^0,w,c
  7324  0024A0  2638               	addwf	___flmul@prod^0,f,c
  7325  0024A2  502E               	movf	(??___flmul+1)^0,w,c
  7326  0024A4  2239               	addwfc	(___flmul@prod+1)^0,f,c
  7327  0024A6  502F               	movf	(??___flmul+2)^0,w,c
  7328  0024A8  223A               	addwfc	(___flmul@prod+2)^0,f,c
  7329  0024AA  5030               	movf	(??___flmul+3)^0,w,c
  7330  0024AC  223B               	addwfc	(___flmul@prod+3)^0,f,c
  7331  0024AE  C033  F02D         	movff	___flmul@grs,??___flmul
  7332  0024B2  C034  F02E         	movff	___flmul@grs+1,??___flmul+1
  7333  0024B6  C035  F02F         	movff	___flmul@grs+2,??___flmul+2
  7334  0024BA  C036  F030         	movff	___flmul@grs+3,??___flmul+3
  7335  0024BE  0E19               	movlw	25
  7336  0024C0  EF67  F012         	goto	u6650
  7337  0024C4                     u6655:
  7338  0024C4  90D8               	bcf	status,0,c
  7339  0024C6  3230               	rrcf	(??___flmul+3)^0,f,c
  7340  0024C8  322F               	rrcf	(??___flmul+2)^0,f,c
  7341  0024CA  322E               	rrcf	(??___flmul+1)^0,f,c
  7342  0024CC  322D               	rrcf	??___flmul^0,f,c
  7343  0024CE                     u6650:
  7344  0024CE  2EE8               	decfsz	wreg,f,c
  7345  0024D0  EF62  F012         	goto	u6655
  7346  0024D4  502D               	movf	??___flmul^0,w,c
  7347  0024D6  2638               	addwf	___flmul@prod^0,f,c
  7348  0024D8  502E               	movf	(??___flmul+1)^0,w,c
  7349  0024DA  2239               	addwfc	(___flmul@prod+1)^0,f,c
  7350  0024DC  502F               	movf	(??___flmul+2)^0,w,c
  7351  0024DE  223A               	addwfc	(___flmul@prod+2)^0,f,c
  7352  0024E0  5030               	movf	(??___flmul+3)^0,w,c
  7353  0024E2  223B               	addwfc	(___flmul@prod+3)^0,f,c
  7354  0024E4  C035  F036         	movff	___flmul@grs+2,___flmul@grs+3
  7355  0024E8  C034  F035         	movff	___flmul@grs+1,___flmul@grs+2
  7356  0024EC  C033  F034         	movff	___flmul@grs,___flmul@grs+1
  7357  0024F0  6A33               	clrf	___flmul@grs^0,c
  7358  0024F2  5032               	movf	___flmul@aexp^0,w,c
  7359  0024F4  C037  F02D         	movff	___flmul@bexp,??___flmul
  7360  0024F8  6A2E               	clrf	(??___flmul+1)^0,c
  7361  0024FA  262D               	addwf	??___flmul^0,f,c
  7362  0024FC  0E00               	movlw	0
  7363  0024FE  222E               	addwfc	(??___flmul+1)^0,f,c
  7364  002500  0E82               	movlw	130
  7365  002502  242D               	addwf	??___flmul^0,w,c
  7366  002504  6E3C               	movwf	___flmul@temp^0,c
  7367  002506  0EFF               	movlw	255
  7368  002508  202E               	addwfc	(??___flmul+1)^0,w,c
  7369  00250A  6E3D               	movwf	(___flmul@temp+1)^0,c
  7370  00250C  EF9D  F012         	goto	l4977
  7371  002510                     l4971:
  7372  002510  90D8               	bcf	status,0,c
  7373  002512  3638               	rlcf	___flmul@prod^0,f,c
  7374  002514  3639               	rlcf	(___flmul@prod+1)^0,f,c
  7375  002516  363A               	rlcf	(___flmul@prod+2)^0,f,c
  7376  002518  363B               	rlcf	(___flmul@prod+3)^0,f,c
  7377  00251A  AE36               	btfss	(___flmul@grs+3)^0,7,c
  7378  00251C  EF92  F012         	goto	u6661
  7379  002520  EF94  F012         	goto	u6660
  7380  002524                     u6661:
  7381  002524  EF95  F012         	goto	l766
  7382  002528                     u6660:
  7383  002528  8038               	bsf	___flmul@prod^0,0,c
  7384  00252A                     l766:
  7385  00252A  90D8               	bcf	status,0,c
  7386  00252C  3633               	rlcf	___flmul@grs^0,f,c
  7387  00252E  3634               	rlcf	(___flmul@grs+1)^0,f,c
  7388  002530  3635               	rlcf	(___flmul@grs+2)^0,f,c
  7389  002532  3636               	rlcf	(___flmul@grs+3)^0,f,c
  7390  002534  063C               	decf	___flmul@temp^0,f,c
  7391  002536  A0D8               	btfss	status,0,c
  7392  002538  063D               	decf	(___flmul@temp+1)^0,f,c
  7393  00253A                     l4977:
  7394  00253A  AE3A               	btfss	(___flmul@prod+2)^0,7,c
  7395  00253C  EFA2  F012         	goto	u6671
  7396  002540  EFA4  F012         	goto	u6670
  7397  002544                     u6671:
  7398  002544  EF88  F012         	goto	l4971
  7399  002548                     u6670:
  7400  002548  0E00               	movlw	0
  7401  00254A  6E32               	movwf	___flmul@aexp^0,c
  7402  00254C  AE36               	btfss	(___flmul@grs+3)^0,7,c
  7403  00254E  EFAB  F012         	goto	u6681
  7404  002552  EFAD  F012         	goto	u6680
  7405  002556                     u6681:
  7406  002556  EFD1  F012         	goto	l768
  7407  00255A                     u6680:
  7408  00255A  0EFF               	movlw	255
  7409  00255C  1433               	andwf	___flmul@grs^0,w,c
  7410  00255E  6E2D               	movwf	??___flmul^0,c
  7411  002560  0EFF               	movlw	255
  7412  002562  1434               	andwf	(___flmul@grs+1)^0,w,c
  7413  002564  6E2E               	movwf	(??___flmul+1)^0,c
  7414  002566  0EFF               	movlw	255
  7415  002568  1435               	andwf	(___flmul@grs+2)^0,w,c
  7416  00256A  6E2F               	movwf	(??___flmul+2)^0,c
  7417  00256C  0E7F               	movlw	127
  7418  00256E  1436               	andwf	(___flmul@grs+3)^0,w,c
  7419  002570  6E30               	movwf	(??___flmul+3)^0,c
  7420  002572  502D               	movf	??___flmul^0,w,c
  7421  002574  102E               	iorwf	(??___flmul+1)^0,w,c
  7422  002576  102F               	iorwf	(??___flmul+2)^0,w,c
  7423  002578  1030               	iorwf	(??___flmul+3)^0,w,c
  7424  00257A  B4D8               	btfsc	status,2,c
  7425  00257C  EFC2  F012         	goto	u6691
  7426  002580  EFC4  F012         	goto	u6690
  7427  002584                     u6691:
  7428  002584  EFC8  F012         	goto	l769
  7429  002588                     u6690:
  7430  002588                     l4985:
  7431  002588  0E01               	movlw	1
  7432  00258A  6E32               	movwf	___flmul@aexp^0,c
  7433  00258C  EFD1  F012         	goto	l768
  7434  002590                     l769:
  7435  002590  A038               	btfss	___flmul@prod^0,0,c
  7436  002592  EFCD  F012         	goto	u6701
  7437  002596  EFCF  F012         	goto	u6700
  7438  00259A                     u6701:
  7439  00259A  EFD1  F012         	goto	l768
  7440  00259E                     u6700:
  7441  00259E  EFC4  F012         	goto	l4985
  7442  0025A2                     l768:
  7443  0025A2  5032               	movf	___flmul@aexp^0,w,c
  7444  0025A4  B4D8               	btfsc	status,2,c
  7445  0025A6  EFD7  F012         	goto	u6711
  7446  0025AA  EFD9  F012         	goto	u6710
  7447  0025AE                     u6711:
  7448  0025AE  EFFD  F012         	goto	l4997
  7449  0025B2                     u6710:
  7450  0025B2  0E01               	movlw	1
  7451  0025B4  2638               	addwf	___flmul@prod^0,f,c
  7452  0025B6  0E00               	movlw	0
  7453  0025B8  2239               	addwfc	(___flmul@prod+1)^0,f,c
  7454  0025BA  223A               	addwfc	(___flmul@prod+2)^0,f,c
  7455  0025BC  223B               	addwfc	(___flmul@prod+3)^0,f,c
  7456  0025BE  A03B               	btfss	(___flmul@prod+3)^0,0,c
  7457  0025C0  EFE4  F012         	goto	u6721
  7458  0025C4  EFE6  F012         	goto	u6720
  7459  0025C8                     u6721:
  7460  0025C8  EFFD  F012         	goto	l4997
  7461  0025CC                     u6720:
  7462  0025CC  C038  F02D         	movff	___flmul@prod,??___flmul
  7463  0025D0  C039  F02E         	movff	___flmul@prod+1,??___flmul+1
  7464  0025D4  C03A  F02F         	movff	___flmul@prod+2,??___flmul+2
  7465  0025D8  C03B  F030         	movff	___flmul@prod+3,??___flmul+3
  7466  0025DC  3430               	rlcf	(??___flmul+3)^0,w,c
  7467  0025DE  3230               	rrcf	(??___flmul+3)^0,f,c
  7468  0025E0  322F               	rrcf	(??___flmul+2)^0,f,c
  7469  0025E2  322E               	rrcf	(??___flmul+1)^0,f,c
  7470  0025E4  322D               	rrcf	??___flmul^0,f,c
  7471  0025E6  C02D  F038         	movff	??___flmul,___flmul@prod
  7472  0025EA  C02E  F039         	movff	??___flmul+1,___flmul@prod+1
  7473  0025EE  C02F  F03A         	movff	??___flmul+2,___flmul@prod+2
  7474  0025F2  C030  F03B         	movff	??___flmul+3,___flmul@prod+3
  7475  0025F6  4A3C               	infsnz	___flmul@temp^0,f,c
  7476  0025F8  2A3D               	incf	(___flmul@temp+1)^0,f,c
  7477  0025FA                     l4997:
  7478  0025FA  BE3D               	btfsc	(___flmul@temp+1)^0,7,c
  7479  0025FC  EF08  F013         	goto	u6731
  7480  002600  503D               	movf	(___flmul@temp+1)^0,w,c
  7481  002602  E108               	bnz	u6730
  7482  002604  283C               	incf	___flmul@temp^0,w,c
  7483  002606  A0D8               	btfss	status,0,c
  7484  002608  EF08  F013         	goto	u6731
  7485  00260C  EF0A  F013         	goto	u6730
  7486  002610                     u6731:
  7487  002610  EF14  F013         	goto	l5001
  7488  002614                     u6730:
  7489  002614  0E00               	movlw	0
  7490  002616  6E38               	movwf	___flmul@prod^0,c
  7491  002618  0E00               	movlw	0
  7492  00261A  6E39               	movwf	(___flmul@prod+1)^0,c
  7493  00261C  0E80               	movlw	128
  7494  00261E  6E3A               	movwf	(___flmul@prod+2)^0,c
  7495  002620  0E7F               	movlw	127
  7496  002622  6E3B               	movwf	(___flmul@prod+3)^0,c
  7497  002624  EF42  F013         	goto	l5013
  7498  002628                     l5001:
  7499  002628  BE3D               	btfsc	(___flmul@temp+1)^0,7,c
  7500  00262A  EF21  F013         	goto	u6740
  7501  00262E  503D               	movf	(___flmul@temp+1)^0,w,c
  7502  002630  E106               	bnz	u6741
  7503  002632  043C               	decf	___flmul@temp^0,w,c
  7504  002634  B0D8               	btfsc	status,0,c
  7505  002636  EF1F  F013         	goto	u6741
  7506  00263A  EF21  F013         	goto	u6740
  7507  00263E                     u6741:
  7508  00263E  EF2D  F013         	goto	l776
  7509  002642                     u6740:
  7510  002642  0E00               	movlw	0
  7511  002644  6E38               	movwf	___flmul@prod^0,c
  7512  002646  0E00               	movlw	0
  7513  002648  6E39               	movwf	(___flmul@prod+1)^0,c
  7514  00264A  0E00               	movlw	0
  7515  00264C  6E3A               	movwf	(___flmul@prod+2)^0,c
  7516  00264E  0E00               	movlw	0
  7517  002650  6E3B               	movwf	(___flmul@prod+3)^0,c
  7518  002652  0E00               	movlw	0
  7519  002654  6E31               	movwf	___flmul@sign^0,c
  7520  002656  EF42  F013         	goto	l5013
  7521  00265A                     l776:
  7522  00265A  C03C  F037         	movff	___flmul@temp,___flmul@bexp
  7523  00265E  0EFF               	movlw	255
  7524  002660  1638               	andwf	___flmul@prod^0,f,c
  7525  002662  0EFF               	movlw	255
  7526  002664  1639               	andwf	(___flmul@prod+1)^0,f,c
  7527  002666  0E7F               	movlw	127
  7528  002668  163A               	andwf	(___flmul@prod+2)^0,f,c
  7529  00266A  0E00               	movlw	0
  7530  00266C  163B               	andwf	(___flmul@prod+3)^0,f,c
  7531  00266E  A037               	btfss	___flmul@bexp^0,0,c
  7532  002670  EF3C  F013         	goto	u6751
  7533  002674  EF3E  F013         	goto	u6750
  7534  002678                     u6751:
  7535  002678  EF3F  F013         	goto	l5011
  7536  00267C                     u6750:
  7537  00267C  8E3A               	bsf	(___flmul@prod+2)^0,7,c
  7538  00267E                     l5011:
  7539  00267E  90D8               	bcf	status,0,c
  7540  002680  3037               	rrcf	___flmul@bexp^0,w,c
  7541  002682  6E3B               	movwf	(___flmul@prod+3)^0,c
  7542  002684                     l5013:
  7543  002684  5031               	movf	___flmul@sign^0,w,c
  7544  002686  123B               	iorwf	(___flmul@prod+3)^0,f,c
  7545  002688  C038  F025         	movff	___flmul@prod,?___flmul
  7546  00268C  C039  F026         	movff	___flmul@prod+1,?___flmul+1
  7547  002690  C03A  F027         	movff	___flmul@prod+2,?___flmul+2
  7548  002694  C03B  F028         	movff	___flmul@prod+3,?___flmul+3
  7549  002698                     l763:
  7550  002698  0012               	return		;funcret
  7551  00269A                     __end_of___flmul:
  7552                           	callstack 0
  7553                           
  7554 ;; *************** function ___fldiv *****************
  7555 ;; Defined at:
  7556 ;;		line 11 in file "E:\MPLAB\pic\sources\c99\common\sprcdiv.c"
  7557 ;; Parameters:    Size  Location     Type
  7558 ;;  b               4    0[BANK0 ] unsigned char 
  7559 ;;  a               4    4[BANK0 ] unsigned char 
  7560 ;; Auto vars:     Size  Location     Type
  7561 ;;  grs             4   19[BANK0 ] unsigned long 
  7562 ;;  rem             4   12[BANK0 ] unsigned long 
  7563 ;;  new_exp         2   17[BANK0 ] short 
  7564 ;;  aexp            1   24[BANK0 ] unsigned char 
  7565 ;;  bexp            1   23[BANK0 ] unsigned char 
  7566 ;;  sign            1   16[BANK0 ] unsigned char 
  7567 ;; Return value:  Size  Location     Type
  7568 ;;                  4    0[BANK0 ] unsigned char 
  7569 ;; Registers used:
  7570 ;;		wreg, status,2, status,0
  7571 ;; Tracked objects:
  7572 ;;		On entry : 0/0
  7573 ;;		On exit  : 0/0
  7574 ;;		Unchanged: 0/0
  7575 ;; Data sizes:     COMRAM   BANK0   BANK1   BANK2   BANK3   BANK4   BANK5   BANK6   BANK7
  7576 ;;      Params:         0       8       0       0       0       0       0       0       0
  7577 ;;      Locals:         0      13       0       0       0       0       0       0       0
  7578 ;;      Temps:          0       4       0       0       0       0       0       0       0
  7579 ;;      Totals:         0      25       0       0       0       0       0       0       0
  7580 ;;Total ram usage:       25 bytes
  7581 ;; Hardware stack levels used: 1
  7582 ;; Hardware stack levels required when called: 2
  7583 ;; This function calls:
  7584 ;;		Nothing
  7585 ;; This function is called by:
  7586 ;;		_main
  7587 ;;		_set_duty_cpp1
  7588 ;;		_efgtoa
  7589 ;;		_set_duty_cpp2
  7590 ;; This function uses a non-reentrant model
  7591 ;;
  7592                           
  7593                           	psect	text30
  7594  00269A                     __ptext30:
  7595                           	callstack 0
  7596  00269A                     ___fldiv:
  7597                           	callstack 24
  7598  00269A  0100               	movlb	0	; () banked
  7599  00269C  5163               	movf	(___fldiv@b+3)& (0+255),w,b
  7600  00269E  0B80               	andlw	128
  7601  0026A0  6F70               	movwf	___fldiv@sign& (0+255),b
  7602  0026A2  5163               	movf	(___fldiv@b+3)& (0+255),w,b
  7603  0026A4  2563               	addwf	(___fldiv@b+3)& (0+255),w,b
  7604  0026A6  6F77               	movwf	___fldiv@bexp& (0+255),b
  7605  0026A8                     
  7606                           ; BSR set to: 0
  7607  0026A8  AF62               	btfss	(___fldiv@b+2)& (0+255),7,b
  7608  0026AA  EF59  F013         	goto	u6341
  7609  0026AE  EF5B  F013         	goto	u6340
  7610  0026B2                     u6341:
  7611  0026B2  EF5C  F013         	goto	l4757
  7612  0026B6                     u6340:
  7613  0026B6                     
  7614                           ; BSR set to: 0
  7615  0026B6  8177               	bsf	___fldiv@bexp& (0+255),0,b
  7616  0026B8                     l4757:
  7617                           
  7618                           ; BSR set to: 0
  7619  0026B8  5177               	movf	___fldiv@bexp& (0+255),w,b
  7620  0026BA  B4D8               	btfsc	status,2,c
  7621  0026BC  EF62  F013         	goto	u6351
  7622  0026C0  EF64  F013         	goto	u6350
  7623  0026C4                     u6351:
  7624  0026C4  EF79  F013         	goto	l4767
  7625  0026C8                     u6350:
  7626  0026C8                     
  7627                           ; BSR set to: 0
  7628  0026C8  2977               	incf	___fldiv@bexp& (0+255),w,b
  7629  0026CA  A4D8               	btfss	status,2,c
  7630  0026CC  EF6A  F013         	goto	u6361
  7631  0026D0  EF6C  F013         	goto	u6360
  7632  0026D4                     u6361:
  7633  0026D4  EF74  F013         	goto	l4763
  7634  0026D8                     u6360:
  7635  0026D8                     
  7636                           ; BSR set to: 0
  7637  0026D8  0E00               	movlw	0
  7638  0026DA  6F60               	movwf	___fldiv@b& (0+255),b
  7639  0026DC  0E00               	movlw	0
  7640  0026DE  6F61               	movwf	(___fldiv@b+1)& (0+255),b
  7641  0026E0  0E00               	movlw	0
  7642  0026E2  6F62               	movwf	(___fldiv@b+2)& (0+255),b
  7643  0026E4  0E00               	movlw	0
  7644  0026E6  6F63               	movwf	(___fldiv@b+3)& (0+255),b
  7645  0026E8                     l4763:
  7646                           
  7647                           ; BSR set to: 0
  7648  0026E8  8F62               	bsf	(___fldiv@b+2)& (0+255),7,b
  7649  0026EA                     
  7650                           ; BSR set to: 0
  7651  0026EA  0E00               	movlw	0
  7652  0026EC  6F63               	movwf	(___fldiv@b+3)& (0+255),b
  7653  0026EE  EF81  F013         	goto	l4769
  7654  0026F2                     l4767:
  7655                           
  7656                           ; BSR set to: 0
  7657  0026F2  0E00               	movlw	0
  7658  0026F4  6F60               	movwf	___fldiv@b& (0+255),b
  7659  0026F6  0E00               	movlw	0
  7660  0026F8  6F61               	movwf	(___fldiv@b+1)& (0+255),b
  7661  0026FA  0E00               	movlw	0
  7662  0026FC  6F62               	movwf	(___fldiv@b+2)& (0+255),b
  7663  0026FE  0E00               	movlw	0
  7664  002700  6F63               	movwf	(___fldiv@b+3)& (0+255),b
  7665  002702                     l4769:
  7666                           
  7667                           ; BSR set to: 0
  7668  002702  5167               	movf	(___fldiv@a+3)& (0+255),w,b
  7669  002704  0B80               	andlw	128
  7670  002706  1B70               	xorwf	___fldiv@sign& (0+255),f,b
  7671  002708                     
  7672                           ; BSR set to: 0
  7673  002708  5167               	movf	(___fldiv@a+3)& (0+255),w,b
  7674  00270A  2567               	addwf	(___fldiv@a+3)& (0+255),w,b
  7675  00270C  6F78               	movwf	___fldiv@aexp& (0+255),b
  7676  00270E                     
  7677                           ; BSR set to: 0
  7678  00270E  AF66               	btfss	(___fldiv@a+2)& (0+255),7,b
  7679  002710  EF8C  F013         	goto	u6371
  7680  002714  EF8E  F013         	goto	u6370
  7681  002718                     u6371:
  7682  002718  EF8F  F013         	goto	l4777
  7683  00271C                     u6370:
  7684  00271C                     
  7685                           ; BSR set to: 0
  7686  00271C  8178               	bsf	___fldiv@aexp& (0+255),0,b
  7687  00271E                     l4777:
  7688                           
  7689                           ; BSR set to: 0
  7690  00271E  5178               	movf	___fldiv@aexp& (0+255),w,b
  7691  002720  B4D8               	btfsc	status,2,c
  7692  002722  EF95  F013         	goto	u6381
  7693  002726  EF97  F013         	goto	u6380
  7694  00272A                     u6381:
  7695  00272A  EFAC  F013         	goto	l4787
  7696  00272E                     u6380:
  7697  00272E                     
  7698                           ; BSR set to: 0
  7699  00272E  2978               	incf	___fldiv@aexp& (0+255),w,b
  7700  002730  A4D8               	btfss	status,2,c
  7701  002732  EF9D  F013         	goto	u6391
  7702  002736  EF9F  F013         	goto	u6390
  7703  00273A                     u6391:
  7704  00273A  EFA7  F013         	goto	l4783
  7705  00273E                     u6390:
  7706  00273E                     
  7707                           ; BSR set to: 0
  7708  00273E  0E00               	movlw	0
  7709  002740  6F64               	movwf	___fldiv@a& (0+255),b
  7710  002742  0E00               	movlw	0
  7711  002744  6F65               	movwf	(___fldiv@a+1)& (0+255),b
  7712  002746  0E00               	movlw	0
  7713  002748  6F66               	movwf	(___fldiv@a+2)& (0+255),b
  7714  00274A  0E00               	movlw	0
  7715  00274C  6F67               	movwf	(___fldiv@a+3)& (0+255),b
  7716  00274E                     l4783:
  7717                           
  7718                           ; BSR set to: 0
  7719  00274E  8F66               	bsf	(___fldiv@a+2)& (0+255),7,b
  7720  002750                     
  7721                           ; BSR set to: 0
  7722  002750  0E00               	movlw	0
  7723  002752  6F67               	movwf	(___fldiv@a+3)& (0+255),b
  7724  002754  EFB4  F013         	goto	l4789
  7725  002758                     l4787:
  7726                           
  7727                           ; BSR set to: 0
  7728  002758  0E00               	movlw	0
  7729  00275A  6F64               	movwf	___fldiv@a& (0+255),b
  7730  00275C  0E00               	movlw	0
  7731  00275E  6F65               	movwf	(___fldiv@a+1)& (0+255),b
  7732  002760  0E00               	movlw	0
  7733  002762  6F66               	movwf	(___fldiv@a+2)& (0+255),b
  7734  002764  0E00               	movlw	0
  7735  002766  6F67               	movwf	(___fldiv@a+3)& (0+255),b
  7736  002768                     l4789:
  7737                           
  7738                           ; BSR set to: 0
  7739  002768  5164               	movf	___fldiv@a& (0+255),w,b
  7740  00276A  1165               	iorwf	(___fldiv@a+1)& (0+255),w,b
  7741  00276C  1166               	iorwf	(___fldiv@a+2)& (0+255),w,b
  7742  00276E  1167               	iorwf	(___fldiv@a+3)& (0+255),w,b
  7743  002770  A4D8               	btfss	status,2,c
  7744  002772  EFBD  F013         	goto	u6401
  7745  002776  EFBF  F013         	goto	u6400
  7746  00277A                     u6401:
  7747  00277A  EFD7  F013         	goto	l4801
  7748  00277E                     u6400:
  7749  00277E                     
  7750                           ; BSR set to: 0
  7751  00277E  0E00               	movlw	0
  7752  002780  6F60               	movwf	___fldiv@b& (0+255),b
  7753  002782  0E00               	movlw	0
  7754  002784  6F61               	movwf	(___fldiv@b+1)& (0+255),b
  7755  002786  0E00               	movlw	0
  7756  002788  6F62               	movwf	(___fldiv@b+2)& (0+255),b
  7757  00278A  0E00               	movlw	0
  7758  00278C  6F63               	movwf	(___fldiv@b+3)& (0+255),b
  7759  00278E                     
  7760                           ; BSR set to: 0
  7761  00278E  0E80               	movlw	128
  7762  002790  1362               	iorwf	(___fldiv@b+2)& (0+255),f,b
  7763  002792  0E7F               	movlw	127
  7764  002794  1363               	iorwf	(___fldiv@b+3)& (0+255),f,b
  7765  002796                     l4795:
  7766                           
  7767                           ; BSR set to: 0
  7768  002796  5170               	movf	___fldiv@sign& (0+255),w,b
  7769  002798  1363               	iorwf	(___fldiv@b+3)& (0+255),f,b
  7770  00279A                     
  7771                           ; BSR set to: 0
  7772  00279A  C060  F060         	movff	___fldiv@b,?___fldiv
  7773  00279E  C061  F061         	movff	___fldiv@b+1,?___fldiv+1
  7774  0027A2  C062  F062         	movff	___fldiv@b+2,?___fldiv+2
  7775  0027A6  C063  F063         	movff	___fldiv@b+3,?___fldiv+3
  7776  0027AA  EF1A  F015         	goto	l727
  7777  0027AE                     l4801:
  7778                           
  7779                           ; BSR set to: 0
  7780  0027AE  5177               	movf	___fldiv@bexp& (0+255),w,b
  7781  0027B0  A4D8               	btfss	status,2,c
  7782  0027B2  EFDD  F013         	goto	u6411
  7783  0027B6  EFDF  F013         	goto	u6410
  7784  0027BA                     u6411:
  7785  0027BA  EFE9  F013         	goto	l4809
  7786  0027BE                     u6410:
  7787  0027BE                     
  7788                           ; BSR set to: 0
  7789  0027BE  0E00               	movlw	0
  7790  0027C0  6F60               	movwf	?___fldiv& (0+255),b
  7791  0027C2  0E00               	movlw	0
  7792  0027C4  6F61               	movwf	(?___fldiv+1)& (0+255),b
  7793  0027C6  0E00               	movlw	0
  7794  0027C8  6F62               	movwf	(?___fldiv+2)& (0+255),b
  7795  0027CA  0E00               	movlw	0
  7796  0027CC  6F63               	movwf	(?___fldiv+3)& (0+255),b
  7797  0027CE  EF1A  F015         	goto	l727
  7798  0027D2                     l4809:
  7799                           
  7800                           ; BSR set to: 0
  7801  0027D2  5178               	movf	___fldiv@aexp& (0+255),w,b
  7802  0027D4  C077  F068         	movff	___fldiv@bexp,??___fldiv
  7803  0027D8  6B69               	clrf	(??___fldiv+1)& (0+255),b
  7804  0027DA  5F68               	subwf	??___fldiv& (0+255),f,b
  7805  0027DC  0E00               	movlw	0
  7806  0027DE  5B69               	subwfb	(??___fldiv+1)& (0+255),f,b
  7807  0027E0  0E7F               	movlw	127
  7808  0027E2  2568               	addwf	??___fldiv& (0+255),w,b
  7809  0027E4  6F71               	movwf	___fldiv@new_exp& (0+255),b
  7810  0027E6  0E00               	movlw	0
  7811  0027E8  2169               	addwfc	(??___fldiv+1)& (0+255),w,b
  7812  0027EA  6F72               	movwf	(___fldiv@new_exp+1)& (0+255),b
  7813  0027EC                     
  7814                           ; BSR set to: 0
  7815  0027EC  C060  F06C         	movff	___fldiv@b,___fldiv@rem
  7816  0027F0  C061  F06D         	movff	___fldiv@b+1,___fldiv@rem+1
  7817  0027F4  C062  F06E         	movff	___fldiv@b+2,___fldiv@rem+2
  7818  0027F8  C063  F06F         	movff	___fldiv@b+3,___fldiv@rem+3
  7819  0027FC                     
  7820                           ; BSR set to: 0
  7821  0027FC  0E00               	movlw	0
  7822  0027FE  6F60               	movwf	___fldiv@b& (0+255),b
  7823  002800  0E00               	movlw	0
  7824  002802  6F61               	movwf	(___fldiv@b+1)& (0+255),b
  7825  002804  0E00               	movlw	0
  7826  002806  6F62               	movwf	(___fldiv@b+2)& (0+255),b
  7827  002808  0E00               	movlw	0
  7828  00280A  6F63               	movwf	(___fldiv@b+3)& (0+255),b
  7829  00280C                     
  7830                           ; BSR set to: 0
  7831  00280C  0E00               	movlw	0
  7832  00280E  6F73               	movwf	___fldiv@grs& (0+255),b
  7833  002810  0E00               	movlw	0
  7834  002812  6F74               	movwf	(___fldiv@grs+1)& (0+255),b
  7835  002814  0E00               	movlw	0
  7836  002816  6F75               	movwf	(___fldiv@grs+2)& (0+255),b
  7837  002818  0E00               	movlw	0
  7838  00281A  6F76               	movwf	(___fldiv@grs+3)& (0+255),b
  7839  00281C                     
  7840                           ; BSR set to: 0
  7841  00281C  0E00               	movlw	0
  7842  00281E  6F78               	movwf	___fldiv@aexp& (0+255),b
  7843  002820  EF4A  F014         	goto	l729
  7844  002824                     l4819:
  7845                           
  7846                           ; BSR set to: 0
  7847  002824  5178               	movf	___fldiv@aexp& (0+255),w,b
  7848  002826  B4D8               	btfsc	status,2,c
  7849  002828  EF18  F014         	goto	u6421
  7850  00282C  EF1A  F014         	goto	u6420
  7851  002830                     u6421:
  7852  002830  EF31  F014         	goto	l4827
  7853  002834                     u6420:
  7854  002834                     
  7855                           ; BSR set to: 0
  7856  002834  90D8               	bcf	status,0,c
  7857  002836  376C               	rlcf	___fldiv@rem& (0+255),f,b
  7858  002838  376D               	rlcf	(___fldiv@rem+1)& (0+255),f,b
  7859  00283A  376E               	rlcf	(___fldiv@rem+2)& (0+255),f,b
  7860  00283C  376F               	rlcf	(___fldiv@rem+3)& (0+255),f,b
  7861  00283E  90D8               	bcf	status,0,c
  7862  002840  3760               	rlcf	___fldiv@b& (0+255),f,b
  7863  002842  3761               	rlcf	(___fldiv@b+1)& (0+255),f,b
  7864  002844  3762               	rlcf	(___fldiv@b+2)& (0+255),f,b
  7865  002846  3763               	rlcf	(___fldiv@b+3)& (0+255),f,b
  7866  002848                     
  7867                           ; BSR set to: 0
  7868  002848  AF76               	btfss	(___fldiv@grs+3)& (0+255),7,b
  7869  00284A  EF29  F014         	goto	u6431
  7870  00284E  EF2B  F014         	goto	u6430
  7871  002852                     u6431:
  7872  002852  EF2C  F014         	goto	l732
  7873  002856                     u6430:
  7874  002856                     
  7875                           ; BSR set to: 0
  7876  002856  8160               	bsf	___fldiv@b& (0+255),0,b
  7877  002858                     l732:
  7878                           
  7879                           ; BSR set to: 0
  7880  002858  90D8               	bcf	status,0,c
  7881  00285A  3773               	rlcf	___fldiv@grs& (0+255),f,b
  7882  00285C  3774               	rlcf	(___fldiv@grs+1)& (0+255),f,b
  7883  00285E  3775               	rlcf	(___fldiv@grs+2)& (0+255),f,b
  7884  002860  3776               	rlcf	(___fldiv@grs+3)& (0+255),f,b
  7885  002862                     l4827:
  7886                           
  7887                           ; BSR set to: 0
  7888  002862  5164               	movf	___fldiv@a& (0+255),w,b
  7889  002864  5D6C               	subwf	___fldiv@rem& (0+255),w,b
  7890  002866  5165               	movf	(___fldiv@a+1)& (0+255),w,b
  7891  002868  596D               	subwfb	(___fldiv@rem+1)& (0+255),w,b
  7892  00286A  5166               	movf	(___fldiv@a+2)& (0+255),w,b
  7893  00286C  596E               	subwfb	(___fldiv@rem+2)& (0+255),w,b
  7894  00286E  5167               	movf	(___fldiv@a+3)& (0+255),w,b
  7895  002870  596F               	subwfb	(___fldiv@rem+3)& (0+255),w,b
  7896  002872  A0D8               	btfss	status,0,c
  7897  002874  EF3E  F014         	goto	u6441
  7898  002878  EF40  F014         	goto	u6440
  7899  00287C                     u6441:
  7900  00287C  EF49  F014         	goto	l4833
  7901  002880                     u6440:
  7902  002880                     
  7903                           ; BSR set to: 0
  7904  002880  8D76               	bsf	(___fldiv@grs+3)& (0+255),6,b
  7905  002882                     
  7906                           ; BSR set to: 0
  7907  002882  5164               	movf	___fldiv@a& (0+255),w,b
  7908  002884  5F6C               	subwf	___fldiv@rem& (0+255),f,b
  7909  002886  5165               	movf	(___fldiv@a+1)& (0+255),w,b
  7910  002888  5B6D               	subwfb	(___fldiv@rem+1)& (0+255),f,b
  7911  00288A  5166               	movf	(___fldiv@a+2)& (0+255),w,b
  7912  00288C  5B6E               	subwfb	(___fldiv@rem+2)& (0+255),f,b
  7913  00288E  5167               	movf	(___fldiv@a+3)& (0+255),w,b
  7914  002890  5B6F               	subwfb	(___fldiv@rem+3)& (0+255),f,b
  7915  002892                     l4833:
  7916                           
  7917                           ; BSR set to: 0
  7918  002892  2B78               	incf	___fldiv@aexp& (0+255),f,b
  7919  002894                     l729:
  7920                           
  7921                           ; BSR set to: 0
  7922  002894  0E19               	movlw	25
  7923  002896  6578               	cpfsgt	___fldiv@aexp& (0+255),b
  7924  002898  EF50  F014         	goto	u6451
  7925  00289C  EF52  F014         	goto	u6450
  7926  0028A0                     u6451:
  7927  0028A0  EF12  F014         	goto	l4819
  7928  0028A4                     u6450:
  7929  0028A4                     
  7930                           ; BSR set to: 0
  7931  0028A4  516C               	movf	___fldiv@rem& (0+255),w,b
  7932  0028A6  116D               	iorwf	(___fldiv@rem+1)& (0+255),w,b
  7933  0028A8  116E               	iorwf	(___fldiv@rem+2)& (0+255),w,b
  7934  0028AA  116F               	iorwf	(___fldiv@rem+3)& (0+255),w,b
  7935  0028AC  B4D8               	btfsc	status,2,c
  7936  0028AE  EF5B  F014         	goto	u6461
  7937  0028B2  EF5D  F014         	goto	u6460
  7938  0028B6                     u6461:
  7939  0028B6  EF75  F014         	goto	l4845
  7940  0028BA                     u6460:
  7941  0028BA                     
  7942                           ; BSR set to: 0
  7943  0028BA  8173               	bsf	___fldiv@grs& (0+255),0,b
  7944  0028BC  EF75  F014         	goto	l4845
  7945  0028C0                     l4839:
  7946                           
  7947                           ; BSR set to: 0
  7948  0028C0  90D8               	bcf	status,0,c
  7949  0028C2  3760               	rlcf	___fldiv@b& (0+255),f,b
  7950  0028C4  3761               	rlcf	(___fldiv@b+1)& (0+255),f,b
  7951  0028C6  3762               	rlcf	(___fldiv@b+2)& (0+255),f,b
  7952  0028C8  3763               	rlcf	(___fldiv@b+3)& (0+255),f,b
  7953  0028CA                     
  7954                           ; BSR set to: 0
  7955  0028CA  AF76               	btfss	(___fldiv@grs+3)& (0+255),7,b
  7956  0028CC  EF6A  F014         	goto	u6471
  7957  0028D0  EF6C  F014         	goto	u6470
  7958  0028D4                     u6471:
  7959  0028D4  EF6D  F014         	goto	l738
  7960  0028D8                     u6470:
  7961  0028D8                     
  7962                           ; BSR set to: 0
  7963  0028D8  8160               	bsf	___fldiv@b& (0+255),0,b
  7964  0028DA                     l738:
  7965                           
  7966                           ; BSR set to: 0
  7967  0028DA  90D8               	bcf	status,0,c
  7968  0028DC  3773               	rlcf	___fldiv@grs& (0+255),f,b
  7969  0028DE  3774               	rlcf	(___fldiv@grs+1)& (0+255),f,b
  7970  0028E0  3775               	rlcf	(___fldiv@grs+2)& (0+255),f,b
  7971  0028E2  3776               	rlcf	(___fldiv@grs+3)& (0+255),f,b
  7972  0028E4  0771               	decf	___fldiv@new_exp& (0+255),f,b
  7973  0028E6  A0D8               	btfss	status,0,c
  7974  0028E8  0772               	decf	(___fldiv@new_exp+1)& (0+255),f,b
  7975  0028EA                     l4845:
  7976                           
  7977                           ; BSR set to: 0
  7978  0028EA  AF62               	btfss	(___fldiv@b+2)& (0+255),7,b
  7979  0028EC  EF7A  F014         	goto	u6481
  7980  0028F0  EF7C  F014         	goto	u6480
  7981  0028F4                     u6481:
  7982  0028F4  EF60  F014         	goto	l4839
  7983  0028F8                     u6480:
  7984  0028F8                     
  7985                           ; BSR set to: 0
  7986  0028F8  0E00               	movlw	0
  7987  0028FA  6F78               	movwf	___fldiv@aexp& (0+255),b
  7988  0028FC                     
  7989                           ; BSR set to: 0
  7990  0028FC  AF76               	btfss	(___fldiv@grs+3)& (0+255),7,b
  7991  0028FE  EF83  F014         	goto	u6491
  7992  002902  EF85  F014         	goto	u6490
  7993  002906                     u6491:
  7994  002906  EFA9  F014         	goto	l740
  7995  00290A                     u6490:
  7996  00290A                     
  7997                           ; BSR set to: 0
  7998  00290A  0EFF               	movlw	255
  7999  00290C  1573               	andwf	___fldiv@grs& (0+255),w,b
  8000  00290E  6F68               	movwf	??___fldiv& (0+255),b
  8001  002910  0EFF               	movlw	255
  8002  002912  1574               	andwf	(___fldiv@grs+1)& (0+255),w,b
  8003  002914  6F69               	movwf	(??___fldiv+1)& (0+255),b
  8004  002916  0EFF               	movlw	255
  8005  002918  1575               	andwf	(___fldiv@grs+2)& (0+255),w,b
  8006  00291A  6F6A               	movwf	(??___fldiv+2)& (0+255),b
  8007  00291C  0E7F               	movlw	127
  8008  00291E  1576               	andwf	(___fldiv@grs+3)& (0+255),w,b
  8009  002920  6F6B               	movwf	(??___fldiv+3)& (0+255),b
  8010  002922  5168               	movf	??___fldiv& (0+255),w,b
  8011  002924  1169               	iorwf	(??___fldiv+1)& (0+255),w,b
  8012  002926  116A               	iorwf	(??___fldiv+2)& (0+255),w,b
  8013  002928  116B               	iorwf	(??___fldiv+3)& (0+255),w,b
  8014  00292A  B4D8               	btfsc	status,2,c
  8015  00292C  EF9A  F014         	goto	u6501
  8016  002930  EF9C  F014         	goto	u6500
  8017  002934                     u6501:
  8018  002934  EFA0  F014         	goto	l741
  8019  002938                     u6500:
  8020  002938                     l4853:
  8021                           
  8022                           ; BSR set to: 0
  8023  002938  0E01               	movlw	1
  8024  00293A  6F78               	movwf	___fldiv@aexp& (0+255),b
  8025  00293C  EFA9  F014         	goto	l740
  8026  002940                     l741:
  8027                           
  8028                           ; BSR set to: 0
  8029  002940  A160               	btfss	___fldiv@b& (0+255),0,b
  8030  002942  EFA5  F014         	goto	u6511
  8031  002946  EFA7  F014         	goto	u6510
  8032  00294A                     u6511:
  8033  00294A  EFA9  F014         	goto	l740
  8034  00294E                     u6510:
  8035  00294E  EF9C  F014         	goto	l4853
  8036  002952                     l740:
  8037                           
  8038                           ; BSR set to: 0
  8039  002952  5178               	movf	___fldiv@aexp& (0+255),w,b
  8040  002954  B4D8               	btfsc	status,2,c
  8041  002956  EFAF  F014         	goto	u6521
  8042  00295A  EFB1  F014         	goto	u6520
  8043  00295E                     u6521:
  8044  00295E  EFD5  F014         	goto	l4865
  8045  002962                     u6520:
  8046  002962                     
  8047                           ; BSR set to: 0
  8048  002962  0E01               	movlw	1
  8049  002964  2760               	addwf	___fldiv@b& (0+255),f,b
  8050  002966  0E00               	movlw	0
  8051  002968  2361               	addwfc	(___fldiv@b+1)& (0+255),f,b
  8052  00296A  2362               	addwfc	(___fldiv@b+2)& (0+255),f,b
  8053  00296C  2363               	addwfc	(___fldiv@b+3)& (0+255),f,b
  8054  00296E                     
  8055                           ; BSR set to: 0
  8056  00296E  A163               	btfss	(___fldiv@b+3)& (0+255),0,b
  8057  002970  EFBC  F014         	goto	u6531
  8058  002974  EFBE  F014         	goto	u6530
  8059  002978                     u6531:
  8060  002978  EFD5  F014         	goto	l4865
  8061  00297C                     u6530:
  8062  00297C                     
  8063                           ; BSR set to: 0
  8064  00297C  C060  F068         	movff	___fldiv@b,??___fldiv
  8065  002980  C061  F069         	movff	___fldiv@b+1,??___fldiv+1
  8066  002984  C062  F06A         	movff	___fldiv@b+2,??___fldiv+2
  8067  002988  C063  F06B         	movff	___fldiv@b+3,??___fldiv+3
  8068  00298C  356B               	rlcf	(??___fldiv+3)& (0+255),w,b
  8069  00298E  336B               	rrcf	(??___fldiv+3)& (0+255),f,b
  8070  002990  336A               	rrcf	(??___fldiv+2)& (0+255),f,b
  8071  002992  3369               	rrcf	(??___fldiv+1)& (0+255),f,b
  8072  002994  3368               	rrcf	??___fldiv& (0+255),f,b
  8073  002996  C068  F060         	movff	??___fldiv,___fldiv@b
  8074  00299A  C069  F061         	movff	??___fldiv+1,___fldiv@b+1
  8075  00299E  C06A  F062         	movff	??___fldiv+2,___fldiv@b+2
  8076  0029A2  C06B  F063         	movff	??___fldiv+3,___fldiv@b+3
  8077  0029A6                     
  8078                           ; BSR set to: 0
  8079  0029A6  4B71               	infsnz	___fldiv@new_exp& (0+255),f,b
  8080  0029A8  2B72               	incf	(___fldiv@new_exp+1)& (0+255),f,b
  8081  0029AA                     l4865:
  8082                           
  8083                           ; BSR set to: 0
  8084  0029AA  BF72               	btfsc	(___fldiv@new_exp+1)& (0+255),7,b
  8085  0029AC  EFE0  F014         	goto	u6541
  8086  0029B0  5172               	movf	(___fldiv@new_exp+1)& (0+255),w,b
  8087  0029B2  E108               	bnz	u6540
  8088  0029B4  2971               	incf	___fldiv@new_exp& (0+255),w,b
  8089  0029B6  A0D8               	btfss	status,0,c
  8090  0029B8  EFE0  F014         	goto	u6541
  8091  0029BC  EFE2  F014         	goto	u6540
  8092  0029C0                     u6541:
  8093  0029C0  EFED  F014         	goto	l4869
  8094  0029C4                     u6540:
  8095  0029C4                     
  8096                           ; BSR set to: 0
  8097  0029C4  0E00               	movlw	0
  8098  0029C6  6F72               	movwf	(___fldiv@new_exp+1)& (0+255),b
  8099  0029C8  6971               	setf	___fldiv@new_exp& (0+255),b
  8100  0029CA  0E00               	movlw	0
  8101  0029CC  6F60               	movwf	___fldiv@b& (0+255),b
  8102  0029CE  0E00               	movlw	0
  8103  0029D0  6F61               	movwf	(___fldiv@b+1)& (0+255),b
  8104  0029D2  0E00               	movlw	0
  8105  0029D4  6F62               	movwf	(___fldiv@b+2)& (0+255),b
  8106  0029D6  0E00               	movlw	0
  8107  0029D8  6F63               	movwf	(___fldiv@b+3)& (0+255),b
  8108  0029DA                     l4869:
  8109                           
  8110                           ; BSR set to: 0
  8111  0029DA  BF72               	btfsc	(___fldiv@new_exp+1)& (0+255),7,b
  8112  0029DC  EFFA  F014         	goto	u6550
  8113  0029E0  5172               	movf	(___fldiv@new_exp+1)& (0+255),w,b
  8114  0029E2  E106               	bnz	u6551
  8115  0029E4  0571               	decf	___fldiv@new_exp& (0+255),w,b
  8116  0029E6  B0D8               	btfsc	status,0,c
  8117  0029E8  EFF8  F014         	goto	u6551
  8118  0029EC  EFFA  F014         	goto	u6550
  8119  0029F0                     u6551:
  8120  0029F0  EF08  F015         	goto	l4873
  8121  0029F4                     u6550:
  8122  0029F4                     
  8123                           ; BSR set to: 0
  8124  0029F4  0E00               	movlw	0
  8125  0029F6  6F72               	movwf	(___fldiv@new_exp+1)& (0+255),b
  8126  0029F8  0E00               	movlw	0
  8127  0029FA  6F71               	movwf	___fldiv@new_exp& (0+255),b
  8128  0029FC  0E00               	movlw	0
  8129  0029FE  6F60               	movwf	___fldiv@b& (0+255),b
  8130  002A00  0E00               	movlw	0
  8131  002A02  6F61               	movwf	(___fldiv@b+1)& (0+255),b
  8132  002A04  0E00               	movlw	0
  8133  002A06  6F62               	movwf	(___fldiv@b+2)& (0+255),b
  8134  002A08  0E00               	movlw	0
  8135  002A0A  6F63               	movwf	(___fldiv@b+3)& (0+255),b
  8136  002A0C  0E00               	movlw	0
  8137  002A0E  6F70               	movwf	___fldiv@sign& (0+255),b
  8138  002A10                     l4873:
  8139                           
  8140                           ; BSR set to: 0
  8141  002A10  C071  F077         	movff	___fldiv@new_exp,___fldiv@bexp
  8142  002A14                     
  8143                           ; BSR set to: 0
  8144  002A14  A177               	btfss	___fldiv@bexp& (0+255),0,b
  8145  002A16  EF0F  F015         	goto	u6561
  8146  002A1A  EF11  F015         	goto	u6560
  8147  002A1E                     u6561:
  8148  002A1E  EF14  F015         	goto	l4879
  8149  002A22                     u6560:
  8150  002A22                     
  8151                           ; BSR set to: 0
  8152  002A22  8F62               	bsf	(___fldiv@b+2)& (0+255),7,b
  8153  002A24  EF15  F015         	goto	l4881
  8154  002A28                     l4879:
  8155                           
  8156                           ; BSR set to: 0
  8157  002A28  9F62               	bcf	(___fldiv@b+2)& (0+255),7,b
  8158  002A2A                     l4881:
  8159                           
  8160                           ; BSR set to: 0
  8161  002A2A  90D8               	bcf	status,0,c
  8162  002A2C  3177               	rrcf	___fldiv@bexp& (0+255),w,b
  8163  002A2E  6F63               	movwf	(___fldiv@b+3)& (0+255),b
  8164  002A30  EFCB  F013         	goto	l4795
  8165  002A34                     l727:
  8166                           
  8167                           ; BSR set to: 0
  8168  002A34  0012               	return		;funcret
  8169  002A36                     __end_of___fldiv:
  8170                           	callstack 0
  8171                           
  8172 ;; *************** function _pwm_init *****************
  8173 ;; Defined at:
  8174 ;;		line 108 in file "librerias.c"
  8175 ;; Parameters:    Size  Location     Type
  8176 ;;  pwm1            1    wreg     _Bool 
  8177 ;;  pwm2            1   16[COMRAM] _Bool 
  8178 ;; Auto vars:     Size  Location     Type
  8179 ;;  pwm1            1   17[COMRAM] _Bool 
  8180 ;; Return value:  Size  Location     Type
  8181 ;;                  1    wreg      void 
  8182 ;; Registers used:
  8183 ;;		wreg, status,2, status,0
  8184 ;; Tracked objects:
  8185 ;;		On entry : 0/0
  8186 ;;		On exit  : 0/0
  8187 ;;		Unchanged: 0/0
  8188 ;; Data sizes:     COMRAM   BANK0   BANK1   BANK2   BANK3   BANK4   BANK5   BANK6   BANK7
  8189 ;;      Params:         1       0       0       0       0       0       0       0       0
  8190 ;;      Locals:         1       0       0       0       0       0       0       0       0
  8191 ;;      Temps:          0       0       0       0       0       0       0       0       0
  8192 ;;      Totals:         2       0       0       0       0       0       0       0       0
  8193 ;;Total ram usage:        2 bytes
  8194 ;; Hardware stack levels used: 1
  8195 ;; Hardware stack levels required when called: 2
  8196 ;; This function calls:
  8197 ;;		Nothing
  8198 ;; This function is called by:
  8199 ;;		_main
  8200 ;; This function uses a non-reentrant model
  8201 ;;
  8202                           
  8203                           	psect	text31
  8204  00391E                     __ptext31:
  8205                           	callstack 0
  8206  00391E                     _pwm_init:
  8207                           	callstack 28
  8208                           
  8209                           ; BSR set to: 0
  8210                           ;incstack = 0
  8211                           ;pwm_init@pwm1 stored from wreg
  8212  00391E  6E12               	movwf	pwm_init@pwm1^0,c
  8213  003920                     
  8214                           ;librerias.c: 115:     PR2 = 249;
  8215  003920  0EF9               	movlw	249
  8216  003922  6ECB               	movwf	203,c	;volatile
  8217  003924                     
  8218                           ;librerias.c: 117:     if (pwm1 == 1 && pwm2 == 1){
  8219  003924  0412               	decf	pwm_init@pwm1^0,w,c
  8220  003926  A4D8               	btfss	status,2,c
  8221  003928  EF98  F01C         	goto	u5391
  8222  00392C  EF9A  F01C         	goto	u5390
  8223  003930                     u5391:
  8224  003930  EFAC  F01C         	goto	l4201
  8225  003934                     u5390:
  8226  003934  0411               	decf	pwm_init@pwm2^0,w,c
  8227  003936  A4D8               	btfss	status,2,c
  8228  003938  EFA0  F01C         	goto	u5401
  8229  00393C  EFA2  F01C         	goto	u5400
  8230  003940                     u5401:
  8231  003940  EFAC  F01C         	goto	l4201
  8232  003944                     u5400:
  8233  003944                     
  8234                           ;librerias.c: 119:         CCP1CON = 0x0C;
  8235  003944  0E0C               	movlw	12
  8236  003946  6EBD               	movwf	189,c	;volatile
  8237                           
  8238                           ;librerias.c: 120:         CCPR1L = 0;
  8239  003948  0E00               	movlw	0
  8240  00394A  6EBE               	movwf	190,c	;volatile
  8241                           
  8242                           ;librerias.c: 122:         CCP2CON = 0x0C;
  8243  00394C  0E0C               	movlw	12
  8244  00394E  6EBA               	movwf	186,c	;volatile
  8245                           
  8246                           ;librerias.c: 123:         CCPR2L = 0;
  8247  003950  0E00               	movlw	0
  8248  003952  6EBB               	movwf	187,c	;volatile
  8249                           
  8250                           ;librerias.c: 125:     }else if(pwm1 == 1 && pwm2 == 0){
  8251  003954  EFD6  F01C         	goto	l132
  8252  003958                     l4201:
  8253  003958  0412               	decf	pwm_init@pwm1^0,w,c
  8254  00395A  A4D8               	btfss	status,2,c
  8255  00395C  EFB2  F01C         	goto	u5411
  8256  003960  EFB4  F01C         	goto	u5410
  8257  003964                     u5411:
  8258  003964  EFC2  F01C         	goto	l4207
  8259  003968                     u5410:
  8260  003968  5011               	movf	pwm_init@pwm2^0,w,c
  8261  00396A  A4D8               	btfss	status,2,c
  8262  00396C  EFBA  F01C         	goto	u5421
  8263  003970  EFBC  F01C         	goto	u5420
  8264  003974                     u5421:
  8265  003974  EFC2  F01C         	goto	l4207
  8266  003978                     u5420:
  8267  003978                     
  8268                           ;librerias.c: 127:         CCP1CON = 0x0C;
  8269  003978  0E0C               	movlw	12
  8270  00397A  6EBD               	movwf	189,c	;volatile
  8271                           
  8272                           ;librerias.c: 128:         CCPR1L = 0;
  8273  00397C  0E00               	movlw	0
  8274  00397E  6EBE               	movwf	190,c	;volatile
  8275                           
  8276                           ;librerias.c: 130:     }else if(pwm1 == 0 && pwm2 == 1){
  8277  003980  EFD6  F01C         	goto	l132
  8278  003984                     l4207:
  8279  003984  5012               	movf	pwm_init@pwm1^0,w,c
  8280  003986  A4D8               	btfss	status,2,c
  8281  003988  EFC8  F01C         	goto	u5431
  8282  00398C  EFCA  F01C         	goto	u5430
  8283  003990                     u5431:
  8284  003990  EFD6  F01C         	goto	l132
  8285  003994                     u5430:
  8286  003994  0411               	decf	pwm_init@pwm2^0,w,c
  8287  003996  A4D8               	btfss	status,2,c
  8288  003998  EFD0  F01C         	goto	u5441
  8289  00399C  EFD2  F01C         	goto	u5440
  8290  0039A0                     u5441:
  8291  0039A0  EFD6  F01C         	goto	l132
  8292  0039A4                     u5440:
  8293  0039A4                     
  8294                           ;librerias.c: 132:         CCP2CON = 0x0C;
  8295  0039A4  0E0C               	movlw	12
  8296  0039A6  6EBA               	movwf	186,c	;volatile
  8297                           
  8298                           ;librerias.c: 133:         CCPR2L = 0;
  8299  0039A8  0E00               	movlw	0
  8300  0039AA  6EBB               	movwf	187,c	;volatile
  8301  0039AC                     l132:
  8302                           
  8303                           ;librerias.c: 136:     T2CON = 0;
  8304  0039AC  0E00               	movlw	0
  8305  0039AE  6ECA               	movwf	202,c	;volatile
  8306                           
  8307                           ;librerias.c: 137:     T2CONbits.T2CKPS = 0b01;
  8308  0039B0  50CA               	movf	202,w,c	;volatile
  8309  0039B2  0BFC               	andlw	-4
  8310  0039B4  0901               	iorlw	1
  8311  0039B6  6ECA               	movwf	202,c	;volatile
  8312                           
  8313                           ;librerias.c: 138:     TMR2 = 0;
  8314  0039B8  0E00               	movlw	0
  8315  0039BA  6ECC               	movwf	204,c	;volatile
  8316  0039BC                     
  8317                           ;librerias.c: 139:     T2CONbits.TMR2ON = 1;
  8318  0039BC  84CA               	bsf	202,2,c	;volatile
  8319  0039BE  0012               	return		;funcret
  8320  0039C0                     __end_of_pwm_init:
  8321                           	callstack 0
  8322                           
  8323 ;; *************** function _config_interrup_cero *****************
  8324 ;; Defined at:
  8325 ;;		line 11 in file "librerias.c"
  8326 ;; Parameters:    Size  Location     Type
  8327 ;;  edge            1    wreg     _Bool 
  8328 ;; Auto vars:     Size  Location     Type
  8329 ;;  edge            1   16[COMRAM] _Bool 
  8330 ;; Return value:  Size  Location     Type
  8331 ;;                  1    wreg      void 
  8332 ;; Registers used:
  8333 ;;		wreg
  8334 ;; Tracked objects:
  8335 ;;		On entry : 0/0
  8336 ;;		On exit  : 0/0
  8337 ;;		Unchanged: 0/0
  8338 ;; Data sizes:     COMRAM   BANK0   BANK1   BANK2   BANK3   BANK4   BANK5   BANK6   BANK7
  8339 ;;      Params:         0       0       0       0       0       0       0       0       0
  8340 ;;      Locals:         1       0       0       0       0       0       0       0       0
  8341 ;;      Temps:          0       0       0       0       0       0       0       0       0
  8342 ;;      Totals:         1       0       0       0       0       0       0       0       0
  8343 ;;Total ram usage:        1 bytes
  8344 ;; Hardware stack levels used: 1
  8345 ;; Hardware stack levels required when called: 2
  8346 ;; This function calls:
  8347 ;;		Nothing
  8348 ;; This function is called by:
  8349 ;;		_main
  8350 ;;		_config_all_interrup
  8351 ;; This function uses a non-reentrant model
  8352 ;;
  8353                           
  8354                           	psect	text32
  8355  003EF2                     __ptext32:
  8356                           	callstack 0
  8357  003EF2                     _config_interrup_cero:
  8358                           	callstack 28
  8359                           
  8360                           ;incstack = 0
  8361                           ;config_interrup_cero@edge stored from wreg
  8362  003EF2  6E11               	movwf	config_interrup_cero@edge^0,c
  8363  003EF4                     
  8364                           ;librerias.c: 13:     TRISBbits.RB0 = 1;
  8365  003EF4  8093               	bsf	147,0,c	;volatile
  8366  003EF6                     
  8367                           ;librerias.c: 14:     INTCON2bits.INTEDG0 = edge;
  8368  003EF6  B011               	btfsc	config_interrup_cero@edge^0,0,c
  8369  003EF8  D002               	bra	u5375
  8370  003EFA  9CF1               	bcf	241,6,c	;volatile
  8371  003EFC  D001               	bra	u5376
  8372  003EFE                     u5375:
  8373  003EFE  8CF1               	bsf	241,6,c	;volatile
  8374  003F00                     u5376:
  8375  003F00                     
  8376                           ;librerias.c: 15:     INTCONbits.INT0IF = 0;
  8377  003F00  92F2               	bcf	242,1,c	;volatile
  8378  003F02                     
  8379                           ;librerias.c: 16:     INTCONbits.INT0IE = 1;
  8380  003F02  88F2               	bsf	242,4,c	;volatile
  8381  003F04                     
  8382                           ;librerias.c: 17:     INTCONbits.GIE = 1;
  8383  003F04  8EF2               	bsf	242,7,c	;volatile
  8384  003F06  0012               	return		;funcret
  8385  003F08                     __end_of_config_interrup_cero:
  8386                           	callstack 0
  8387                           
  8388 ;; *************** function _analogic_read *****************
  8389 ;; Defined at:
  8390 ;;		line 60 in file "librerias.c"
  8391 ;; Parameters:    Size  Location     Type
  8392 ;;  channel         1    wreg     unsigned char 
  8393 ;; Auto vars:     Size  Location     Type
  8394 ;;  channel         1   35[COMRAM] unsigned char 
  8395 ;; Return value:  Size  Location     Type
  8396 ;;                  4   30[COMRAM] float 
  8397 ;; Registers used:
  8398 ;;		wreg, status,2, status,0, cstack
  8399 ;; Tracked objects:
  8400 ;;		On entry : 0/0
  8401 ;;		On exit  : 0/0
  8402 ;;		Unchanged: 0/0
  8403 ;; Data sizes:     COMRAM   BANK0   BANK1   BANK2   BANK3   BANK4   BANK5   BANK6   BANK7
  8404 ;;      Params:         4       0       0       0       0       0       0       0       0
  8405 ;;      Locals:         1       0       0       0       0       0       0       0       0
  8406 ;;      Temps:          1       0       0       0       0       0       0       0       0
  8407 ;;      Totals:         6       0       0       0       0       0       0       0       0
  8408 ;;Total ram usage:        6 bytes
  8409 ;; Hardware stack levels used: 1
  8410 ;; Hardware stack levels required when called: 3
  8411 ;; This function calls:
  8412 ;;		___xxtofl
  8413 ;; This function is called by:
  8414 ;;		_main
  8415 ;; This function uses a non-reentrant model
  8416 ;;
  8417                           
  8418                           	psect	text33
  8419  003BFA                     __ptext33:
  8420                           	callstack 0
  8421  003BFA                     _analogic_read:
  8422                           	callstack 27
  8423                           
  8424                           ;incstack = 0
  8425                           ;analogic_read@channel stored from wreg
  8426  003BFA  6E24               	movwf	analogic_read@channel^0,c
  8427  003BFC                     
  8428                           ;librerias.c: 62:     ADCON0 = 0;
  8429  003BFC  0E00               	movlw	0
  8430  003BFE  6EC2               	movwf	194,c	;volatile
  8431  003C00                     
  8432                           ;librerias.c: 63:     ADCON0bits.CHS = channel;
  8433  003C00  C024  F023         	movff	analogic_read@channel,??_analogic_read
  8434  003C04  4623               	rlncf	??_analogic_read^0,f,c
  8435  003C06  4623               	rlncf	??_analogic_read^0,f,c
  8436  003C08  50C2               	movf	194,w,c	;volatile
  8437  003C0A  1823               	xorwf	??_analogic_read^0,w,c
  8438  003C0C  0BC3               	andlw	-61
  8439  003C0E  1823               	xorwf	??_analogic_read^0,w,c
  8440  003C10  6EC2               	movwf	194,c	;volatile
  8441  003C12                     
  8442                           ;librerias.c: 64:     ADCON0bits.ADON = 1;
  8443  003C12  80C2               	bsf	194,0,c	;volatile
  8444  003C14                     
  8445                           ;librerias.c: 65:     ADCON0bits.GO_DONE = 1;
  8446  003C14  82C2               	bsf	194,1,c	;volatile
  8447  003C16                     l110:
  8448  003C16  B2C2               	btfsc	194,1,c	;volatile
  8449  003C18  EF10  F01E         	goto	u5451
  8450  003C1C  EF12  F01E         	goto	u5450
  8451  003C20                     u5451:
  8452  003C20  EF0B  F01E         	goto	l110
  8453  003C24                     u5450:
  8454  003C24                     
  8455                           ;librerias.c: 68:     ADCON0bits.ADON = 0 ;
  8456  003C24  90C2               	bcf	194,0,c	;volatile
  8457  003C26                     
  8458                           ;librerias.c: 70:     return ADRES;
  8459  003C26  CFC3 F011          	movff	4035,___xxtofl@val	;volatile
  8460  003C2A  CFC4 F012          	movff	4036,___xxtofl@val+1	;volatile
  8461  003C2E  6A13               	clrf	(___xxtofl@val+2)^0,c
  8462  003C30  6A14               	clrf	(___xxtofl@val+3)^0,c
  8463  003C32  0E00               	movlw	0
  8464  003C34  EC26  F016         	call	___xxtofl
  8465  003C38  C011  F01F         	movff	?___xxtofl,?_analogic_read
  8466  003C3C  C012  F020         	movff	?___xxtofl+1,?_analogic_read+1
  8467  003C40  C013  F021         	movff	?___xxtofl+2,?_analogic_read+2
  8468  003C44  C014  F022         	movff	?___xxtofl+3,?_analogic_read+3
  8469  003C48  0012               	return		;funcret
  8470  003C4A                     __end_of_analogic_read:
  8471                           	callstack 0
  8472                           
  8473 ;; *************** function ___xxtofl *****************
  8474 ;; Defined at:
  8475 ;;		line 10 in file "E:\MPLAB\pic\sources\c99\common\xxtofl.c"
  8476 ;; Parameters:    Size  Location     Type
  8477 ;;  sign            1    wreg     unsigned char 
  8478 ;;  val             4   16[COMRAM] long 
  8479 ;; Auto vars:     Size  Location     Type
  8480 ;;  sign            1   24[COMRAM] unsigned char 
  8481 ;;  arg             4   26[COMRAM] unsigned long 
  8482 ;;  exp             1   25[COMRAM] unsigned char 
  8483 ;; Return value:  Size  Location     Type
  8484 ;;                  4   16[COMRAM] unsigned char 
  8485 ;; Registers used:
  8486 ;;		wreg, status,2, status,0
  8487 ;; Tracked objects:
  8488 ;;		On entry : 0/0
  8489 ;;		On exit  : 0/0
  8490 ;;		Unchanged: 0/0
  8491 ;; Data sizes:     COMRAM   BANK0   BANK1   BANK2   BANK3   BANK4   BANK5   BANK6   BANK7
  8492 ;;      Params:         4       0       0       0       0       0       0       0       0
  8493 ;;      Locals:         6       0       0       0       0       0       0       0       0
  8494 ;;      Temps:          4       0       0       0       0       0       0       0       0
  8495 ;;      Totals:        14       0       0       0       0       0       0       0       0
  8496 ;;Total ram usage:       14 bytes
  8497 ;; Hardware stack levels used: 1
  8498 ;; Hardware stack levels required when called: 2
  8499 ;; This function calls:
  8500 ;;		Nothing
  8501 ;; This function is called by:
  8502 ;;		_analogic_read
  8503 ;;		_set_duty_cpp1
  8504 ;;		_set_duty_cpp2
  8505 ;; This function uses a non-reentrant model
  8506 ;;
  8507                           
  8508                           	psect	text34
  8509  002C4C                     __ptext34:
  8510                           	callstack 0
  8511  002C4C                     ___xxtofl:
  8512                           	callstack 27
  8513                           
  8514                           ;incstack = 0
  8515                           ;___xxtofl@sign stored from wreg
  8516  002C4C  6E19               	movwf	___xxtofl@sign^0,c
  8517  002C4E  5019               	movf	___xxtofl@sign^0,w,c
  8518  002C50  B4D8               	btfsc	status,2,c
  8519  002C52  EF2D  F016         	goto	u5261
  8520  002C56  EF2F  F016         	goto	u5260
  8521  002C5A                     u5261:
  8522  002C5A  EF51  F016         	goto	l800
  8523  002C5E                     u5260:
  8524  002C5E  BE14               	btfsc	(___xxtofl@val+3)^0,7,c
  8525  002C60  EF36  F016         	goto	u5270
  8526  002C64  EF34  F016         	goto	u5271
  8527  002C68                     u5271:
  8528  002C68  EF51  F016         	goto	l800
  8529  002C6C                     u5270:
  8530  002C6C  C011  F015         	movff	___xxtofl@val,??___xxtofl
  8531  002C70  C012  F016         	movff	___xxtofl@val+1,??___xxtofl+1
  8532  002C74  C013  F017         	movff	___xxtofl@val+2,??___xxtofl+2
  8533  002C78  C014  F018         	movff	___xxtofl@val+3,??___xxtofl+3
  8534  002C7C  1E15               	comf	??___xxtofl^0,f,c
  8535  002C7E  1E16               	comf	(??___xxtofl+1)^0,f,c
  8536  002C80  1E17               	comf	(??___xxtofl+2)^0,f,c
  8537  002C82  1E18               	comf	(??___xxtofl+3)^0,f,c
  8538  002C84  2A15               	incf	??___xxtofl^0,f,c
  8539  002C86  0E00               	movlw	0
  8540  002C88  2216               	addwfc	(??___xxtofl+1)^0,f,c
  8541  002C8A  2217               	addwfc	(??___xxtofl+2)^0,f,c
  8542  002C8C  2218               	addwfc	(??___xxtofl+3)^0,f,c
  8543  002C8E  C015  F01B         	movff	??___xxtofl,___xxtofl@arg
  8544  002C92  C016  F01C         	movff	??___xxtofl+1,___xxtofl@arg+1
  8545  002C96  C017  F01D         	movff	??___xxtofl+2,___xxtofl@arg+2
  8546  002C9A  C018  F01E         	movff	??___xxtofl+3,___xxtofl@arg+3
  8547  002C9E  EF59  F016         	goto	l4109
  8548  002CA2                     l800:
  8549  002CA2  C011  F01B         	movff	___xxtofl@val,___xxtofl@arg
  8550  002CA6  C012  F01C         	movff	___xxtofl@val+1,___xxtofl@arg+1
  8551  002CAA  C013  F01D         	movff	___xxtofl@val+2,___xxtofl@arg+2
  8552  002CAE  C014  F01E         	movff	___xxtofl@val+3,___xxtofl@arg+3
  8553  002CB2                     l4109:
  8554  002CB2  5011               	movf	___xxtofl@val^0,w,c
  8555  002CB4  1012               	iorwf	(___xxtofl@val+1)^0,w,c
  8556  002CB6  1013               	iorwf	(___xxtofl@val+2)^0,w,c
  8557  002CB8  1014               	iorwf	(___xxtofl@val+3)^0,w,c
  8558  002CBA  A4D8               	btfss	status,2,c
  8559  002CBC  EF62  F016         	goto	u5281
  8560  002CC0  EF64  F016         	goto	u5280
  8561  002CC4                     u5281:
  8562  002CC4  EF6E  F016         	goto	l4115
  8563  002CC8                     u5280:
  8564  002CC8  0E00               	movlw	0
  8565  002CCA  6E11               	movwf	?___xxtofl^0,c
  8566  002CCC  0E00               	movlw	0
  8567  002CCE  6E12               	movwf	(?___xxtofl+1)^0,c
  8568  002CD0  0E00               	movlw	0
  8569  002CD2  6E13               	movwf	(?___xxtofl+2)^0,c
  8570  002CD4  0E00               	movlw	0
  8571  002CD6  6E14               	movwf	(?___xxtofl+3)^0,c
  8572  002CD8  EFFF  F016         	goto	l803
  8573  002CDC                     l4115:
  8574  002CDC  0E96               	movlw	150
  8575  002CDE  6E1A               	movwf	___xxtofl@exp^0,c
  8576  002CE0  EF78  F016         	goto	l4119
  8577  002CE4                     l4117:
  8578  002CE4  2A1A               	incf	___xxtofl@exp^0,f,c
  8579  002CE6  90D8               	bcf	status,0,c
  8580  002CE8  321E               	rrcf	(___xxtofl@arg+3)^0,f,c
  8581  002CEA  321D               	rrcf	(___xxtofl@arg+2)^0,f,c
  8582  002CEC  321C               	rrcf	(___xxtofl@arg+1)^0,f,c
  8583  002CEE  321B               	rrcf	___xxtofl@arg^0,f,c
  8584  002CF0                     l4119:
  8585  002CF0  0E00               	movlw	0
  8586  002CF2  141B               	andwf	___xxtofl@arg^0,w,c
  8587  002CF4  6E15               	movwf	??___xxtofl^0,c
  8588  002CF6  0E00               	movlw	0
  8589  002CF8  141C               	andwf	(___xxtofl@arg+1)^0,w,c
  8590  002CFA  6E16               	movwf	(??___xxtofl+1)^0,c
  8591  002CFC  0E00               	movlw	0
  8592  002CFE  141D               	andwf	(___xxtofl@arg+2)^0,w,c
  8593  002D00  6E17               	movwf	(??___xxtofl+2)^0,c
  8594  002D02  0EFE               	movlw	254
  8595  002D04  141E               	andwf	(___xxtofl@arg+3)^0,w,c
  8596  002D06  6E18               	movwf	(??___xxtofl+3)^0,c
  8597  002D08  5015               	movf	??___xxtofl^0,w,c
  8598  002D0A  1016               	iorwf	(??___xxtofl+1)^0,w,c
  8599  002D0C  1017               	iorwf	(??___xxtofl+2)^0,w,c
  8600  002D0E  1018               	iorwf	(??___xxtofl+3)^0,w,c
  8601  002D10  A4D8               	btfss	status,2,c
  8602  002D12  EF8D  F016         	goto	u5291
  8603  002D16  EF8F  F016         	goto	u5290
  8604  002D1A                     u5291:
  8605  002D1A  EF72  F016         	goto	l4117
  8606  002D1E                     u5290:
  8607  002D1E  EF9D  F016         	goto	l807
  8608  002D22                     l4121:
  8609  002D22  2A1A               	incf	___xxtofl@exp^0,f,c
  8610  002D24  0E01               	movlw	1
  8611  002D26  261B               	addwf	___xxtofl@arg^0,f,c
  8612  002D28  0E00               	movlw	0
  8613  002D2A  221C               	addwfc	(___xxtofl@arg+1)^0,f,c
  8614  002D2C  221D               	addwfc	(___xxtofl@arg+2)^0,f,c
  8615  002D2E  221E               	addwfc	(___xxtofl@arg+3)^0,f,c
  8616  002D30  90D8               	bcf	status,0,c
  8617  002D32  321E               	rrcf	(___xxtofl@arg+3)^0,f,c
  8618  002D34  321D               	rrcf	(___xxtofl@arg+2)^0,f,c
  8619  002D36  321C               	rrcf	(___xxtofl@arg+1)^0,f,c
  8620  002D38  321B               	rrcf	___xxtofl@arg^0,f,c
  8621  002D3A                     l807:
  8622  002D3A  0E00               	movlw	0
  8623  002D3C  141B               	andwf	___xxtofl@arg^0,w,c
  8624  002D3E  6E15               	movwf	??___xxtofl^0,c
  8625  002D40  0E00               	movlw	0
  8626  002D42  141C               	andwf	(___xxtofl@arg+1)^0,w,c
  8627  002D44  6E16               	movwf	(??___xxtofl+1)^0,c
  8628  002D46  0E00               	movlw	0
  8629  002D48  141D               	andwf	(___xxtofl@arg+2)^0,w,c
  8630  002D4A  6E17               	movwf	(??___xxtofl+2)^0,c
  8631  002D4C  0EFF               	movlw	255
  8632  002D4E  141E               	andwf	(___xxtofl@arg+3)^0,w,c
  8633  002D50  6E18               	movwf	(??___xxtofl+3)^0,c
  8634  002D52  5015               	movf	??___xxtofl^0,w,c
  8635  002D54  1016               	iorwf	(??___xxtofl+1)^0,w,c
  8636  002D56  1017               	iorwf	(??___xxtofl+2)^0,w,c
  8637  002D58  1018               	iorwf	(??___xxtofl+3)^0,w,c
  8638  002D5A  A4D8               	btfss	status,2,c
  8639  002D5C  EFB2  F016         	goto	u5301
  8640  002D60  EFB4  F016         	goto	u5300
  8641  002D64                     u5301:
  8642  002D64  EF91  F016         	goto	l4121
  8643  002D68                     u5300:
  8644  002D68  EFBC  F016         	goto	l4129
  8645  002D6C                     l4127:
  8646  002D6C  061A               	decf	___xxtofl@exp^0,f,c
  8647  002D6E  90D8               	bcf	status,0,c
  8648  002D70  361B               	rlcf	___xxtofl@arg^0,f,c
  8649  002D72  361C               	rlcf	(___xxtofl@arg+1)^0,f,c
  8650  002D74  361D               	rlcf	(___xxtofl@arg+2)^0,f,c
  8651  002D76  361E               	rlcf	(___xxtofl@arg+3)^0,f,c
  8652  002D78                     l4129:
  8653  002D78  BE1D               	btfsc	(___xxtofl@arg+2)^0,7,c
  8654  002D7A  EFC1  F016         	goto	u5311
  8655  002D7E  EFC3  F016         	goto	u5310
  8656  002D82                     u5311:
  8657  002D82  EFCB  F016         	goto	l814
  8658  002D86                     u5310:
  8659  002D86  0E02               	movlw	2
  8660  002D88  601A               	cpfslt	___xxtofl@exp^0,c
  8661  002D8A  EFC9  F016         	goto	u5321
  8662  002D8E  EFCB  F016         	goto	u5320
  8663  002D92                     u5321:
  8664  002D92  EFB6  F016         	goto	l4127
  8665  002D96                     u5320:
  8666  002D96                     l814:
  8667  002D96  B01A               	btfsc	___xxtofl@exp^0,0,c
  8668  002D98  EFD0  F016         	goto	u5331
  8669  002D9C  EFD2  F016         	goto	u5330
  8670  002DA0                     u5331:
  8671  002DA0  EFD3  F016         	goto	l4135
  8672  002DA4                     u5330:
  8673  002DA4  9E1D               	bcf	(___xxtofl@arg+2)^0,7,c
  8674  002DA6                     l4135:
  8675  002DA6  90D8               	bcf	status,0,c
  8676  002DA8  321A               	rrcf	___xxtofl@exp^0,f,c
  8677  002DAA  C01A  F015         	movff	___xxtofl@exp,??___xxtofl
  8678  002DAE  6A16               	clrf	(??___xxtofl+1)^0,c
  8679  002DB0  6A17               	clrf	(??___xxtofl+2)^0,c
  8680  002DB2  6A18               	clrf	(??___xxtofl+3)^0,c
  8681  002DB4  C015  F018         	movff	??___xxtofl,??___xxtofl+3
  8682  002DB8  6A17               	clrf	(??___xxtofl+2)^0,c
  8683  002DBA  6A16               	clrf	(??___xxtofl+1)^0,c
  8684  002DBC  6A15               	clrf	??___xxtofl^0,c
  8685  002DBE  5015               	movf	??___xxtofl^0,w,c
  8686  002DC0  121B               	iorwf	___xxtofl@arg^0,f,c
  8687  002DC2  5016               	movf	(??___xxtofl+1)^0,w,c
  8688  002DC4  121C               	iorwf	(___xxtofl@arg+1)^0,f,c
  8689  002DC6  5017               	movf	(??___xxtofl+2)^0,w,c
  8690  002DC8  121D               	iorwf	(___xxtofl@arg+2)^0,f,c
  8691  002DCA  5018               	movf	(??___xxtofl+3)^0,w,c
  8692  002DCC  121E               	iorwf	(___xxtofl@arg+3)^0,f,c
  8693  002DCE  5019               	movf	___xxtofl@sign^0,w,c
  8694  002DD0  B4D8               	btfsc	status,2,c
  8695  002DD2  EFED  F016         	goto	u5341
  8696  002DD6  EFEF  F016         	goto	u5340
  8697  002DDA                     u5341:
  8698  002DDA  EFF7  F016         	goto	l4145
  8699  002DDE                     u5340:
  8700  002DDE  BE14               	btfsc	(___xxtofl@val+3)^0,7,c
  8701  002DE0  EFF6  F016         	goto	u5350
  8702  002DE4  EFF4  F016         	goto	u5351
  8703  002DE8                     u5351:
  8704  002DE8  EFF7  F016         	goto	l4145
  8705  002DEC                     u5350:
  8706  002DEC  8E1E               	bsf	(___xxtofl@arg+3)^0,7,c
  8707  002DEE                     l4145:
  8708  002DEE  C01B  F011         	movff	___xxtofl@arg,?___xxtofl
  8709  002DF2  C01C  F012         	movff	___xxtofl@arg+1,?___xxtofl+1
  8710  002DF6  C01D  F013         	movff	___xxtofl@arg+2,?___xxtofl+2
  8711  002DFA  C01E  F014         	movff	___xxtofl@arg+3,?___xxtofl+3
  8712  002DFE                     l803:
  8713  002DFE  0012               	return		;funcret
  8714  002E00                     __end_of___xxtofl:
  8715                           	callstack 0
  8716                           
  8717 ;; *************** function _adc_init *****************
  8718 ;; Defined at:
  8719 ;;		line 49 in file "librerias.c"
  8720 ;; Parameters:    Size  Location     Type
  8721 ;;		None
  8722 ;; Auto vars:     Size  Location     Type
  8723 ;;		None
  8724 ;; Return value:  Size  Location     Type
  8725 ;;                  1    wreg      void 
  8726 ;; Registers used:
  8727 ;;		wreg, status,2
  8728 ;; Tracked objects:
  8729 ;;		On entry : 0/0
  8730 ;;		On exit  : 0/0
  8731 ;;		Unchanged: 0/0
  8732 ;; Data sizes:     COMRAM   BANK0   BANK1   BANK2   BANK3   BANK4   BANK5   BANK6   BANK7
  8733 ;;      Params:         0       0       0       0       0       0       0       0       0
  8734 ;;      Locals:         0       0       0       0       0       0       0       0       0
  8735 ;;      Temps:          0       0       0       0       0       0       0       0       0
  8736 ;;      Totals:         0       0       0       0       0       0       0       0       0
  8737 ;;Total ram usage:        0 bytes
  8738 ;; Hardware stack levels used: 1
  8739 ;; Hardware stack levels required when called: 2
  8740 ;; This function calls:
  8741 ;;		Nothing
  8742 ;; This function is called by:
  8743 ;;		_main
  8744 ;; This function uses a non-reentrant model
  8745 ;;
  8746                           
  8747                           	psect	text35
  8748  003ED6                     __ptext35:
  8749                           	callstack 0
  8750  003ED6                     _adc_init:
  8751                           	callstack 28
  8752  003ED6                     
  8753                           ;librerias.c: 51:     ADCON1bits.VCFG = 0;
  8754  003ED6  0ECF               	movlw	-49
  8755  003ED8  16C1               	andwf	193,f,c	;volatile
  8756                           
  8757                           ;librerias.c: 52:     ADCON0 = 0;
  8758  003EDA  0E00               	movlw	0
  8759  003EDC  6EC2               	movwf	194,c	;volatile
  8760                           
  8761                           ;librerias.c: 53:     ADCON2bits.ACQT = 0b011;
  8762  003EDE  50C0               	movf	192,w,c	;volatile
  8763  003EE0  0BC7               	andlw	-57
  8764  003EE2  0918               	iorlw	24
  8765  003EE4  6EC0               	movwf	192,c	;volatile
  8766                           
  8767                           ;librerias.c: 54:     ADCON2bits.ADCS = 0b101;
  8768  003EE6  50C0               	movf	192,w,c	;volatile
  8769  003EE8  0BF8               	andlw	-8
  8770  003EEA  0905               	iorlw	5
  8771  003EEC  6EC0               	movwf	192,c	;volatile
  8772  003EEE                     
  8773                           ;librerias.c: 55:     ADCON2bits.ADFM = 1;
  8774  003EEE  8EC0               	bsf	192,7,c	;volatile
  8775  003EF0  0012               	return		;funcret
  8776  003EF2                     __end_of_adc_init:
  8777                           	callstack 0
  8778                           
  8779 ;; *************** function _USART_init *****************
  8780 ;; Defined at:
  8781 ;;		line 75 in file "librerias.c"
  8782 ;; Parameters:    Size  Location     Type
  8783 ;;  baudrate        2   29[COMRAM] unsigned short 
  8784 ;; Auto vars:     Size  Location     Type
  8785 ;;		None
  8786 ;; Return value:  Size  Location     Type
  8787 ;;                  1    wreg      void 
  8788 ;; Registers used:
  8789 ;;		wreg, status,2, status,0, cstack
  8790 ;; Tracked objects:
  8791 ;;		On entry : 0/0
  8792 ;;		On exit  : 0/0
  8793 ;;		Unchanged: 0/0
  8794 ;; Data sizes:     COMRAM   BANK0   BANK1   BANK2   BANK3   BANK4   BANK5   BANK6   BANK7
  8795 ;;      Params:         2       0       0       0       0       0       0       0       0
  8796 ;;      Locals:         0       0       0       0       0       0       0       0       0
  8797 ;;      Temps:          0       0       0       0       0       0       0       0       0
  8798 ;;      Totals:         2       0       0       0       0       0       0       0       0
  8799 ;;Total ram usage:        2 bytes
  8800 ;; Hardware stack levels used: 1
  8801 ;; Hardware stack levels required when called: 3
  8802 ;; This function calls:
  8803 ;;		___lldiv
  8804 ;; This function is called by:
  8805 ;;		_main
  8806 ;; This function uses a non-reentrant model
  8807 ;;
  8808                           
  8809                           	psect	text36
  8810  003C4A                     __ptext36:
  8811                           	callstack 0
  8812  003C4A                     _USART_init:
  8813                           	callstack 27
  8814  003C4A                     
  8815                           ;librerias.c: 78:     SPBRG = (unsigned char)(((8000000UL/baudrate)/64)-1);
  8816  003C4A  0E00               	movlw	0
  8817  003C4C  6E11               	movwf	___lldiv@dividend^0,c
  8818  003C4E  0E12               	movlw	18
  8819  003C50  6E12               	movwf	(___lldiv@dividend+1)^0,c
  8820  003C52  0E7A               	movlw	122
  8821  003C54  6E13               	movwf	(___lldiv@dividend+2)^0,c
  8822  003C56  0E00               	movlw	0
  8823  003C58  6E14               	movwf	(___lldiv@dividend+3)^0,c
  8824  003C5A  C01E  F015         	movff	USART_init@baudrate,___lldiv@divisor
  8825  003C5E  C01F  F016         	movff	USART_init@baudrate+1,___lldiv@divisor+1
  8826  003C62  6A17               	clrf	(___lldiv@divisor+2)^0,c
  8827  003C64  6A18               	clrf	(___lldiv@divisor+3)^0,c
  8828  003C66  EC3D  F01C         	call	___lldiv	;wreg free
  8829  003C6A  0E07               	movlw	7
  8830  003C6C  EF3D  F01E         	goto	u5380
  8831  003C70                     u5385:
  8832  003C70  90D8               	bcf	status,0,c
  8833  003C72  3214               	rrcf	(?___lldiv+3)^0,f,c
  8834  003C74  3213               	rrcf	(?___lldiv+2)^0,f,c
  8835  003C76  3212               	rrcf	(?___lldiv+1)^0,f,c
  8836  003C78  3211               	rrcf	?___lldiv^0,f,c
  8837  003C7A                     u5380:
  8838  003C7A  2EE8               	decfsz	wreg,f,c
  8839  003C7C  EF38  F01E         	goto	u5385
  8840  003C80  0411               	decf	?___lldiv^0,w,c
  8841  003C82  6EAF               	movwf	175,c	;volatile
  8842  003C84                     
  8843                           ;librerias.c: 80:     TXSTAbits.BRGH = 0;
  8844  003C84  94AC               	bcf	172,2,c	;volatile
  8845  003C86                     
  8846                           ;librerias.c: 81:     TXSTAbits.SYNC = 0;
  8847  003C86  98AC               	bcf	172,4,c	;volatile
  8848  003C88                     
  8849                           ;librerias.c: 82:     RCSTAbits.SPEN = 1;
  8850  003C88  8EAB               	bsf	171,7,c	;volatile
  8851  003C8A                     
  8852                           ;librerias.c: 84:     TXSTAbits.TX9 = 0;
  8853  003C8A  9CAC               	bcf	172,6,c	;volatile
  8854  003C8C                     
  8855                           ;librerias.c: 85:     TXSTAbits.TXEN = 1;
  8856  003C8C  8AAC               	bsf	172,5,c	;volatile
  8857  003C8E                     
  8858                           ;librerias.c: 86:     RCSTAbits.RC9 = 0;
  8859  003C8E  9CAB               	bcf	171,6,c	;volatile
  8860  003C90                     
  8861                           ;librerias.c: 87:     RCSTAbits.CREN = 1;
  8862  003C90  88AB               	bsf	171,4,c	;volatile
  8863  003C92                     
  8864                           ;librerias.c: 89:     INTCONbits.GIE=1;
  8865  003C92  8EF2               	bsf	242,7,c	;volatile
  8866  003C94                     
  8867                           ;librerias.c: 90:     INTCONbits.PEIE=1;
  8868  003C94  8CF2               	bsf	242,6,c	;volatile
  8869  003C96                     
  8870                           ;librerias.c: 91:     PIE1bits.RCIE=1;
  8871  003C96  8A9D               	bsf	157,5,c	;volatile
  8872  003C98  0012               	return		;funcret
  8873  003C9A                     __end_of_USART_init:
  8874                           	callstack 0
  8875                           
  8876 ;; *************** function ___lldiv *****************
  8877 ;; Defined at:
  8878 ;;		line 7 in file "E:\MPLAB\pic\sources\c99\common\__lldiv.c"
  8879 ;; Parameters:    Size  Location     Type
  8880 ;;  dividend        4   16[COMRAM] unsigned long 
  8881 ;;  divisor         4   20[COMRAM] unsigned long 
  8882 ;; Auto vars:     Size  Location     Type
  8883 ;;  quotient        4   24[COMRAM] unsigned long 
  8884 ;;  counter         1   28[COMRAM] unsigned char 
  8885 ;; Return value:  Size  Location     Type
  8886 ;;                  4   16[COMRAM] unsigned long 
  8887 ;; Registers used:
  8888 ;;		wreg, status,2, status,0
  8889 ;; Tracked objects:
  8890 ;;		On entry : 0/0
  8891 ;;		On exit  : 0/0
  8892 ;;		Unchanged: 0/0
  8893 ;; Data sizes:     COMRAM   BANK0   BANK1   BANK2   BANK3   BANK4   BANK5   BANK6   BANK7
  8894 ;;      Params:         8       0       0       0       0       0       0       0       0
  8895 ;;      Locals:         5       0       0       0       0       0       0       0       0
  8896 ;;      Temps:          0       0       0       0       0       0       0       0       0
  8897 ;;      Totals:        13       0       0       0       0       0       0       0       0
  8898 ;;Total ram usage:       13 bytes
  8899 ;; Hardware stack levels used: 1
  8900 ;; Hardware stack levels required when called: 2
  8901 ;; This function calls:
  8902 ;;		Nothing
  8903 ;; This function is called by:
  8904 ;;		_USART_init
  8905 ;; This function uses a non-reentrant model
  8906 ;;
  8907                           
  8908                           	psect	text37
  8909  00387A                     __ptext37:
  8910                           	callstack 0
  8911  00387A                     ___lldiv:
  8912                           	callstack 27
  8913  00387A  0E00               	movlw	0
  8914  00387C  6E19               	movwf	___lldiv@quotient^0,c
  8915  00387E  0E00               	movlw	0
  8916  003880  6E1A               	movwf	(___lldiv@quotient+1)^0,c
  8917  003882  0E00               	movlw	0
  8918  003884  6E1B               	movwf	(___lldiv@quotient+2)^0,c
  8919  003886  0E00               	movlw	0
  8920  003888  6E1C               	movwf	(___lldiv@quotient+3)^0,c
  8921  00388A  5015               	movf	___lldiv@divisor^0,w,c
  8922  00388C  1016               	iorwf	(___lldiv@divisor+1)^0,w,c
  8923  00388E  1017               	iorwf	(___lldiv@divisor+2)^0,w,c
  8924  003890  1018               	iorwf	(___lldiv@divisor+3)^0,w,c
  8925  003892  B4D8               	btfsc	status,2,c
  8926  003894  EF4E  F01C         	goto	u5231
  8927  003898  EF50  F01C         	goto	u5230
  8928  00389C                     u5231:
  8929  00389C  EF86  F01C         	goto	l172
  8930  0038A0                     u5230:
  8931  0038A0  0E01               	movlw	1
  8932  0038A2  6E1D               	movwf	___lldiv@counter^0,c
  8933  0038A4  EF5A  F01C         	goto	l4089
  8934  0038A8                     l4087:
  8935  0038A8  90D8               	bcf	status,0,c
  8936  0038AA  3615               	rlcf	___lldiv@divisor^0,f,c
  8937  0038AC  3616               	rlcf	(___lldiv@divisor+1)^0,f,c
  8938  0038AE  3617               	rlcf	(___lldiv@divisor+2)^0,f,c
  8939  0038B0  3618               	rlcf	(___lldiv@divisor+3)^0,f,c
  8940  0038B2  2A1D               	incf	___lldiv@counter^0,f,c
  8941  0038B4                     l4089:
  8942  0038B4  AE18               	btfss	(___lldiv@divisor+3)^0,7,c
  8943  0038B6  EF5F  F01C         	goto	u5241
  8944  0038BA  EF61  F01C         	goto	u5240
  8945  0038BE                     u5241:
  8946  0038BE  EF54  F01C         	goto	l4087
  8947  0038C2                     u5240:
  8948  0038C2                     l4091:
  8949  0038C2  90D8               	bcf	status,0,c
  8950  0038C4  3619               	rlcf	___lldiv@quotient^0,f,c
  8951  0038C6  361A               	rlcf	(___lldiv@quotient+1)^0,f,c
  8952  0038C8  361B               	rlcf	(___lldiv@quotient+2)^0,f,c
  8953  0038CA  361C               	rlcf	(___lldiv@quotient+3)^0,f,c
  8954  0038CC  5015               	movf	___lldiv@divisor^0,w,c
  8955  0038CE  5C11               	subwf	___lldiv@dividend^0,w,c
  8956  0038D0  5016               	movf	(___lldiv@divisor+1)^0,w,c
  8957  0038D2  5812               	subwfb	(___lldiv@dividend+1)^0,w,c
  8958  0038D4  5017               	movf	(___lldiv@divisor+2)^0,w,c
  8959  0038D6  5813               	subwfb	(___lldiv@dividend+2)^0,w,c
  8960  0038D8  5018               	movf	(___lldiv@divisor+3)^0,w,c
  8961  0038DA  5814               	subwfb	(___lldiv@dividend+3)^0,w,c
  8962  0038DC  A0D8               	btfss	status,0,c
  8963  0038DE  EF73  F01C         	goto	u5251
  8964  0038E2  EF75  F01C         	goto	u5250
  8965  0038E6                     u5251:
  8966  0038E6  EF7E  F01C         	goto	l4099
  8967  0038EA                     u5250:
  8968  0038EA  5015               	movf	___lldiv@divisor^0,w,c
  8969  0038EC  5E11               	subwf	___lldiv@dividend^0,f,c
  8970  0038EE  5016               	movf	(___lldiv@divisor+1)^0,w,c
  8971  0038F0  5A12               	subwfb	(___lldiv@dividend+1)^0,f,c
  8972  0038F2  5017               	movf	(___lldiv@divisor+2)^0,w,c
  8973  0038F4  5A13               	subwfb	(___lldiv@dividend+2)^0,f,c
  8974  0038F6  5018               	movf	(___lldiv@divisor+3)^0,w,c
  8975  0038F8  5A14               	subwfb	(___lldiv@dividend+3)^0,f,c
  8976  0038FA  8019               	bsf	___lldiv@quotient^0,0,c
  8977  0038FC                     l4099:
  8978  0038FC  90D8               	bcf	status,0,c
  8979  0038FE  3218               	rrcf	(___lldiv@divisor+3)^0,f,c
  8980  003900  3217               	rrcf	(___lldiv@divisor+2)^0,f,c
  8981  003902  3216               	rrcf	(___lldiv@divisor+1)^0,f,c
  8982  003904  3215               	rrcf	___lldiv@divisor^0,f,c
  8983  003906  2E1D               	decfsz	___lldiv@counter^0,f,c
  8984  003908  EF61  F01C         	goto	l4091
  8985  00390C                     l172:
  8986  00390C  C019  F011         	movff	___lldiv@quotient,?___lldiv
  8987  003910  C01A  F012         	movff	___lldiv@quotient+1,?___lldiv+1
  8988  003914  C01B  F013         	movff	___lldiv@quotient+2,?___lldiv+2
  8989  003918  C01C  F014         	movff	___lldiv@quotient+3,?___lldiv+3
  8990  00391C  0012               	return		;funcret
  8991  00391E                     __end_of___lldiv:
  8992                           	callstack 0
  8993                           
  8994 ;; *************** function _USART_PutString *****************
  8995 ;; Defined at:
  8996 ;;		line 100 in file "librerias.c"
  8997 ;; Parameters:    Size  Location     Type
  8998 ;;  str             2   17[COMRAM] PTR unsigned char 
  8999 ;;		 -> cadena(15), 
  9000 ;; Auto vars:     Size  Location     Type
  9001 ;;		None
  9002 ;; Return value:  Size  Location     Type
  9003 ;;                  1    wreg      void 
  9004 ;; Registers used:
  9005 ;;		wreg, fsr2l, fsr2h, status,2, status,0, cstack
  9006 ;; Tracked objects:
  9007 ;;		On entry : 0/0
  9008 ;;		On exit  : 0/0
  9009 ;;		Unchanged: 0/0
  9010 ;; Data sizes:     COMRAM   BANK0   BANK1   BANK2   BANK3   BANK4   BANK5   BANK6   BANK7
  9011 ;;      Params:         2       0       0       0       0       0       0       0       0
  9012 ;;      Locals:         0       0       0       0       0       0       0       0       0
  9013 ;;      Temps:          0       0       0       0       0       0       0       0       0
  9014 ;;      Totals:         2       0       0       0       0       0       0       0       0
  9015 ;;Total ram usage:        2 bytes
  9016 ;; Hardware stack levels used: 1
  9017 ;; Hardware stack levels required when called: 3
  9018 ;; This function calls:
  9019 ;;		_USART_PutChar
  9020 ;; This function is called by:
  9021 ;;		_main
  9022 ;; This function uses a non-reentrant model
  9023 ;;
  9024                           
  9025                           	psect	text38
  9026  003E80                     __ptext38:
  9027                           	callstack 0
  9028  003E80                     _USART_PutString:
  9029                           	callstack 27
  9030  003E80                     
  9031                           ;librerias.c: 102:     while (*str)
  9032  003E80  EF4B  F01F         	goto	l4247
  9033  003E84                     l4243:
  9034                           
  9035                           ;librerias.c: 103:         USART_PutChar(*str++);
  9036  003E84  C012  FFD9         	movff	USART_PutString@str,fsr2l
  9037  003E88  C013  FFDA         	movff	USART_PutString@str+1,fsr2h
  9038  003E8C  50DF               	movf	indf2,w,c
  9039  003E8E  EC84  F01F         	call	_USART_PutChar
  9040  003E92  4A12               	infsnz	USART_PutString@str^0,f,c
  9041  003E94  2A13               	incf	(USART_PutString@str+1)^0,f,c
  9042  003E96                     l4247:
  9043                           
  9044                           ;librerias.c: 102:     while (*str)
  9045  003E96  C012  FFD9         	movff	USART_PutString@str,fsr2l
  9046  003E9A  C013  FFDA         	movff	USART_PutString@str+1,fsr2h
  9047  003E9E  50DF               	movf	indf2,w,c
  9048  003EA0  A4D8               	btfss	status,2,c
  9049  003EA2  EF55  F01F         	goto	u5461
  9050  003EA6  EF57  F01F         	goto	u5460
  9051  003EAA                     u5461:
  9052  003EAA  EF42  F01F         	goto	l4243
  9053  003EAE                     u5460:
  9054  003EAE  0012               	return		;funcret
  9055  003EB0                     __end_of_USART_PutString:
  9056                           	callstack 0
  9057                           
  9058 ;; *************** function _USART_PutChar *****************
  9059 ;; Defined at:
  9060 ;;		line 94 in file "librerias.c"
  9061 ;; Parameters:    Size  Location     Type
  9062 ;;  Ch              1    wreg     unsigned char 
  9063 ;; Auto vars:     Size  Location     Type
  9064 ;;  Ch              1   16[COMRAM] unsigned char 
  9065 ;; Return value:  Size  Location     Type
  9066 ;;                  1    wreg      void 
  9067 ;; Registers used:
  9068 ;;		wreg
  9069 ;; Tracked objects:
  9070 ;;		On entry : 0/0
  9071 ;;		On exit  : 0/0
  9072 ;;		Unchanged: 0/0
  9073 ;; Data sizes:     COMRAM   BANK0   BANK1   BANK2   BANK3   BANK4   BANK5   BANK6   BANK7
  9074 ;;      Params:         0       0       0       0       0       0       0       0       0
  9075 ;;      Locals:         1       0       0       0       0       0       0       0       0
  9076 ;;      Temps:          0       0       0       0       0       0       0       0       0
  9077 ;;      Totals:         1       0       0       0       0       0       0       0       0
  9078 ;;Total ram usage:        1 bytes
  9079 ;; Hardware stack levels used: 1
  9080 ;; Hardware stack levels required when called: 2
  9081 ;; This function calls:
  9082 ;;		Nothing
  9083 ;; This function is called by:
  9084 ;;		_USART_PutString
  9085 ;; This function uses a non-reentrant model
  9086 ;;
  9087                           
  9088                           	psect	text39
  9089  003F08                     __ptext39:
  9090                           	callstack 0
  9091  003F08                     _USART_PutChar:
  9092                           	callstack 27
  9093                           
  9094                           ;incstack = 0
  9095                           ;USART_PutChar@Ch stored from wreg
  9096  003F08  6E11               	movwf	USART_PutChar@Ch^0,c
  9097  003F0A                     l119:
  9098  003F0A  A2AC               	btfss	172,1,c	;volatile
  9099  003F0C  EF8A  F01F         	goto	u5221
  9100  003F10  EF8C  F01F         	goto	u5220
  9101  003F14                     u5221:
  9102  003F14  EF85  F01F         	goto	l119
  9103  003F18                     u5220:
  9104  003F18                     
  9105                           ;librerias.c: 96:     TXREG =Ch;
  9106  003F18  C011  FFAD         	movff	USART_PutChar@Ch,4013	;volatile
  9107  003F1C  0012               	return		;funcret
  9108  003F1E                     __end_of_USART_PutChar:
  9109                           	callstack 0
  9110                           
  9111 ;; *************** function _ISR *****************
  9112 ;; Defined at:
  9113 ;;		line 55 in file "main.c"
  9114 ;; Parameters:    Size  Location     Type
  9115 ;;		None
  9116 ;; Auto vars:     Size  Location     Type
  9117 ;;		None
  9118 ;; Return value:  Size  Location     Type
  9119 ;;                  1    wreg      void 
  9120 ;; Registers used:
  9121 ;;		wreg, status,2, status,0, cstack
  9122 ;; Tracked objects:
  9123 ;;		On entry : 0/0
  9124 ;;		On exit  : 0/0
  9125 ;;		Unchanged: 0/0
  9126 ;; Data sizes:     COMRAM   BANK0   BANK1   BANK2   BANK3   BANK4   BANK5   BANK6   BANK7
  9127 ;;      Params:         0       0       0       0       0       0       0       0       0
  9128 ;;      Locals:         0       0       0       0       0       0       0       0       0
  9129 ;;      Temps:          0       0       0       0       0       0       0       0       0
  9130 ;;      Totals:         0       0       0       0       0       0       0       0       0
  9131 ;;Total ram usage:        0 bytes
  9132 ;; Hardware stack levels used: 1
  9133 ;; Hardware stack levels required when called: 1
  9134 ;; This function calls:
  9135 ;;		i2___fladd
  9136 ;; This function is called by:
  9137 ;;		Interrupt level 2
  9138 ;; This function uses a non-reentrant model
  9139 ;;
  9140                           
  9141                           	psect	intcode
  9142  000008                     __pintcode:
  9143                           	callstack 0
  9144  000008                     _ISR:
  9145                           	callstack 21
  9146                           
  9147                           ;incstack = 0
  9148  000008  824E               	bsf	int$flags,1,c	;set compiler interrupt flag (level 2)
  9149  00000A  ED4D  F01E         	call	int_func,f	;refresh shadow registers
  9150                           
  9151                           	psect	intcode_body
  9152  003C9A                     __pintcode_body:
  9153                           	callstack 21
  9154  003C9A                     int_func:
  9155                           	callstack 21
  9156  003C9A  0006               	pop		; remove dummy address from shadow register refresh
  9157  003C9C                     
  9158                           ;main.c: 58:     if(INTCONbits.INT0IF == 1){
  9159  003C9C  A2F2               	btfss	242,1,c	;volatile
  9160  003C9E  EF53  F01E         	goto	i2u586_41
  9161  003CA2  EF55  F01E         	goto	i2u586_40
  9162  003CA6                     i2u586_41:
  9163  003CA6  EF70  F01E         	goto	i2l48
  9164  003CAA                     i2u586_40:
  9165  003CAA                     
  9166                           ;main.c: 59:         pulses++;
  9167  003CAA  C0FB  F001         	movff	_pulses,i2___fladd@b	;volatile
  9168  003CAE  C0FC  F002         	movff	_pulses+1,i2___fladd@b+1	;volatile
  9169  003CB2  C0FD  F003         	movff	_pulses+2,i2___fladd@b+2	;volatile
  9170  003CB6  C0FE  F004         	movff	_pulses+3,i2___fladd@b+3	;volatile
  9171  003CBA  0E00               	movlw	0
  9172  003CBC  6E05               	movwf	i2___fladd@a^0,c
  9173  003CBE  0E00               	movlw	0
  9174  003CC0  6E06               	movwf	(i2___fladd@a+1)^0,c
  9175  003CC2  0E80               	movlw	128
  9176  003CC4  6E07               	movwf	(i2___fladd@a+2)^0,c
  9177  003CC6  0E3F               	movlw	63
  9178  003CC8  6E08               	movwf	(i2___fladd@a+3)^0,c
  9179  003CCA  ECA1  F00C         	call	i2___fladd	;wreg free
  9180  003CCE  C001  F0FB         	movff	?i2___fladd,_pulses	;volatile
  9181  003CD2  C002  F0FC         	movff	?i2___fladd+1,_pulses+1	;volatile
  9182  003CD6  C003  F0FD         	movff	?i2___fladd+2,_pulses+2	;volatile
  9183  003CDA  C004  F0FE         	movff	?i2___fladd+3,_pulses+3	;volatile
  9184  003CDE                     
  9185                           ;main.c: 60:         INTCONbits.INT0IF = 0;
  9186  003CDE  92F2               	bcf	242,1,c	;volatile
  9187  003CE0                     i2l48:
  9188  003CE0  924E               	bcf	int$flags,1,c	;clear compiler interrupt flag (level 2)
  9189  003CE2  0011               	retfie		f
  9190  003CE4                     __end_of_ISR:
  9191                           	callstack 0
  9192                           
  9193 ;; *************** function i2___fladd *****************
  9194 ;; Defined at:
  9195 ;;		line 10 in file "E:\MPLAB\pic\sources\c99\common\sprcadd.c"
  9196 ;; Parameters:    Size  Location     Type
  9197 ;;  b               4    0[COMRAM] void 
  9198 ;;  a               4    4[COMRAM] void 
  9199 ;; Auto vars:     Size  Location     Type
  9200 ;;  grs             1   15[COMRAM] unsigned char 
  9201 ;;  bexp            1   14[COMRAM] unsigned char 
  9202 ;;  aexp            1   13[COMRAM] unsigned char 
  9203 ;;  signs           1   12[COMRAM] unsigned char 
  9204 ;; Return value:  Size  Location     Type
  9205 ;;                  4    0[COMRAM] unsigned char 
  9206 ;; Registers used:
  9207 ;;		wreg, status,2, status,0
  9208 ;; Tracked objects:
  9209 ;;		On entry : 0/0
  9210 ;;		On exit  : 0/0
  9211 ;;		Unchanged: 0/0
  9212 ;; Data sizes:     COMRAM   BANK0   BANK1   BANK2   BANK3   BANK4   BANK5   BANK6   BANK7
  9213 ;;      Params:         8       0       0       0       0       0       0       0       0
  9214 ;;      Locals:         4       0       0       0       0       0       0       0       0
  9215 ;;      Temps:          4       0       0       0       0       0       0       0       0
  9216 ;;      Totals:        16       0       0       0       0       0       0       0       0
  9217 ;;Total ram usage:       16 bytes
  9218 ;; Hardware stack levels used: 1
  9219 ;; This function calls:
  9220 ;;		Nothing
  9221 ;; This function is called by:
  9222 ;;		_ISR
  9223 ;; This function uses a non-reentrant model
  9224 ;;
  9225                           
  9226                           	psect	text41
  9227  001942                     __ptext41:
  9228                           	callstack 0
  9229  001942                     i2___fladd:
  9230                           	callstack 21
  9231  001942  5004               	movf	(i2___fladd@b+3)^0,w,c
  9232  001944  0B80               	andlw	128
  9233  001946  6E0D               	movwf	i2___fladd@signs^0,c
  9234  001948  5004               	movf	(i2___fladd@b+3)^0,w,c
  9235  00194A  2404               	addwf	(i2___fladd@b+3)^0,w,c
  9236  00194C  6E0F               	movwf	i2___fladd@bexp^0,c
  9237  00194E  AE03               	btfss	(i2___fladd@b+2)^0,7,c
  9238  001950  EFAC  F00C         	goto	i2u547_41
  9239  001954  EFAE  F00C         	goto	i2u547_40
  9240  001958                     i2u547_41:
  9241  001958  EFAF  F00C         	goto	i2l4255
  9242  00195C                     i2u547_40:
  9243  00195C  800F               	bsf	i2___fladd@bexp^0,0,c
  9244  00195E                     i2l4255:
  9245  00195E  500F               	movf	i2___fladd@bexp^0,w,c
  9246  001960  B4D8               	btfsc	status,2,c
  9247  001962  EFB5  F00C         	goto	i2u548_41
  9248  001966  EFB7  F00C         	goto	i2u548_40
  9249  00196A                     i2u548_41:
  9250  00196A  EFCC  F00C         	goto	i2l4265
  9251  00196E                     i2u548_40:
  9252  00196E  280F               	incf	i2___fladd@bexp^0,w,c
  9253  001970  A4D8               	btfss	status,2,c
  9254  001972  EFBD  F00C         	goto	i2u549_41
  9255  001976  EFBF  F00C         	goto	i2u549_40
  9256  00197A                     i2u549_41:
  9257  00197A  EFC7  F00C         	goto	i2l4261
  9258  00197E                     i2u549_40:
  9259  00197E  0E00               	movlw	0
  9260  001980  6E01               	movwf	i2___fladd@b^0,c
  9261  001982  0E00               	movlw	0
  9262  001984  6E02               	movwf	(i2___fladd@b+1)^0,c
  9263  001986  0E00               	movlw	0
  9264  001988  6E03               	movwf	(i2___fladd@b+2)^0,c
  9265  00198A  0E00               	movlw	0
  9266  00198C  6E04               	movwf	(i2___fladd@b+3)^0,c
  9267  00198E                     i2l4261:
  9268  00198E  8E03               	bsf	(i2___fladd@b+2)^0,7,c
  9269  001990  0E00               	movlw	0
  9270  001992  6E04               	movwf	(i2___fladd@b+3)^0,c
  9271  001994  EFD4  F00C         	goto	i2l4267
  9272  001998                     i2l4265:
  9273  001998  0E00               	movlw	0
  9274  00199A  6E01               	movwf	i2___fladd@b^0,c
  9275  00199C  0E00               	movlw	0
  9276  00199E  6E02               	movwf	(i2___fladd@b+1)^0,c
  9277  0019A0  0E00               	movlw	0
  9278  0019A2  6E03               	movwf	(i2___fladd@b+2)^0,c
  9279  0019A4  0E00               	movlw	0
  9280  0019A6  6E04               	movwf	(i2___fladd@b+3)^0,c
  9281  0019A8                     i2l4267:
  9282  0019A8  5008               	movf	(i2___fladd@a+3)^0,w,c
  9283  0019AA  0B80               	andlw	128
  9284  0019AC  6E0E               	movwf	i2___fladd@aexp^0,c
  9285  0019AE  500D               	movf	i2___fladd@signs^0,w,c
  9286  0019B0  180E               	xorwf	i2___fladd@aexp^0,w,c
  9287  0019B2  B4D8               	btfsc	status,2,c
  9288  0019B4  EFDE  F00C         	goto	i2u550_41
  9289  0019B8  EFE0  F00C         	goto	i2u550_40
  9290  0019BC                     i2u550_41:
  9291  0019BC  EFE1  F00C         	goto	i2l4273
  9292  0019C0                     i2u550_40:
  9293  0019C0  8C0D               	bsf	i2___fladd@signs^0,6,c
  9294  0019C2                     i2l4273:
  9295  0019C2  5008               	movf	(i2___fladd@a+3)^0,w,c
  9296  0019C4  2408               	addwf	(i2___fladd@a+3)^0,w,c
  9297  0019C6  6E0E               	movwf	i2___fladd@aexp^0,c
  9298  0019C8  AE07               	btfss	(i2___fladd@a+2)^0,7,c
  9299  0019CA  EFE9  F00C         	goto	i2u551_41
  9300  0019CE  EFEB  F00C         	goto	i2u551_40
  9301  0019D2                     i2u551_41:
  9302  0019D2  EFEC  F00C         	goto	i2l4279
  9303  0019D6                     i2u551_40:
  9304  0019D6  800E               	bsf	i2___fladd@aexp^0,0,c
  9305  0019D8                     i2l4279:
  9306  0019D8  500E               	movf	i2___fladd@aexp^0,w,c
  9307  0019DA  B4D8               	btfsc	status,2,c
  9308  0019DC  EFF2  F00C         	goto	i2u552_41
  9309  0019E0  EFF4  F00C         	goto	i2u552_40
  9310  0019E4                     i2u552_41:
  9311  0019E4  EF09  F00D         	goto	i2l4289
  9312  0019E8                     i2u552_40:
  9313  0019E8  280E               	incf	i2___fladd@aexp^0,w,c
  9314  0019EA  A4D8               	btfss	status,2,c
  9315  0019EC  EFFA  F00C         	goto	i2u553_41
  9316  0019F0  EFFC  F00C         	goto	i2u553_40
  9317  0019F4                     i2u553_41:
  9318  0019F4  EF04  F00D         	goto	i2l4285
  9319  0019F8                     i2u553_40:
  9320  0019F8  0E00               	movlw	0
  9321  0019FA  6E05               	movwf	i2___fladd@a^0,c
  9322  0019FC  0E00               	movlw	0
  9323  0019FE  6E06               	movwf	(i2___fladd@a+1)^0,c
  9324  001A00  0E00               	movlw	0
  9325  001A02  6E07               	movwf	(i2___fladd@a+2)^0,c
  9326  001A04  0E00               	movlw	0
  9327  001A06  6E08               	movwf	(i2___fladd@a+3)^0,c
  9328  001A08                     i2l4285:
  9329  001A08  8E07               	bsf	(i2___fladd@a+2)^0,7,c
  9330  001A0A  0E00               	movlw	0
  9331  001A0C  6E08               	movwf	(i2___fladd@a+3)^0,c
  9332  001A0E  EF11  F00D         	goto	i2l4291
  9333  001A12                     i2l4289:
  9334  001A12  0E00               	movlw	0
  9335  001A14  6E05               	movwf	i2___fladd@a^0,c
  9336  001A16  0E00               	movlw	0
  9337  001A18  6E06               	movwf	(i2___fladd@a+1)^0,c
  9338  001A1A  0E00               	movlw	0
  9339  001A1C  6E07               	movwf	(i2___fladd@a+2)^0,c
  9340  001A1E  0E00               	movlw	0
  9341  001A20  6E08               	movwf	(i2___fladd@a+3)^0,c
  9342  001A22                     i2l4291:
  9343  001A22  500F               	movf	i2___fladd@bexp^0,w,c
  9344  001A24  5C0E               	subwf	i2___fladd@aexp^0,w,c
  9345  001A26  B0D8               	btfsc	status,0,c
  9346  001A28  EF18  F00D         	goto	i2u554_41
  9347  001A2C  EF1A  F00D         	goto	i2u554_40
  9348  001A30                     i2u554_41:
  9349  001A30  EF41  F00D         	goto	i2l4327
  9350  001A34                     i2u554_40:
  9351  001A34  AC0D               	btfss	i2___fladd@signs^0,6,c
  9352  001A36  EF1F  F00D         	goto	i2u555_41
  9353  001A3A  EF21  F00D         	goto	i2u555_40
  9354  001A3E                     i2u555_41:
  9355  001A3E  EF23  F00D         	goto	i2l4297
  9356  001A42                     i2u555_40:
  9357  001A42  0E80               	movlw	128
  9358  001A44  1A0D               	xorwf	i2___fladd@signs^0,f,c
  9359  001A46                     i2l4297:
  9360  001A46  C00F  F010         	movff	i2___fladd@bexp,i2___fladd@grs
  9361  001A4A  C00E  F00F         	movff	i2___fladd@aexp,i2___fladd@bexp
  9362  001A4E  C010  F00E         	movff	i2___fladd@grs,i2___fladd@aexp
  9363  001A52  C001  F010         	movff	i2___fladd@b,i2___fladd@grs
  9364  001A56  C005  F001         	movff	i2___fladd@a,i2___fladd@b
  9365  001A5A  C010  F005         	movff	i2___fladd@grs,i2___fladd@a
  9366  001A5E  C002  F010         	movff	i2___fladd@b+1,i2___fladd@grs
  9367  001A62  C006  F002         	movff	i2___fladd@a+1,i2___fladd@b+1
  9368  001A66  C010  F006         	movff	i2___fladd@grs,i2___fladd@a+1
  9369  001A6A  C003  F010         	movff	i2___fladd@b+2,i2___fladd@grs
  9370  001A6E  C007  F003         	movff	i2___fladd@a+2,i2___fladd@b+2
  9371  001A72  C010  F007         	movff	i2___fladd@grs,i2___fladd@a+2
  9372  001A76  C004  F010         	movff	i2___fladd@b+3,i2___fladd@grs
  9373  001A7A  C008  F004         	movff	i2___fladd@a+3,i2___fladd@b+3
  9374  001A7E  C010  F008         	movff	i2___fladd@grs,i2___fladd@a+3
  9375  001A82                     i2l4327:
  9376  001A82  0E00               	movlw	0
  9377  001A84  6E10               	movwf	i2___fladd@grs^0,c
  9378  001A86  500F               	movf	i2___fladd@bexp^0,w,c
  9379  001A88  C00E  F009         	movff	i2___fladd@aexp,??i2___fladd
  9380  001A8C  6A0A               	clrf	(??i2___fladd+1)^0,c
  9381  001A8E  5E09               	subwf	??i2___fladd^0,f,c
  9382  001A90  0E00               	movlw	0
  9383  001A92  5A0A               	subwfb	(??i2___fladd+1)^0,f,c
  9384  001A94  BE0A               	btfsc	(??i2___fladd+1)^0,7,c
  9385  001A96  EF56  F00D         	goto	i2u556_41
  9386  001A9A  500A               	movf	(??i2___fladd+1)^0,w,c
  9387  001A9C  E109               	bnz	i2u556_40
  9388  001A9E  0E1A               	movlw	26
  9389  001AA0  5C09               	subwf	??i2___fladd^0,w,c
  9390  001AA2  A0D8               	btfss	status,0,c
  9391  001AA4  EF56  F00D         	goto	i2u556_41
  9392  001AA8  EF58  F00D         	goto	i2u556_40
  9393  001AAC                     i2u556_41:
  9394  001AAC  EF8F  F00D         	goto	i2l674
  9395  001AB0                     i2u556_40:
  9396  001AB0  5001               	movf	i2___fladd@b^0,w,c
  9397  001AB2  1002               	iorwf	(i2___fladd@b+1)^0,w,c
  9398  001AB4  1003               	iorwf	(i2___fladd@b+2)^0,w,c
  9399  001AB6  1004               	iorwf	(i2___fladd@b+3)^0,w,c
  9400  001AB8  A4D8               	btfss	status,2,c
  9401  001ABA  EF61  F00D         	goto	i2u557_41
  9402  001ABE  EF64  F00D         	goto	i2u557_40
  9403  001AC2                     i2u557_41:
  9404  001AC2  0E01               	movlw	1
  9405  001AC4  EF65  F00D         	goto	i2u558_40
  9406  001AC8                     i2u557_40:
  9407  001AC8  0E00               	movlw	0
  9408  001ACA                     i2u558_40:
  9409  001ACA  6E10               	movwf	i2___fladd@grs^0,c
  9410  001ACC  0E00               	movlw	0
  9411  001ACE  6E01               	movwf	i2___fladd@b^0,c
  9412  001AD0  0E00               	movlw	0
  9413  001AD2  6E02               	movwf	(i2___fladd@b+1)^0,c
  9414  001AD4  0E00               	movlw	0
  9415  001AD6  6E03               	movwf	(i2___fladd@b+2)^0,c
  9416  001AD8  0E00               	movlw	0
  9417  001ADA  6E04               	movwf	(i2___fladd@b+3)^0,c
  9418  001ADC  C00E  F00F         	movff	i2___fladd@aexp,i2___fladd@bexp
  9419  001AE0  EF98  F00D         	goto	i2l673
  9420  001AE4                     i2l675:
  9421  001AE4  A010               	btfss	i2___fladd@grs^0,0,c
  9422  001AE6  EF77  F00D         	goto	i2u559_41
  9423  001AEA  EF79  F00D         	goto	i2u559_40
  9424  001AEE                     i2u559_41:
  9425  001AEE  EF7F  F00D         	goto	i2l4339
  9426  001AF2                     i2u559_40:
  9427  001AF2  90D8               	bcf	status,0,c
  9428  001AF4  3010               	rrcf	i2___fladd@grs^0,w,c
  9429  001AF6  0901               	iorlw	1
  9430  001AF8  6E10               	movwf	i2___fladd@grs^0,c
  9431  001AFA  EF81  F00D         	goto	i2l4341
  9432  001AFE                     i2l4339:
  9433  001AFE  90D8               	bcf	status,0,c
  9434  001B00  3210               	rrcf	i2___fladd@grs^0,f,c
  9435  001B02                     i2l4341:
  9436  001B02  A001               	btfss	i2___fladd@b^0,0,c
  9437  001B04  EF86  F00D         	goto	i2u560_41
  9438  001B08  EF88  F00D         	goto	i2u560_40
  9439  001B0C                     i2u560_41:
  9440  001B0C  EF89  F00D         	goto	i2l4345
  9441  001B10                     i2u560_40:
  9442  001B10  8E10               	bsf	i2___fladd@grs^0,7,c
  9443  001B12                     i2l4345:
  9444  001B12  3404               	rlcf	(i2___fladd@b+3)^0,w,c
  9445  001B14  3204               	rrcf	(i2___fladd@b+3)^0,f,c
  9446  001B16  3203               	rrcf	(i2___fladd@b+2)^0,f,c
  9447  001B18  3202               	rrcf	(i2___fladd@b+1)^0,f,c
  9448  001B1A  3201               	rrcf	i2___fladd@b^0,f,c
  9449  001B1C  2A0F               	incf	i2___fladd@bexp^0,f,c
  9450  001B1E                     i2l674:
  9451  001B1E  500E               	movf	i2___fladd@aexp^0,w,c
  9452  001B20  5C0F               	subwf	i2___fladd@bexp^0,w,c
  9453  001B22  A0D8               	btfss	status,0,c
  9454  001B24  EF96  F00D         	goto	i2u561_41
  9455  001B28  EF98  F00D         	goto	i2u561_40
  9456  001B2C                     i2u561_41:
  9457  001B2C  EF72  F00D         	goto	i2l675
  9458  001B30                     i2u561_40:
  9459  001B30                     i2l673:
  9460  001B30  BC0D               	btfsc	i2___fladd@signs^0,6,c
  9461  001B32  EF9D  F00D         	goto	i2u562_41
  9462  001B36  EF9F  F00D         	goto	i2u562_40
  9463  001B3A                     i2u562_41:
  9464  001B3A  EFDF  F00D         	goto	i2l4373
  9465  001B3E                     i2u562_40:
  9466  001B3E  500F               	movf	i2___fladd@bexp^0,w,c
  9467  001B40  A4D8               	btfss	status,2,c
  9468  001B42  EFA5  F00D         	goto	i2u563_41
  9469  001B46  EFA7  F00D         	goto	i2u563_40
  9470  001B4A                     i2u563_41:
  9471  001B4A  EFB1  F00D         	goto	i2l4355
  9472  001B4E                     i2u563_40:
  9473  001B4E  0E00               	movlw	0
  9474  001B50  6E01               	movwf	?i2___fladd^0,c
  9475  001B52  0E00               	movlw	0
  9476  001B54  6E02               	movwf	(?i2___fladd+1)^0,c
  9477  001B56  0E00               	movlw	0
  9478  001B58  6E03               	movwf	(?i2___fladd+2)^0,c
  9479  001B5A  0E00               	movlw	0
  9480  001B5C  6E04               	movwf	(?i2___fladd+3)^0,c
  9481  001B5E  EF00  F00F         	goto	i2l682
  9482  001B62                     i2l4355:
  9483  001B62  5005               	movf	i2___fladd@a^0,w,c
  9484  001B64  2601               	addwf	i2___fladd@b^0,f,c
  9485  001B66  5006               	movf	(i2___fladd@a+1)^0,w,c
  9486  001B68  2202               	addwfc	(i2___fladd@b+1)^0,f,c
  9487  001B6A  5007               	movf	(i2___fladd@a+2)^0,w,c
  9488  001B6C  2203               	addwfc	(i2___fladd@b+2)^0,f,c
  9489  001B6E  5008               	movf	(i2___fladd@a+3)^0,w,c
  9490  001B70  2204               	addwfc	(i2___fladd@b+3)^0,f,c
  9491  001B72  A004               	btfss	(i2___fladd@b+3)^0,0,c
  9492  001B74  EFBE  F00D         	goto	i2u564_41
  9493  001B78  EFC0  F00D         	goto	i2u564_40
  9494  001B7C                     i2u564_41:
  9495  001B7C  EF6C  F00E         	goto	i2l4409
  9496  001B80                     i2u564_40:
  9497  001B80  A010               	btfss	i2___fladd@grs^0,0,c
  9498  001B82  EFC5  F00D         	goto	i2u565_41
  9499  001B86  EFC7  F00D         	goto	i2u565_40
  9500  001B8A                     i2u565_41:
  9501  001B8A  EFCD  F00D         	goto	i2l4363
  9502  001B8E                     i2u565_40:
  9503  001B8E  90D8               	bcf	status,0,c
  9504  001B90  3010               	rrcf	i2___fladd@grs^0,w,c
  9505  001B92  0901               	iorlw	1
  9506  001B94  6E10               	movwf	i2___fladd@grs^0,c
  9507  001B96  EFCF  F00D         	goto	i2l4365
  9508  001B9A                     i2l4363:
  9509  001B9A  90D8               	bcf	status,0,c
  9510  001B9C  3210               	rrcf	i2___fladd@grs^0,f,c
  9511  001B9E                     i2l4365:
  9512  001B9E  A001               	btfss	i2___fladd@b^0,0,c
  9513  001BA0  EFD4  F00D         	goto	i2u566_41
  9514  001BA4  EFD6  F00D         	goto	i2u566_40
  9515  001BA8                     i2u566_41:
  9516  001BA8  EFD7  F00D         	goto	i2l4369
  9517  001BAC                     i2u566_40:
  9518  001BAC  8E10               	bsf	i2___fladd@grs^0,7,c
  9519  001BAE                     i2l4369:
  9520  001BAE  3404               	rlcf	(i2___fladd@b+3)^0,w,c
  9521  001BB0  3204               	rrcf	(i2___fladd@b+3)^0,f,c
  9522  001BB2  3203               	rrcf	(i2___fladd@b+2)^0,f,c
  9523  001BB4  3202               	rrcf	(i2___fladd@b+1)^0,f,c
  9524  001BB6  3201               	rrcf	i2___fladd@b^0,f,c
  9525  001BB8  2A0F               	incf	i2___fladd@bexp^0,f,c
  9526  001BBA  EF6C  F00E         	goto	i2l4409
  9527  001BBE                     i2l4373:
  9528  001BBE  5005               	movf	i2___fladd@a^0,w,c
  9529  001BC0  5C01               	subwf	i2___fladd@b^0,w,c
  9530  001BC2  5006               	movf	(i2___fladd@a+1)^0,w,c
  9531  001BC4  5802               	subwfb	(i2___fladd@b+1)^0,w,c
  9532  001BC6  5007               	movf	(i2___fladd@a+2)^0,w,c
  9533  001BC8  5803               	subwfb	(i2___fladd@b+2)^0,w,c
  9534  001BCA  5004               	movf	(i2___fladd@b+3)^0,w,c
  9535  001BCC  0A80               	xorlw	128
  9536  001BCE  6E09               	movwf	??i2___fladd^0,c
  9537  001BD0  5008               	movf	(i2___fladd@a+3)^0,w,c
  9538  001BD2  0A80               	xorlw	128
  9539  001BD4  5809               	subwfb	??i2___fladd^0,w,c
  9540  001BD6  B0D8               	btfsc	status,0,c
  9541  001BD8  EFF0  F00D         	goto	i2u567_41
  9542  001BDC  EFF2  F00D         	goto	i2u567_40
  9543  001BE0                     i2u567_41:
  9544  001BE0  EF1D  F00E         	goto	i2l4383
  9545  001BE4                     i2u567_40:
  9546  001BE4  5001               	movf	i2___fladd@b^0,w,c
  9547  001BE6  5C05               	subwf	i2___fladd@a^0,w,c
  9548  001BE8  6E09               	movwf	??i2___fladd^0,c
  9549  001BEA  5002               	movf	(i2___fladd@b+1)^0,w,c
  9550  001BEC  5806               	subwfb	(i2___fladd@a+1)^0,w,c
  9551  001BEE  6E0A               	movwf	(??i2___fladd+1)^0,c
  9552  001BF0  5003               	movf	(i2___fladd@b+2)^0,w,c
  9553  001BF2  5807               	subwfb	(i2___fladd@a+2)^0,w,c
  9554  001BF4  6E0B               	movwf	(??i2___fladd+2)^0,c
  9555  001BF6  5004               	movf	(i2___fladd@b+3)^0,w,c
  9556  001BF8  5808               	subwfb	(i2___fladd@a+3)^0,w,c
  9557  001BFA  6E0C               	movwf	(??i2___fladd+3)^0,c
  9558  001BFC  0EFF               	movlw	255
  9559  001BFE  2409               	addwf	??i2___fladd^0,w,c
  9560  001C00  6E01               	movwf	i2___fladd@b^0,c
  9561  001C02  0EFF               	movlw	255
  9562  001C04  200A               	addwfc	(??i2___fladd+1)^0,w,c
  9563  001C06  6E02               	movwf	(i2___fladd@b+1)^0,c
  9564  001C08  0EFF               	movlw	255
  9565  001C0A  200B               	addwfc	(??i2___fladd+2)^0,w,c
  9566  001C0C  6E03               	movwf	(i2___fladd@b+2)^0,c
  9567  001C0E  0EFF               	movlw	255
  9568  001C10  200C               	addwfc	(??i2___fladd+3)^0,w,c
  9569  001C12  6E04               	movwf	(i2___fladd@b+3)^0,c
  9570  001C14  0E80               	movlw	128
  9571  001C16  1A0D               	xorwf	i2___fladd@signs^0,f,c
  9572  001C18  6C10               	negf	i2___fladd@grs^0,c
  9573  001C1A  5010               	movf	i2___fladd@grs^0,w,c
  9574  001C1C  A4D8               	btfss	status,2,c
  9575  001C1E  EF13  F00E         	goto	i2u568_41
  9576  001C22  EF15  F00E         	goto	i2u568_40
  9577  001C26                     i2u568_41:
  9578  001C26  EF25  F00E         	goto	i2l690
  9579  001C2A                     i2u568_40:
  9580  001C2A  0E01               	movlw	1
  9581  001C2C  2601               	addwf	i2___fladd@b^0,f,c
  9582  001C2E  0E00               	movlw	0
  9583  001C30  2202               	addwfc	(i2___fladd@b+1)^0,f,c
  9584  001C32  2203               	addwfc	(i2___fladd@b+2)^0,f,c
  9585  001C34  2204               	addwfc	(i2___fladd@b+3)^0,f,c
  9586  001C36  EF25  F00E         	goto	i2l690
  9587  001C3A                     i2l4383:
  9588  001C3A  5005               	movf	i2___fladd@a^0,w,c
  9589  001C3C  5E01               	subwf	i2___fladd@b^0,f,c
  9590  001C3E  5006               	movf	(i2___fladd@a+1)^0,w,c
  9591  001C40  5A02               	subwfb	(i2___fladd@b+1)^0,f,c
  9592  001C42  5007               	movf	(i2___fladd@a+2)^0,w,c
  9593  001C44  5A03               	subwfb	(i2___fladd@b+2)^0,f,c
  9594  001C46  5008               	movf	(i2___fladd@a+3)^0,w,c
  9595  001C48  5A04               	subwfb	(i2___fladd@b+3)^0,f,c
  9596  001C4A                     i2l690:
  9597  001C4A  5001               	movf	i2___fladd@b^0,w,c
  9598  001C4C  1002               	iorwf	(i2___fladd@b+1)^0,w,c
  9599  001C4E  1003               	iorwf	(i2___fladd@b+2)^0,w,c
  9600  001C50  1004               	iorwf	(i2___fladd@b+3)^0,w,c
  9601  001C52  A4D8               	btfss	status,2,c
  9602  001C54  EF2E  F00E         	goto	i2u569_41
  9603  001C58  EF30  F00E         	goto	i2u569_40
  9604  001C5C                     i2u569_41:
  9605  001C5C  EF65  F00E         	goto	i2l4407
  9606  001C60                     i2u569_40:
  9607  001C60  5010               	movf	i2___fladd@grs^0,w,c
  9608  001C62  A4D8               	btfss	status,2,c
  9609  001C64  EF36  F00E         	goto	i2u570_41
  9610  001C68  EF38  F00E         	goto	i2u570_40
  9611  001C6C                     i2u570_41:
  9612  001C6C  EF65  F00E         	goto	i2l4407
  9613  001C70                     i2u570_40:
  9614  001C70  0E00               	movlw	0
  9615  001C72  6E01               	movwf	?i2___fladd^0,c
  9616  001C74  0E00               	movlw	0
  9617  001C76  6E02               	movwf	(?i2___fladd+1)^0,c
  9618  001C78  0E00               	movlw	0
  9619  001C7A  6E03               	movwf	(?i2___fladd+2)^0,c
  9620  001C7C  0E00               	movlw	0
  9621  001C7E  6E04               	movwf	(?i2___fladd+3)^0,c
  9622  001C80  EF00  F00F         	goto	i2l682
  9623  001C84                     i2l4391:
  9624  001C84  90D8               	bcf	status,0,c
  9625  001C86  3601               	rlcf	i2___fladd@b^0,f,c
  9626  001C88  3602               	rlcf	(i2___fladd@b+1)^0,f,c
  9627  001C8A  3603               	rlcf	(i2___fladd@b+2)^0,f,c
  9628  001C8C  3604               	rlcf	(i2___fladd@b+3)^0,f,c
  9629  001C8E  AE10               	btfss	i2___fladd@grs^0,7,c
  9630  001C90  EF4C  F00E         	goto	i2u571_41
  9631  001C94  EF4E  F00E         	goto	i2u571_40
  9632  001C98                     i2u571_41:
  9633  001C98  EF4F  F00E         	goto	i2l4397
  9634  001C9C                     i2u571_40:
  9635  001C9C  8001               	bsf	i2___fladd@b^0,0,c
  9636  001C9E                     i2l4397:
  9637  001C9E  A010               	btfss	i2___fladd@grs^0,0,c
  9638  001CA0  EF54  F00E         	goto	i2u572_41
  9639  001CA4  EF56  F00E         	goto	i2u572_40
  9640  001CA8                     i2u572_41:
  9641  001CA8  EF5A  F00E         	goto	i2l4401
  9642  001CAC                     i2u572_40:
  9643  001CAC  80D8               	bsf	status,0,c
  9644  001CAE  3610               	rlcf	i2___fladd@grs^0,f,c
  9645  001CB0  EF5C  F00E         	goto	i2l4403
  9646  001CB4                     i2l4401:
  9647  001CB4  90D8               	bcf	status,0,c
  9648  001CB6  3610               	rlcf	i2___fladd@grs^0,f,c
  9649  001CB8                     i2l4403:
  9650  001CB8  500F               	movf	i2___fladd@bexp^0,w,c
  9651  001CBA  B4D8               	btfsc	status,2,c
  9652  001CBC  EF62  F00E         	goto	i2u573_41
  9653  001CC0  EF64  F00E         	goto	i2u573_40
  9654  001CC4                     i2u573_41:
  9655  001CC4  EF65  F00E         	goto	i2l4407
  9656  001CC8                     i2u573_40:
  9657  001CC8  060F               	decf	i2___fladd@bexp^0,f,c
  9658  001CCA                     i2l4407:
  9659  001CCA  AE03               	btfss	(i2___fladd@b+2)^0,7,c
  9660  001CCC  EF6A  F00E         	goto	i2u574_41
  9661  001CD0  EF6C  F00E         	goto	i2u574_40
  9662  001CD4                     i2u574_41:
  9663  001CD4  EF42  F00E         	goto	i2l4391
  9664  001CD8                     i2u574_40:
  9665  001CD8                     i2l4409:
  9666  001CD8  0E00               	movlw	0
  9667  001CDA  6E0E               	movwf	i2___fladd@aexp^0,c
  9668  001CDC  AE10               	btfss	i2___fladd@grs^0,7,c
  9669  001CDE  EF73  F00E         	goto	i2u575_41
  9670  001CE2  EF75  F00E         	goto	i2u575_40
  9671  001CE6                     i2u575_41:
  9672  001CE6  EF8D  F00E         	goto	i2l699
  9673  001CEA                     i2u575_40:
  9674  001CEA  C010  F009         	movff	i2___fladd@grs,??i2___fladd
  9675  001CEE  0E7F               	movlw	127
  9676  001CF0  1609               	andwf	??i2___fladd^0,f,c
  9677  001CF2  B4D8               	btfsc	status,2,c
  9678  001CF4  EF7E  F00E         	goto	i2u576_41
  9679  001CF8  EF80  F00E         	goto	i2u576_40
  9680  001CFC                     i2u576_41:
  9681  001CFC  EF84  F00E         	goto	i2l700
  9682  001D00                     i2u576_40:
  9683  001D00                     i2l4415:
  9684  001D00  0E01               	movlw	1
  9685  001D02  6E0E               	movwf	i2___fladd@aexp^0,c
  9686  001D04  EF8D  F00E         	goto	i2l699
  9687  001D08                     i2l700:
  9688  001D08  A001               	btfss	i2___fladd@b^0,0,c
  9689  001D0A  EF89  F00E         	goto	i2u577_41
  9690  001D0E  EF8B  F00E         	goto	i2u577_40
  9691  001D12                     i2u577_41:
  9692  001D12  EF8D  F00E         	goto	i2l699
  9693  001D16                     i2u577_40:
  9694  001D16  EF80  F00E         	goto	i2l4415
  9695  001D1A                     i2l699:
  9696  001D1A  500E               	movf	i2___fladd@aexp^0,w,c
  9697  001D1C  B4D8               	btfsc	status,2,c
  9698  001D1E  EF93  F00E         	goto	i2u578_41
  9699  001D22  EF95  F00E         	goto	i2u578_40
  9700  001D26                     i2u578_41:
  9701  001D26  EFC0  F00E         	goto	i2l4427
  9702  001D2A                     i2u578_40:
  9703  001D2A  0E01               	movlw	1
  9704  001D2C  2601               	addwf	i2___fladd@b^0,f,c
  9705  001D2E  0E00               	movlw	0
  9706  001D30  2202               	addwfc	(i2___fladd@b+1)^0,f,c
  9707  001D32  2203               	addwfc	(i2___fladd@b+2)^0,f,c
  9708  001D34  2204               	addwfc	(i2___fladd@b+3)^0,f,c
  9709  001D36  A004               	btfss	(i2___fladd@b+3)^0,0,c
  9710  001D38  EFA0  F00E         	goto	i2u579_41
  9711  001D3C  EFA2  F00E         	goto	i2u579_40
  9712  001D40                     i2u579_41:
  9713  001D40  EFC0  F00E         	goto	i2l4427
  9714  001D44                     i2u579_40:
  9715  001D44  C001  F009         	movff	i2___fladd@b,??i2___fladd
  9716  001D48  C002  F00A         	movff	i2___fladd@b+1,??i2___fladd+1
  9717  001D4C  C003  F00B         	movff	i2___fladd@b+2,??i2___fladd+2
  9718  001D50  C004  F00C         	movff	i2___fladd@b+3,??i2___fladd+3
  9719  001D54  340C               	rlcf	(??i2___fladd+3)^0,w,c
  9720  001D56  320C               	rrcf	(??i2___fladd+3)^0,f,c
  9721  001D58  320B               	rrcf	(??i2___fladd+2)^0,f,c
  9722  001D5A  320A               	rrcf	(??i2___fladd+1)^0,f,c
  9723  001D5C  3209               	rrcf	??i2___fladd^0,f,c
  9724  001D5E  C009  F001         	movff	??i2___fladd,i2___fladd@b
  9725  001D62  C00A  F002         	movff	??i2___fladd+1,i2___fladd@b+1
  9726  001D66  C00B  F003         	movff	??i2___fladd+2,i2___fladd@b+2
  9727  001D6A  C00C  F004         	movff	??i2___fladd+3,i2___fladd@b+3
  9728  001D6E  280F               	incf	i2___fladd@bexp^0,w,c
  9729  001D70  B4D8               	btfsc	status,2,c
  9730  001D72  EFBD  F00E         	goto	i2u580_41
  9731  001D76  EFBF  F00E         	goto	i2u580_40
  9732  001D7A                     i2u580_41:
  9733  001D7A  EFC0  F00E         	goto	i2l4427
  9734  001D7E                     i2u580_40:
  9735  001D7E  2A0F               	incf	i2___fladd@bexp^0,f,c
  9736  001D80                     i2l4427:
  9737  001D80  280F               	incf	i2___fladd@bexp^0,w,c
  9738  001D82  B4D8               	btfsc	status,2,c
  9739  001D84  EFC6  F00E         	goto	i2u581_41
  9740  001D88  EFC8  F00E         	goto	i2u581_40
  9741  001D8C                     i2u581_41:
  9742  001D8C  EFD0  F00E         	goto	i2l4431
  9743  001D90                     i2u581_40:
  9744  001D90  500F               	movf	i2___fladd@bexp^0,w,c
  9745  001D92  A4D8               	btfss	status,2,c
  9746  001D94  EFCE  F00E         	goto	i2u582_41
  9747  001D98  EFD0  F00E         	goto	i2u582_40
  9748  001D9C                     i2u582_41:
  9749  001D9C  EFE2  F00E         	goto	i2l4435
  9750  001DA0                     i2u582_40:
  9751  001DA0                     i2l4431:
  9752  001DA0  0E00               	movlw	0
  9753  001DA2  6E01               	movwf	i2___fladd@b^0,c
  9754  001DA4  0E00               	movlw	0
  9755  001DA6  6E02               	movwf	(i2___fladd@b+1)^0,c
  9756  001DA8  0E00               	movlw	0
  9757  001DAA  6E03               	movwf	(i2___fladd@b+2)^0,c
  9758  001DAC  0E00               	movlw	0
  9759  001DAE  6E04               	movwf	(i2___fladd@b+3)^0,c
  9760  001DB0  500F               	movf	i2___fladd@bexp^0,w,c
  9761  001DB2  A4D8               	btfss	status,2,c
  9762  001DB4  EFDE  F00E         	goto	i2u583_41
  9763  001DB8  EFE0  F00E         	goto	i2u583_40
  9764  001DBC                     i2u583_41:
  9765  001DBC  EFE2  F00E         	goto	i2l4435
  9766  001DC0                     i2u583_40:
  9767  001DC0  0E00               	movlw	0
  9768  001DC2  6E0D               	movwf	i2___fladd@signs^0,c
  9769  001DC4                     i2l4435:
  9770  001DC4  A00F               	btfss	i2___fladd@bexp^0,0,c
  9771  001DC6  EFE7  F00E         	goto	i2u584_41
  9772  001DCA  EFE9  F00E         	goto	i2u584_40
  9773  001DCE                     i2u584_41:
  9774  001DCE  EFEC  F00E         	goto	i2l4439
  9775  001DD2                     i2u584_40:
  9776  001DD2  8E03               	bsf	(i2___fladd@b+2)^0,7,c
  9777  001DD4  EFED  F00E         	goto	i2l4441
  9778  001DD8                     i2l4439:
  9779  001DD8  9E03               	bcf	(i2___fladd@b+2)^0,7,c
  9780  001DDA                     i2l4441:
  9781  001DDA  90D8               	bcf	status,0,c
  9782  001DDC  300F               	rrcf	i2___fladd@bexp^0,w,c
  9783  001DDE  6E04               	movwf	(i2___fladd@b+3)^0,c
  9784  001DE0  AE0D               	btfss	i2___fladd@signs^0,7,c
  9785  001DE2  EFF5  F00E         	goto	i2u585_41
  9786  001DE6  EFF7  F00E         	goto	i2u585_40
  9787  001DEA                     i2u585_41:
  9788  001DEA  EFF8  F00E         	goto	i2l4447
  9789  001DEE                     i2u585_40:
  9790  001DEE  8E04               	bsf	(i2___fladd@b+3)^0,7,c
  9791  001DF0                     i2l4447:
  9792  001DF0  C001  F001         	movff	i2___fladd@b,?i2___fladd
  9793  001DF4  C002  F002         	movff	i2___fladd@b+1,?i2___fladd+1
  9794  001DF8  C003  F003         	movff	i2___fladd@b+2,?i2___fladd+2
  9795  001DFC  C004  F004         	movff	i2___fladd@b+3,?i2___fladd+3
  9796  001E00                     i2l682:
  9797  001E00  0012               	return		;funcret
  9798  001E02                     __end_ofi2___fladd:
  9799                           	callstack 0
  9800                           
  9801                           	psect	rparam
  9802  0000                     
  9803                           	psect	temp
  9804  00004E                     btemp:
  9805                           	callstack 0
  9806  00004E                     	ds	1
  9807  0000                     int$flags	set	btemp
  9808  0000                     wtemp8	set	btemp+1
  9809  0000                     ttemp5	set	btemp+1
  9810  0000                     ttemp6	set	btemp+4
  9811  0000                     ttemp7	set	btemp+8
  9812                           
  9813                           	psect	idloc
  9814                           
  9815                           ;Config register IDLOC0 @ 0x200000
  9816                           ;	unspecified, using default values
  9817  200000                     	org	2097152
  9818  200000  FF                 	db	255
  9819                           
  9820                           ;Config register IDLOC1 @ 0x200001
  9821                           ;	unspecified, using default values
  9822  200001                     	org	2097153
  9823  200001  FF                 	db	255
  9824                           
  9825                           ;Config register IDLOC2 @ 0x200002
  9826                           ;	unspecified, using default values
  9827  200002                     	org	2097154
  9828  200002  FF                 	db	255
  9829                           
  9830                           ;Config register IDLOC3 @ 0x200003
  9831                           ;	unspecified, using default values
  9832  200003                     	org	2097155
  9833  200003  FF                 	db	255
  9834                           
  9835                           ;Config register IDLOC4 @ 0x200004
  9836                           ;	unspecified, using default values
  9837  200004                     	org	2097156
  9838  200004  FF                 	db	255
  9839                           
  9840                           ;Config register IDLOC5 @ 0x200005
  9841                           ;	unspecified, using default values
  9842  200005                     	org	2097157
  9843  200005  FF                 	db	255
  9844                           
  9845                           ;Config register IDLOC6 @ 0x200006
  9846                           ;	unspecified, using default values
  9847  200006                     	org	2097158
  9848  200006  FF                 	db	255
  9849                           
  9850                           ;Config register IDLOC7 @ 0x200007
  9851                           ;	unspecified, using default values
  9852  200007                     	org	2097159
  9853  200007  FF                 	db	255
  9854                           
  9855                           	psect	config
  9856                           
  9857                           ;Config register CONFIG1L @ 0x300000
  9858                           ;	PLL Prescaler Selection bits
  9859                           ;	PLLDIV = 1, No prescale (4 MHz oscillator input drives PLL directly)
  9860                           ;	System Clock Postscaler Selection bits
  9861                           ;	CPUDIV = OSC1_PLL2, [Primary Oscillator Src: /1][96 MHz PLL Src: /2]
  9862                           ;	USB Clock Selection bit (used in Full-Speed USB mode only; UCFG:FSEN = 1)
  9863                           ;	USBDIV = 1, USB clock source comes directly from the primary oscillator block with no 
      +                          postscale
  9864  300000                     	org	3145728
  9865  300000  00                 	db	0
  9866                           
  9867                           ;Config register CONFIG1H @ 0x300001
  9868                           ;	Oscillator Selection bits
  9869                           ;	FOSC = HS, HS oscillator (HS)
  9870                           ;	Fail-Safe Clock Monitor Enable bit
  9871                           ;	FCMEN = OFF, Fail-Safe Clock Monitor disabled
  9872                           ;	Internal/External Oscillator Switchover bit
  9873                           ;	IESO = OFF, Oscillator Switchover mode disabled
  9874  300001                     	org	3145729
  9875  300001  0C                 	db	12
  9876                           
  9877                           ;Config register CONFIG2L @ 0x300002
  9878                           ;	Power-up Timer Enable bit
  9879                           ;	PWRT = OFF, PWRT disabled
  9880                           ;	Brown-out Reset Enable bits
  9881                           ;	BOR = OFF, Brown-out Reset disabled in hardware and software
  9882                           ;	Brown-out Reset Voltage bits
  9883                           ;	BORV = 3, Minimum setting 2.05V
  9884                           ;	USB Voltage Regulator Enable bit
  9885                           ;	VREGEN = OFF, USB voltage regulator disabled
  9886  300002                     	org	3145730
  9887  300002  19                 	db	25
  9888                           
  9889                           ;Config register CONFIG2H @ 0x300003
  9890                           ;	Watchdog Timer Enable bit
  9891                           ;	WDT = OFF, WDT disabled (control is placed on the SWDTEN bit)
  9892                           ;	Watchdog Timer Postscale Select bits
  9893                           ;	WDTPS = 32768, 1:32768
  9894  300003                     	org	3145731
  9895  300003  1E                 	db	30
  9896                           
  9897                           ; Padding undefined space
  9898  300004                     	org	3145732
  9899  300004  FF                 	db	255
  9900                           
  9901                           ;Config register CONFIG3H @ 0x300005
  9902                           ;	CCP2 MUX bit
  9903                           ;	CCP2MX = ON, CCP2 input/output is multiplexed with RC1
  9904                           ;	PORTB A/D Enable bit
  9905                           ;	PBADEN = ON, PORTB<4:0> pins are configured as analog input channels on Reset
  9906                           ;	Low-Power Timer 1 Oscillator Enable bit
  9907                           ;	LPT1OSC = OFF, Timer1 configured for higher power operation
  9908                           ;	MCLR Pin Enable bit
  9909                           ;	MCLRE = ON, MCLR pin enabled; RE3 input pin disabled
  9910  300005                     	org	3145733
  9911  300005  83                 	db	131
  9912                           
  9913                           ;Config register CONFIG4L @ 0x300006
  9914                           ;	Stack Full/Underflow Reset Enable bit
  9915                           ;	STVREN = ON, Stack full/underflow will cause Reset
  9916                           ;	Single-Supply ICSP Enable bit
  9917                           ;	LVP = ON, Single-Supply ICSP enabled
  9918                           ;	Dedicated In-Circuit Debug/Programming Port (ICPORT) Enable bit
  9919                           ;	ICPRT = OFF, ICPORT disabled
  9920                           ;	Extended Instruction Set Enable bit
  9921                           ;	XINST = OFF, Instruction set extension and Indexed Addressing mode disabled (Legacy mo
      +                          de)
  9922                           ;	Background Debugger Enable bit
  9923                           ;	DEBUG = 0x1, unprogrammed default
  9924  300006                     	org	3145734
  9925  300006  85                 	db	133
  9926                           
  9927                           ; Padding undefined space
  9928  300007                     	org	3145735
  9929  300007  FF                 	db	255
  9930                           
  9931                           ;Config register CONFIG5L @ 0x300008
  9932                           ;	Code Protection bit
  9933                           ;	CP0 = OFF, Block 0 (000800-001FFFh) is not code-protected
  9934                           ;	Code Protection bit
  9935                           ;	CP1 = OFF, Block 1 (002000-003FFFh) is not code-protected
  9936                           ;	Code Protection bit
  9937                           ;	CP2 = OFF, Block 2 (004000-005FFFh) is not code-protected
  9938                           ;	Code Protection bit
  9939                           ;	CP3 = OFF, Block 3 (006000-007FFFh) is not code-protected
  9940  300008                     	org	3145736
  9941  300008  0F                 	db	15
  9942                           
  9943                           ;Config register CONFIG5H @ 0x300009
  9944                           ;	Boot Block Code Protection bit
  9945                           ;	CPB = OFF, Boot block (000000-0007FFh) is not code-protected
  9946                           ;	Data EEPROM Code Protection bit
  9947                           ;	CPD = OFF, Data EEPROM is not code-protected
  9948  300009                     	org	3145737
  9949  300009  C0                 	db	192
  9950                           
  9951                           ;Config register CONFIG6L @ 0x30000A
  9952                           ;	Write Protection bit
  9953                           ;	WRT0 = OFF, Block 0 (000800-001FFFh) is not write-protected
  9954                           ;	Write Protection bit
  9955                           ;	WRT1 = OFF, Block 1 (002000-003FFFh) is not write-protected
  9956                           ;	Write Protection bit
  9957                           ;	WRT2 = OFF, Block 2 (004000-005FFFh) is not write-protected
  9958                           ;	Write Protection bit
  9959                           ;	WRT3 = OFF, Block 3 (006000-007FFFh) is not write-protected
  9960  30000A                     	org	3145738
  9961  30000A  0F                 	db	15
  9962                           
  9963                           ;Config register CONFIG6H @ 0x30000B
  9964                           ;	Configuration Register Write Protection bit
  9965                           ;	WRTC = OFF, Configuration registers (300000-3000FFh) are not write-protected
  9966                           ;	Boot Block Write Protection bit
  9967                           ;	WRTB = OFF, Boot block (000000-0007FFh) is not write-protected
  9968                           ;	Data EEPROM Write Protection bit
  9969                           ;	WRTD = OFF, Data EEPROM is not write-protected
  9970  30000B                     	org	3145739
  9971  30000B  E0                 	db	224
  9972                           
  9973                           ;Config register CONFIG7L @ 0x30000C
  9974                           ;	Table Read Protection bit
  9975                           ;	EBTR0 = OFF, Block 0 (000800-001FFFh) is not protected from table reads executed in ot
      +                          her blocks
  9976                           ;	Table Read Protection bit
  9977                           ;	EBTR1 = OFF, Block 1 (002000-003FFFh) is not protected from table reads executed in ot
      +                          her blocks
  9978                           ;	Table Read Protection bit
  9979                           ;	EBTR2 = OFF, Block 2 (004000-005FFFh) is not protected from table reads executed in ot
      +                          her blocks
  9980                           ;	Table Read Protection bit
  9981                           ;	EBTR3 = OFF, Block 3 (006000-007FFFh) is not protected from table reads executed in ot
      +                          her blocks
  9982  30000C                     	org	3145740
  9983  30000C  0F                 	db	15
  9984                           
  9985                           ;Config register CONFIG7H @ 0x30000D
  9986                           ;	Boot Block Table Read Protection bit
  9987                           ;	EBTRB = OFF, Boot block (000000-0007FFh) is not protected from table reads executed in
      +                           other blocks
  9988  30000D                     	org	3145741
  9989  30000D  40                 	db	64
  9990                           tosu	equ	0xFFF
  9991                           tosh	equ	0xFFE
  9992                           tosl	equ	0xFFD
  9993                           stkptr	equ	0xFFC
  9994                           pclatu	equ	0xFFB
  9995                           pclath	equ	0xFFA
  9996                           pcl	equ	0xFF9
  9997                           tblptru	equ	0xFF8
  9998                           tblptrh	equ	0xFF7
  9999                           tblptrl	equ	0xFF6
 10000                           tablat	equ	0xFF5
 10001                           prodh	equ	0xFF4
 10002                           prodl	equ	0xFF3
 10003                           indf0	equ	0xFEF
 10004                           postinc0	equ	0xFEE
 10005                           postdec0	equ	0xFED
 10006                           preinc0	equ	0xFEC
 10007                           plusw0	equ	0xFEB
 10008                           fsr0h	equ	0xFEA
 10009                           fsr0l	equ	0xFE9
 10010                           wreg	equ	0xFE8
 10011                           indf1	equ	0xFE7
 10012                           postinc1	equ	0xFE6
 10013                           postdec1	equ	0xFE5
 10014                           preinc1	equ	0xFE4
 10015                           plusw1	equ	0xFE3
 10016                           fsr1h	equ	0xFE2
 10017                           fsr1l	equ	0xFE1
 10018                           bsr	equ	0xFE0
 10019                           indf2	equ	0xFDF
 10020                           postinc2	equ	0xFDE
 10021                           postdec2	equ	0xFDD
 10022                           preinc2	equ	0xFDC
 10023                           plusw2	equ	0xFDB
 10024                           fsr2h	equ	0xFDA
 10025                           fsr2l	equ	0xFD9
 10026                           status	equ	0xFD8

Data Sizes:
    Strings     31
    Constant    0
    Data        0
    BSS         123
    Persistent  0
    Stack       0

Auto Spaces:
    Space          Size  Autos    Used
    COMRAM           94     63      77
    BANK0           160    145     159
    BANK1           256     16     111
    BANK2           256      0       0
    BANK3           256      0       0
    BANK4           256      0       0
    BANK5           256      0       0
    BANK6           256      0       0
    BANK7           256      0       0

Pointer List with Targets:

    strncmp@_r	PTR const unsigned char  size(2) Largest target is 3
		 -> STR_12(CODE[3]), 

    strncmp@r	PTR const unsigned char  size(2) Largest target is 3
		 -> STR_12(CODE[3]), 

    strncmp@_l	PTR const unsigned char  size(2) Largest target is 3
		 -> vfpfcnvrt@ct(BANK0[3]), 

    strncmp@l	PTR const unsigned char  size(2) Largest target is 3
		 -> vfpfcnvrt@ct(BANK0[3]), 

    strlen@s	PTR const unsigned char  size(2) Largest target is 80
		 -> dbuf(BANK1[80]), 

    strlen@a	PTR const unsigned char  size(2) Largest target is 80
		 -> dbuf(BANK1[80]), 

    strcpy@dest	PTR unsigned char  size(2) Largest target is 80
		 -> dbuf(BANK1[80]), 

    strcpy@d	PTR unsigned char  size(2) Largest target is 80
		 -> dbuf(BANK1[80]), 

    strcpy@src	PTR const unsigned char  size(2) Largest target is 80
		 -> STR_7(CODE[4]), STR_6(CODE[4]), STR_3(CODE[4]), STR_2(CODE[4]), 
		 -> dbuf(BANK1[80]), 

    strcpy@s	PTR const unsigned char  size(2) Largest target is 80
		 -> STR_7(CODE[4]), STR_6(CODE[4]), STR_3(CODE[4]), STR_2(CODE[4]), 
		 -> dbuf(BANK1[80]), 

    fputs@s	PTR const unsigned char  size(2) Largest target is 80
		 -> dbuf(BANK1[80]), 

    fputs@fp	PTR struct _IO_FILE size(2) Largest target is 7
		 -> sprintf@f(BANK1[6]), 

    fputc@fp.buffer	PTR unsigned char  size(2) Largest target is 15
		 -> cadena(BANK1[15]), 

    fputc@fp	PTR struct _IO_FILE size(2) Largest target is 7
		 -> sprintf@f(BANK1[6]), 

    atoi@s	PTR const unsigned char  size(2) Largest target is 12
		 -> STR_1(CODE[12]), 

    vfprintf@ap	PTR PTR void  size(2) Largest target is 2
		 -> sprintf@ap(BANK1[2]), 

    vfprintf@fp	PTR struct _IO_FILE size(2) Largest target is 7
		 -> sprintf@f(BANK1[6]), 

    vfprintf@fmt	PTR const unsigned char  size(2) Largest target is 12
		 -> STR_1(CODE[12]), 

    vfprintf@cfmt	PTR unsigned char  size(2) Largest target is 12
		 -> STR_1(CODE[12]), 

    vfpfcnvrt@fp	PTR struct _IO_FILE size(2) Largest target is 7
		 -> sprintf@f(BANK1[6]), 

    vfpfcnvrt@ap	PTR PTR void  size(2) Largest target is 2
		 -> sprintf@ap(BANK1[2]), 

    vfpfcnvrt@fmt	PTR PTR unsigned char  size(2) Largest target is 2
		 -> vfprintf@cfmt(BANK0[2]), 

    efgtoa@fp	PTR struct _IO_FILE size(2) Largest target is 7
		 -> sprintf@f(BANK1[6]), 

    sp__strcpy	PTR unsigned char  size(2) Largest target is 80
		 -> dbuf(BANK1[80]), 

    pad@fp	PTR struct _IO_FILE size(2) Largest target is 7
		 -> sprintf@f(BANK1[6]), 

    pad@buf	PTR unsigned char  size(2) Largest target is 80
		 -> dbuf(BANK1[80]), 

    sprintf@fmt	PTR const unsigned char  size(2) Largest target is 12
		 -> STR_1(CODE[12]), 

    sprintf@s	PTR unsigned char  size(2) Largest target is 15
		 -> cadena(BANK1[15]), 

    sprintf@ap	PTR void [1] size(2) Largest target is 2
		 -> ?_sprintf(BANK1[2]), 

    S1199_IO_FILE$buffer	PTR unsigned char  size(2) Largest target is 15
		 -> cadena(BANK1[15]), 

    f.buffer	PTR unsigned char  size(2) Largest target is 15
		 -> cadena(BANK1[15]), 

    USART_PutString@str	PTR unsigned char  size(2) Largest target is 15
		 -> cadena(BANK1[15]), 


Critical Paths under _main in COMRAM

    _efgtoa->___fltol
    _tolower->_isupper
    _pad->_fputs
    _fputs->_fputc
    ___flsub->___flmul
    ___flge->___flmul
    _atoi->_isspace
    _set_duty_cpp1->___fltol
    ___fltol->___flmul
    ___flmul->_analogic_read
    ___fldiv->___flmul
    _analogic_read->___xxtofl
    _USART_init->___lldiv
    _USART_PutString->_USART_PutChar

Critical Paths under _ISR in COMRAM

    _ISR->i2___fladd

Critical Paths under _main in BANK0

    _sprintf->_vfprintf
    _vfprintf->_vfpfcnvrt
    _vfpfcnvrt->_efgtoa
    _efgtoa->_floorf
    _floorf->___fldiv
    _set_duty_cpp1->___fltol
    ___fltol->___fldiv

Critical Paths under _ISR in BANK0

    None.

Critical Paths under _main in BANK1

    _main->_sprintf

Critical Paths under _ISR in BANK1

    None.

Critical Paths under _main in BANK2

    None.

Critical Paths under _ISR in BANK2

    None.

Critical Paths under _main in BANK3

    None.

Critical Paths under _ISR in BANK3

    None.

Critical Paths under _main in BANK4

    None.

Critical Paths under _ISR in BANK4

    None.

Critical Paths under _main in BANK5

    None.

Critical Paths under _ISR in BANK5

    None.

Critical Paths under _main in BANK6

    None.

Critical Paths under _ISR in BANK6

    None.

Critical Paths under _main in BANK7

    None.

Critical Paths under _ISR in BANK7

    None.

Call Graph Tables:

 ---------------------------------------------------------------------------------
 (Depth) Function   	        Calls       Base Space   Used Autos Params    Refs
 ---------------------------------------------------------------------------------
 (0) _main                                                 2     2      0   57457
                                            143 BANK0      2     2      0
                    _USART_PutString
                         _USART_init
                            ___fldiv
                            ___flmul
                           _adc_init
                      _analogic_read
               _config_interrup_cero
                           _pwm_init
                      _set_duty_cpp1
                            _sprintf
 ---------------------------------------------------------------------------------
 (1) _sprintf                                             18    10      8   39220
                                              0 BANK1     16     8      8
                           _vfprintf
 ---------------------------------------------------------------------------------
 (2) _vfprintf                                             8     2      6   38716
                                            135 BANK0      8     2      6
                          _vfpfcnvrt
 ---------------------------------------------------------------------------------
 (3) _vfpfcnvrt                                           48    42      6   38189
                                            113 BANK0     22    16      6
                               _atoi
                             _efgtoa
                              _fputc
                            _isdigit
                            _isupper
                            _strncmp
                            _tolower
 ---------------------------------------------------------------------------------
 (4) _strncmp                                             11     5      6     595
                                             16 COMRAM    11     5      6
 ---------------------------------------------------------------------------------
 (4) _efgtoa                                              68    61      7   31380
                                             45 BANK0     68    61      7
                            ___awdiv
                            ___awmod
                            ___fladd
                            ___fldiv
                             ___fleq
                             ___flge
                            ___flmul
                            ___flneg
                            ___flsub
                            ___fltol
                      ___fpclassifyf
                             _floorf
                            _isupper
                                _pad
                             _strcpy
                            _tolower
 ---------------------------------------------------------------------------------
 (4) _tolower                                              8     6      2    1142
                                             22 COMRAM     8     6      2
                            _isupper
 ---------------------------------------------------------------------------------
 (5) _isupper                                              6     4      2     551
                                             16 COMRAM     6     4      2
 ---------------------------------------------------------------------------------
 (5) _strcpy                                              10     6      4    1037
                                             16 COMRAM    10     6      4
 ---------------------------------------------------------------------------------
 (5) _pad                                                 11     5      6    3957
                                             32 COMRAM    11     5      6
                              _fputc
                              _fputs
                             _strlen
 ---------------------------------------------------------------------------------
 (6) _strlen                                               4     2      2     220
                                             16 COMRAM     4     2      2
 ---------------------------------------------------------------------------------
 (6) _fputs                                                7     3      4    1537
                                             25 COMRAM     7     3      4
                              _fputc
 ---------------------------------------------------------------------------------
 (4) _fputc                                                9     5      4    1037
                                             16 COMRAM     9     5      4
                              _putch
 ---------------------------------------------------------------------------------
 (5) _putch                                                1     1      0       0
 ---------------------------------------------------------------------------------
 (5) _floorf                                              20    16      4     669
                                             25 BANK0     20    16      4
                            ___fldiv (ARG)
 ---------------------------------------------------------------------------------
 (5) ___fpclassifyf                                       14    10      4     375
                                             16 COMRAM    14    10      4
 ---------------------------------------------------------------------------------
 (5) ___flsub                                              8     0      8    4117
                                              0 BANK0      8     0      8
                            ___fladd
                            ___flmul (ARG)
 ---------------------------------------------------------------------------------
 (6) ___fladd                                             16     8      8    3552
                                             16 COMRAM    16     8      8
 ---------------------------------------------------------------------------------
 (5) ___flneg                                              4     0      4     155
                                             16 COMRAM     4     0      4
 ---------------------------------------------------------------------------------
 (5) ___flge                                              12     4      8     986
                                              0 BANK0     12     4      8
                            ___flmul (ARG)
 ---------------------------------------------------------------------------------
 (5) ___fleq                                              12     4      8     770
                                             16 COMRAM    12     4      8
 ---------------------------------------------------------------------------------
 (5) ___awmod                                              6     2      4     613
                                             16 COMRAM     6     2      4
 ---------------------------------------------------------------------------------
 (5) ___awdiv                                              8     4      4     625
                                             16 COMRAM     8     4      4
 ---------------------------------------------------------------------------------
 (4) _atoi                                                15    13      2    1515
                                             23 COMRAM    15    13      2
                             ___wmul
                            _isdigit
                            _isspace
 ---------------------------------------------------------------------------------
 (5) _isspace                                              7     5      2     259
                                             16 COMRAM     7     5      2
 ---------------------------------------------------------------------------------
 (4) _isdigit                                              6     4      2     281
                                             16 COMRAM     6     4      2
 ---------------------------------------------------------------------------------
 (5) ___wmul                                               6     2      4     412
                                             16 COMRAM     6     2      4
 ---------------------------------------------------------------------------------
 (1) _set_duty_cpp1                                        4     0      4    9124
                                             33 BANK0      4     0      4
                            ___fldiv
                            ___flmul
                            ___fltol
                           ___xxtofl
 ---------------------------------------------------------------------------------
 (5) ___fltol                                             10     6      4     697
                                             61 COMRAM     2     2      0
                                             25 BANK0      8     4      4
                            ___fldiv (ARG)
                            ___flmul (ARG)
                           ___xxtofl (ARG)
 ---------------------------------------------------------------------------------
 (5) ___flmul                                             25    17      8    4313
                                             36 COMRAM    25    17      8
                           ___xxtofl (ARG)
                      _analogic_read (ARG)
 ---------------------------------------------------------------------------------
 (5) ___fldiv                                             25    17      8    3443
                                              0 BANK0     25    17      8
                            ___flmul (ARG)
                      _analogic_read (ARG)
 ---------------------------------------------------------------------------------
 (1) _pwm_init                                             2     1      1     208
                                             16 COMRAM     2     1      1
 ---------------------------------------------------------------------------------
 (1) _config_interrup_cero                                 1     1      0      22
                                             16 COMRAM     1     1      0
 ---------------------------------------------------------------------------------
 (1) _analogic_read                                        6     2      4     572
                                             30 COMRAM     6     2      4
                           ___xxtofl
 ---------------------------------------------------------------------------------
 (2) ___xxtofl                                            14    10      4     550
                                             16 COMRAM    14    10      4
 ---------------------------------------------------------------------------------
 (1) _adc_init                                             0     0      0       0
 ---------------------------------------------------------------------------------
 (1) _USART_init                                           2     0      2     412
                                             29 COMRAM     2     0      2
                            ___lldiv
 ---------------------------------------------------------------------------------
 (2) ___lldiv                                             13     5      8     314
                                             16 COMRAM    13     5      8
 ---------------------------------------------------------------------------------
 (1) _USART_PutString                                      2     0      2     143
                                             17 COMRAM     2     0      2
                      _USART_PutChar
 ---------------------------------------------------------------------------------
 (2) _USART_PutChar                                        1     1      0      22
                                             16 COMRAM     1     1      0
 ---------------------------------------------------------------------------------
 Estimated maximum stack depth 6
 ---------------------------------------------------------------------------------
 (Depth) Function   	        Calls       Base Space   Used Autos Params    Refs
 ---------------------------------------------------------------------------------
 (9) _ISR                                                  0     0      0    2036
                          i2___fladd
 ---------------------------------------------------------------------------------
 (10) i2___fladd                                          16     8      8    2036
                                              0 COMRAM    16     8      8
 ---------------------------------------------------------------------------------
 Estimated maximum stack depth 10
 ---------------------------------------------------------------------------------

 Call Graph Graphs:

 _main (ROOT)
   _USART_PutString
     _USART_PutChar
   _USART_init
     ___lldiv
   ___fldiv
     ___flmul (ARG)
       ___xxtofl (ARG)
       _analogic_read (ARG)
         ___xxtofl
     _analogic_read (ARG)
   ___flmul
   _adc_init
   _analogic_read
   _config_interrup_cero
   _pwm_init
   _set_duty_cpp1
     ___fldiv
     ___flmul
     ___fltol
       ___fldiv (ARG)
       ___flmul (ARG)
       ___xxtofl (ARG)
     ___xxtofl
   _sprintf
     _vfprintf
       _vfpfcnvrt
         _atoi
           ___wmul
           _isdigit
           _isspace
         _efgtoa
           ___awdiv
           ___awmod
           ___fladd
           ___fldiv
           ___fleq
           ___flge
             ___flmul (ARG)
           ___flmul
           ___flneg
           ___flsub
             ___fladd
             ___flmul (ARG)
           ___fltol
           ___fpclassifyf
           _floorf
             ___fldiv (ARG)
           _isupper
           _pad
             _fputc
               _putch
             _fputs
               _fputc
             _strlen
           _strcpy
           _tolower
             _isupper
         _fputc
         _isdigit
         _isupper
         _strncmp
         _tolower

 _ISR (ROOT)
   i2___fladd

 Address spaces:
Name               Size   Autos  Total    Cost      Usage
BIGRAM             7FF      0       0      21        0.0%
EEDATA             100      0       0       0        0.0%
BITBANK7           100      0       0      18        0.0%
BANK7              100      0       0      19        0.0%
BITBANK6           100      0       0      16        0.0%
BANK6              100      0       0      17        0.0%
BITBANK5           100      0       0      14        0.0%
BANK5              100      0       0      15        0.0%
BITBANK4           100      0       0      12        0.0%
BANK4              100      0       0      13        0.0%
BITBANK3           100      0       0      10        0.0%
BANK3              100      0       0      11        0.0%
BITBANK2           100      0       0       8        0.0%
BANK2              100      0       0       9        0.0%
BITBANK1           100      0       0       6        0.0%
BANK1              100     10      6F       7       43.4%
BITBANK0            A0      0       0       4        0.0%
BANK0               A0     91      9F       5       99.4%
BITCOMRAM           5E      0       0       0        0.0%
COMRAM              5E     3F      4D       1       81.9%
BITSFR               0      0       0     200        0.0%
SFR                  0      0       0     200        0.0%
STACK                0      0       0       2        0.0%
NULL                 0      0       0       0        0.0%
ABS                  0      0     15B      20        0.0%
DATA                 0      0     15B       3        0.0%
CODE                 0      0       0       0        0.0%


Microchip Technology PIC18 Macro Assembler V2.32 build 20210201212658 
Symbol Table                                                                                   Sun Dec 12 22:06:19 2021

                 ___fldiv@aexp 0078                   ___fldiv@bexp 0077                   ___fldiv@sign 0070  
                           l95 3F06                   ___awdiv@sign 0016            ___wmul@multiplicand 0013  
                          l110 3C16                            l112 3C24                            l113 3C48  
                          l122 3F1C                            l107 3EF0                            l116 3C98  
                          l132 39AC                            l119 3F0A                            l128 3EAE  
                          l136 39BE                            l145 3ED4                            l410 32B4  
                          l139 3A34                            l172 390C                            l404 3878  
                          l415 32FA                            l442 31F4                            l179 391C  
                          l419 3DDE                            l700 1848                            l800 2CA2  
                          l376 365C                            l803 2DFE                            l715 3D2A  
                          l740 2952                            l732 2858                            l741 2940  
                          l389 37CE                            l814 2D96                            l807 2D3A  
                          l727 2A34                            l823 3BA6                            l729 2894  
                          l673 1670                            l905 0C12                            l738 28DA  
                          l690 178A                            l682 1940                            l674 165E  
                          l763 2698                            l675 1624                            l933 1052  
                          l766 252A                            l759 2334                            l776 265A  
                          l768 25A2                            l864 36A2                            l769 2590  
                          l699 185A                            l867 36E4                            l869 371E  
                          l887 1480                            l992 3A8E                            l993 3A96  
                          l986 21B4                            l979 226E                            _PR2 000FCB  
                          _ISR 0008                            _RPM 00F1                    i2___fladd@a 0005  
                  i2___fladd@b 0001                            _pad 365E                   ___awmod@sign 0016  
                          wreg 000FE8                   ___flmul@aexp 0032                   ___flmul@bexp 0037  
                 ___flmul@sign 0031                   ___flmul@temp 003C                   ___flmul@prod 0038  
       ??_config_interrup_cero 0011                           ?_ISR 0001                   ___fltol@exp1 003F  
                         l1003 33F8                           l1103 3E4C                           l1032 2F86  
                         l1041 2C4A                           l1122 3AF6                           l1051 3E16  
                         l1035 2F8E                           l1107 34CE                           l1044 2B8E  
                         l1117 3AEE                           l1080 3598                           l1065 3DA6  
                         l1059 3BF8                           l1091 3F1E                           l1088 3D6E  
                         l1097 3B52                           l4101 3906                           l4111 2CC8  
                         l4103 2C4E                           l4121 2D22                           l4105 2C5E  
                         l4201 3958                           l5001 2628                           l4131 2D86  
                         l4123 2D24                           l4115 2CDC                           l4107 2C6C  
                         l4211 39A4                           l4203 3968                           l5011 267E  
                         l5003 2642                           l4141 2DDE                           l4133 2DA4  
                         l4125 2D30                           l4117 2CE4                           l4109 2CB2  
                         l4221 3C14                           l4213 39BC                           l4205 3978  
                         l5005 265E                           l5013 2684                           l5101 37C6  
                         l5021 3CF6                           l4143 2DEC                           l4135 2DA6  
                         l4127 2D6C                           l4119 2CF0                           l4223 3C26  
                         l4215 3BFC                           l4207 3984                           l5015 2688  
                         l5007 266E                           l5031 35B4                           l5111 383C  
                         l4241 3E80                           l4081 387A                           l4145 2DEE  
                         l4137 2DAA                           l4129 2D78                           l4217 3C00  
                         l4161 3F00                           l4209 3994                           l5009 267C  
                         l5041 35DA                           l5033 35B8                           l5025 359A  
                         l5113 384C                           l5105 37D0                           l5121 31F6  
                         l5201 368E                           l4243 3E84                           l4091 38C2  
                         l4083 388A                           l4171 3C86                           l4139 2DCE  
                         l4219 3C12                           l4163 3F02                           l5051 3610  
                         l5043 35EC                           l5035 35C6                           l5027 359E  
                         l5115 3870                           l5107 37FE                           l5131 3282  
                         l5123 3226                           l5019 3CE4                           l5211 36F2  
                         l5203 369A                           l4077 3F0A                           l4245 3E92  
                         l4093 38CC                           l4085 38A0                           l4181 3C90  
                         l4173 3C88                           l4165 3F04                           l4157 3EF4  
                         l5053 3626                           l5045 35F4                           l5061 363C  
                         l5037 35CE                           l5029 35AC                           l5117 3876  
                         l5109 380E                           l5133 3294                           l5125 3236  
                         l5221 335A                           l5213 3706                           l5205 36AE  
                         l5301 083C                           l4079 3F18                           l4247 3E96  
                         l4095 38EA                           l4087 38A8                           l4183 3C92  
                         l4175 3C8A                           l4167 3C4A                           l4191 3EEE  
                         l4159 3EF6                           l5151 30EE                           l5063 364C  
                         l5055 362E                           l5047 35FC                           l5039 35D2  
                         l5071 3724                           l5135 32A2                           l5127 3264  
                         l5143 3DA8                           l5231 33AC                           l5223 3382  
                         l4511 34F4                           l5207 36C2                           l5311 0888  
                         l5303 084A                           l4097 38FA                           l4089 38B4  
                         l4185 3C94                           l4177 3C8C                           l4169 3C84  
                         l4193 3920                           l5161 3146                           l5153 3106  
                         l5065 3654                           l5057 3630                           l5049 360A  
                         l5081 3754                           l5073 3732                           l5137 32F2  
                         l5129 3274                           l5145 3DBE                           l4601 15C6  
                         l4521 1482                           l5225 338E                           l5217 32FC  
                         l4513 34FE                           l5209 36C6                           l5241 3B08  
                         l5401 0C30                           l5321 08CE                           l5313 089A  
                         l5305 0852                           l4099 38FC                           l4187 3C96  
                         l4179 3C8E                           l4195 3924                           l5163 3156  
                         l5059 3636                           l5091 379A                           l5083 3766  
                         l5075 373A                           l5139 32F8                           l5147 3DCE  
                         l4611 163E                           l4603 15F0                           l4531 14BE  
                         l4523 148E                           l5235 33F0                           l5219 331C  
                         l4515 351C                           l4507 34D0                           l5243 3A98  
                         l5403 0C42                           l5411 0CA0                           l5323 08D2  
                         l5315 08A8                           l5307 0876                           l4189 3ED6  
                         l4197 3934                           l5173 3180                           l5165 315A  
                         l5157 311A                           l5093 37A2                           l5085 376E  
                         l5077 373E                           l5069 3720                           l4701 18D0  
                         l4621 167E                           l4613 1642                           l4605 160C  
                         l4541 14EE                           l4533 14CE                           l4525 149C  
                         l5229 339A                           l5261 2AD0                           l5253 2A36  
                         l4517 3552                           l4509 34E2                           l5501 1158  
                         l5421 0CDE                           l5413 0CA8                           l5405 0C5E  
                         l5341 0988                           l5333 0938                           l5325 08D6  
                         l5317 08BA                           l5309 0880                           ?_pad 0021  
                         l4199 3944                           l5191 31E4                           l5183 31A8  
                         l5175 318A                           l5167 3168                           l5159 3144  
                         l5095 37A8                           l5087 3776                           l5079 374C  
                         l4711 1918                           l4703 18E0                           l4631 16C0  
                         l4623 168E                           l4615 1650                           l4607 161C  
                         l4551 1518                           l4543 1500                           l4535 14D0  
                         l4527 149E                           l5271 2BEE                           l5255 2A56  
                         l5239 3AF8                           l5247 3ACE                           l5503 1164  
                         l5511 1184                           l5423 0CF0                           l5431 0D30  
                         l5415 0CBA                           l5407 0C94                           l5351 0A0C  
                         l5335 094A                           l5319 08C6                           l5327 08DC  
                         l4801 27AE                           l5185 31B4                           l5177 3194  
                         l5281 3DE0                           l5089 3784                           l5097 37AE  
                         l4713 191A                           l4705 1900                           l4641 16EE  
                         l4633 16CE                           l4617 1652                           l4609 1632  
                         l4553 1528                           l4561 1552                           l4545 1502  
                         l4529 14AE                           l4537 14D8                           l5273 2C02  
                         l5265 2B42                           l5257 2AAE                           l5249 3AE0  
                         l5521 120A                           l5513 1196                           l5505 1174  
                         l5441 0E18                           l5433 0D38                           l5425 0CFE  
                         l5417 0CCC                           l5409 0C9C                           l5353 0A1E  
                         l5337 0966                           l5329 0902                           l5345 09B0  
                         l4811 27EC                           l4803 27BE                           l5187 31C4  
                         l5291 3BEE                           l5611 2E1C                           l5099 37BE  
                         l4715 1920                           l4707 1904                           l4651 175A  
                         l4643 16F8                           l4635 16DA                           l4627 16A2  
                         l4619 165C                           l4571 158A                           l4563 1562  
                         l4555 1538                           l4547 1508                           l4539 14E8  
                         l5275 2C2A                           l5267 2B7E                           l5259 2AC2  
                         l4723 3D2C                           l4731 3E18                           l5195 365E  
                         l5531 1286                           l5523 1240                           l5515 11A8  
                         l5507 1178                           l5451 0EDA                           l5443 0E4E  
                         l5435 0D48                           l5427 0D16                           l5419 0CDA  
                         l5371 0ADA                           l5355 0A3A                           l5347 09D6  
                         l5363 0A56                           l5339 097E                           l4821 2834  
                         l4813 27FC                           l4805 27BE                           l4901 22BC  
                         l5189 31D4                           l5293 3BF2                           l5285 3BA8  
                         l5621 2E78                           l5613 2E38                           l5605 2E00  
                         l4717 192E                           l4709 1912                           l4653 176A  
                         l4637 16DE                           l4629 16B2                           l4645 16FE  
                         l4581 159E                           l4573 158E                           l4565 1574  
                         l4557 1548                           l4549 1516                           l5277 2C3A  
                         l5269 2BB2                           l4725 3D38                           l4733 3E24  
                         l5197 366C                           l4741 3D70                           l5541 12CA  
                         l5533 1298                           l5525 1248                           l5517 11AC  
                         l5509 117E                           l5461 0F74                           l5453 0EEE  
                         l5437 0D5C                           l5445 0E54                           l5429 0D28  
                         l5373 0AE0                           l5381 0BAC                           l5365 0A70  
                         l5701 1FCE                           l4831 2882                           l4823 2848  
                         l4815 280C                           l4751 269A                           l4911 22EC  
                         l4903 22C2                           l5287 3BAC                           l5623 2E8E  
                         l5615 2E6E                           l5607 2E14                           l4719 1930  
                         l4671 17EC                           l4663 17C4                           l4647 1724  
                         l4655 177A                           l4639 16EC                           l4591 15B2  
                         l4583 15A2                           l4575 1592                           l4567 1582  
                         l4559 154A                           l4727 3D4A                           l4735 3E28  
                         l5199 3680                           l5551 130A                           l5543 12DC  
                         l5535 12A6                           l5519 11B2                           l5527 124C  
                         l5463 0FCC                           l5471 101C                           l5455 0F20  
                         l5447 0E72                           l5439 0DC0                           l5391 0BEC  
                         l5383 0BBC                           l5375 0B3C                           l5711 2046  
                         l5703 1FDE                           l4841 28CA                           l4833 2892  
                         l4825 2856                           l4817 281C                           l4809 27D2  
                         l4761 26D8                           l4753 26A8                           l4921 2324  
                         l4913 22EE                           l4905 22D2                           l4745 3EB0  
                         l5289 3BC0                           l5641 2F6A                           l5633 2F08  
                         l5625 2E96                           l5617 2E72                           l5609 2E18  
                         l4673 17F4                           l4665 17CE                           l4657 17A0  
                         l4649 1758                           l4681 1818                           l4593 15B6  
                         l4585 15A6                           l4577 1596                           l4569 1586  
                         l4729 3D4E                           l4737 3E40                           l5561 1352  
                         l5553 1312                           l5545 12E4                           l5537 12B6  
                         l5529 126A                           l5481 10D2                           l5473 102C  
                         l5465 0FD0                           l5457 0F30                           l5449 0EA6  
                         l5393 0C06                           l5385 0BC0                           l5377 0B70  
                         l5369 0AA6                           l5297 0822                           l5713 2076  
                         l5705 2010                           l5801 30B4                           l4851 290A  
                         l4843 28D8                           l4835 28A4                           l4827 2862  
                         l4819 2824                           l4771 2708                           l4763 26E8  
                         l4755 26B6                           l4931 2374                           l4923 2344  
                         l4915 22FE                           l4907 22D8                           l4747 3ECC  
                         l5627 2E9E                           l4691 186A                           l4683 181C  
                         l4675 17F8                           l4667 17DC                           l4659 17B0  
                         l4595 15BA                           l4587 15AA                           l4579 159A  
                         l5571 13A8                           l5563 136E                           l5555 131A  
                         l5547 12F4                           l5539 12BA                           l5483 10E0  
                         l5491 111C                           l5475 103E                           l5467 1004  
                         l5459 0F40                           l5387 0BD2                           l5395 0C1E  
                         l5379 0B78                           l5299 082C                           l5723 213E  
                         l5707 2022                           l5803 30DA                           l4861 297C  
                         l4853 2938                           l4837 28BA                           l4845 28EA  
                         l4829 2880                           l4781 273E                           l4773 270E  
                         l4765 26EA                           l4757 26B8                           l4941 23C4  
                         l4933 237E                           l4925 2354                           l4917 230E  
                         l4909 22DE                           l5637 2F46                           l5629 2ED2  
                         l4693 1876                           l4685 182A                           l4677 1808  
                         l4669 17DE                           l4597 15BE                           l4589 15AE  
                         l5581 13E4                           l5573 13AE                           l5565 1376  
                         l5557 1326                           l5549 12FC                           l5493 1130  
                         l5485 10F4                           l5477 104A                           l5469 1018  
                         l5389 0BE4                           l5661 3484                           l5653 3430  
                         l5725 2150                           l5733 21C8                           l5709 2038  
                         l5717 20A2                           l4871 29F4                           l4863 29A6  
                         l4847 28F8                           l4839 28C0                           l4791 277E  
                         l4783 274E                           l4775 271C                           l4759 26C8  
                         l4767 26F2                           l4951 2406                           l4943 23D0  
                         l4935 2394                           l4919 231E                           l5639 2F58  
                         l4695 1884                           l4687 1840                           l4679 180A  
                         l4599 15C2                           l5591 1436                           l5583 13EA  
                         l5575 13C0                           l5559 132C                           l5567 137C  
                         l5495 113E                           l5487 1106                           l5479 106E  
                         l5663 34AC                           l5655 343E                           l5647 33FA  
                         l5751 225C                           l5735 21EC                           l5743 221C  
                         l5727 2184                           l5719 20D0                           l5671 1E34  
                         l4881 2A2A                           l4873 2A10                           l4857 2962  
                         l4865 29AA                           l4849 28FC                           l4793 278E  
                         l4785 2750                           l4777 271E                           l4769 2702  
                         l4961 2468                           l4953 2416                           l4945 23DE  
                         l4937 23A0                           l4929 2368                           l4697 18BE  
                         l5593 1442                           l5585 13F0                           l5577 13CC  
                         l5569 138E                           l5497 114E                           l5489 1114  
                         l5657 3456                           l5649 3424                           l5745 222A  
                         l5737 21FA                           l5681 1E84                           l5673 1E46  
                         l5761 3A4C                           l4875 2A14                           l4867 29C4  
                         l4859 296E                           l4795 2796                           l4779 272E  
                         l4787 2758                           l4971 2510                           l4963 2484  
                         l4955 2430                           l4947 23EA                           l4939 23B8  
                         l4891 227C                           l5827 2EBC                           l4699 18C0  
                         l5595 144A                           l5579 13D4                           l5499 1152  
                         l5659 3472                           l5739 220E                           l5683 1EA8  
                         l5675 1E4A                           l5667 1E02                           l5763 3A72  
                         l5771 3B6E                           l4877 2A22                           l4869 29DA  
                         l4797 279A                           l4789 2768                           l4981 254C  
                         l4973 251A                           l4965 24AE                           l4957 2440  
                         l4949 23FA                           l4893 228A                           l5765 39C0  
                         l5597 145A                           l5589 1424                           l5693 1F58  
                         l5685 1EE2                           l5677 1E6E                           l5669 1E26  
                         l5749 2238                           l5757 3A36                           l5773 3B76  
                         l5781 2F98                           l4879 2A28                           l4991 25BE  
                         l4983 255A                           l4975 2528                           l4967 24E4  
                         l4959 245C                           l4895 228C                           l5599 1460  
                         l5687 1F02                           l5679 1E76                           l5695 1F6A  
                         l5759 3A3E                           l5775 3B94                           l5767 3B54  
                         l5791 2FBA                           l5783 2F9A                           l4993 25CC  
                         l4985 2588                           l4977 253A                           l4969 24F2  
                         l4897 229C                           l4889 2270                           l5697 1F8C  
                         l5689 1F10                           l5769 3B66                           l5793 2FCC  
                         l5785 2FA0                           l4995 25F6                           l4979 2548  
                         l4899 22AC                           l5699 1F9C                           l5795 2FE6  
                         l5787 2FAC                           l5779 2F90                           l4989 25B2  
                         l4997 25FA                           l5797 3040                           l5789 2FB0  
                         l4999 2614                           l5799 30A0                 ?_USART_PutChar 0001  
                         STR_1 0801                           STR_2 080D                           STR_3 0815  
                         STR_6 0811                           STR_7 0819                           u6000 15F0  
                         u6001 15EC                           u6010 1608                           u6011 1602  
                         u5220 3F18                           u5300 2D68                           u6100 16EC  
                         u6020 160A                           u5221 3F14                           u5301 2D64  
                         u6101 16E8                           u5230 38A0                           u5310 2D86  
                         u6110 1724                           u6030 1632                           u5231 389C  
                         u5311 2D82                           u6111 1720                           u6031 162E  
                         u5240 38C2                           u5320 2D96                           u5400 3944  
                         u7000 317C                           u6200 1840                           u6120 176A  
                         u6040 1650                           u5241 38BE                           u5321 2D92  
                         u5401 3940                           u7001 3178                           u6201 183C  
                         u6121 1766                           u6041 164C                           u5250 38EA  
                         u5330 2DA4                           u5410 3968                           u7010 31A4  
                         u6210 1856                           u6130 17A0                           u6050 1670  
                         u5251 38E6                           u5331 2DA0                           u5411 3964  
                         u7011 31A0                           u6211 1852                           u6131 179C  
                         u6051 166C                           u5340 2DDE                           u5260 2C5E  
                         u5420 3978                           u7020 31C4                           u6220 186A  
                         u6140 17B0                           u6060 167E                           u7100 3382  
                         u6300 3D6E                           u5341 2DDA                           u5261 2C5A  
                         u5421 3974                           u7021 31C0                           u6221 1866  
                         u6141 17AC                           u6061 167A                           u7101 337E  
                         u6301 3D6A                           u5350 2DEC                           u5270 2C6C  
                         u5430 3994                           u7030 31D4                           u6230 1884  
                         u6150 17DC                           u6070 168E                           u7110 33AC  
                         u6310 3E40                           u5351 2DE8                           u5271 2C68  
                         u5431 3990                           u7031 31D0                           u6231 1880  
                         u6151 17D8                           u6071 168A                           u7111 33A8  
                         u6311 3E3C                           u5280 2CC8                           u5440 39A4  
                         u6400 277E                           u6240 18BE                           u6160 17EC  
                         u6080 16C0                           u7200 2A80                           u7040 366C  
                         u6320 3DA0                           u8000 1E26                           u5281 2CC4  
                         u5441 39A0                           u6401 277A                           u6241 18BA  
                         u6161 17E8                           u6081 16BC                           u7041 3668  
                         u6321 3D9A                           u8001 1E22                           u5290 2D1E  
                         u5450 3C24                           u6410 27BE                           u6250 18D0  
                         u6170 1808                           u6090 16CE                           u7130 33E6  
                         u7210 2AAE                           u7050 368E                           u6330 3DA2  
                         u8010 1E6E                           u5291 2D1A                           u5451 3C20  
                         u6411 27BA                           u6251 18CC                           u6171 1804  
                         u6091 16CA                           u7131 33E0                           u7211 2AAA  
                         u7051 368A                           u8011 1E6A                           u5460 3EAE  
                         u5380 3C7A                           u6500 2938                           u6420 2834  
                         u6340 26B6                           u7300 3E10                           u6260 18E0  
                         u6180 1818                           u7140 33E8                           u7220 2AD0  
                         u7060 36E4                           u8100 2138                           u8020 1EA8  
                         u5461 3EAA                           u6501 2934                           u6421 2830  
                         u6341 26B2                           u7301 3E0A                           u6261 18DC  
                         u6181 1814                           u7125 33BE                           u7221 2ACC  
                         u7205 2A76                           u7061 36E0                           u8101 2132  
                         u8021 1EA4                           u5390 3934                           u6510 294E  
                         u6430 2856                           u6350 26C8                           u7310 3E12  
                         u6270 1900                           u6190 182A                           u7070 36F2  
                         u7150 3B40                           u8110 213A                           u8030 1F52  
                         u5375 3EFE                           u5391 3930                           u6511 294A  
                         u6431 2852                           u6351 26C4                           u6271 18FC  
                         u6191 1826                           u7071 36EE                           u8031 1F4C  
                         u5376 3F00                           u6520 2962                           u6440 2880  
                         u6360 26D8                           u6600 22EC                           u7320 3BC0  
                         u6280 1912                           u7080 333C                           u7240 2B3E  
                         u7160 3B52                           u7400 0934                           u8120 2150  
                         u8040 1F54                           u5385 3C70                           u6521 295E  
                         u6441 287C                           u6361 26D4                           u6601 22E8  
                         u7321 3BBC                           u6281 190E                           u7241 2B3A  
                         u7161 3B4E                           u8121 214C                           u6530 297C  
                         u6450 28A4                           u6370 271C                           u6610 22FE  
                         u7330 3BEE                           u6290 192E                           u7090 335A  
                         u7250 2B62                           u7170 3AC8                           u7410 094A  
                         u8130 21EC                           u8050 1F6A                           u6531 2978  
                         u6451 28A0                           u6371 2718                           u6611 22FA  
                         u7331 3BEA                           u6291 192A                           u7091 3356  
                         u7235 2AE4                           u7171 3AC2                           u7411 0946  
                         u8131 21E8                           u8051 1F66                           u6540 29C4  
                         u6460 28BA                           u6380 272E                           u6700 259E  
                         u6620 230E                           u7260 2B7E                           u7236 2AEE  
                         u5900 3552                           u7180 3ACA                           u7500 0BE4  
                         u7420 09D6                           u7340 084A                           u8060 1F9C  
                         u8140 3A8E                           u6541 29C0                           u6461 28B6  
                         u6381 272A                           u6701 259A                           u6621 230A  
                         u7085 3332                           u7261 2B7A                           u7237 2AFE  
                         u5901 354E                           u7157 3B36                           u7501 0BE0  
                         u7421 09D2                           u7341 0846                           u8061 1F98  
                         u8141 3A8A                           u6550 29F4                           u6470 28D8  
                         u6390 273E                           u6710 25B2                           u6630 2344  
                         u5910 149C                           u7270 2BD2                           u7190 3AE0  
                         u7510 0C06                           u7430 0A06                           u7350 089A  
                         u8070 1FDE                           u6551 29F0                           u6471 28D4  
                         u6391 273A                           u6711 25AE                           u6631 2340  
                         u5911 1498                           u7255 2B58                           u7191 3ADC  
                         u7511 0C02                           u7431 0A00                           u7351 0896  
                         u8071 1FDA                           i2l48 3CE0                           u6560 2A22  
                         u6480 28F8                           u6720 25CC                           u6640 2354  
                         u6800 3626                           u5920 14AE                           u7280 2BEE  
                         u7600 0CFE                           u7520 0C2C                           u7440 0A08  
                         u7360 08A8                           u8080 2022                           u6561 2A1E  
                         u6481 28F4                           u6721 25C8                           u6641 2350  
                         u6801 3622                           u5921 14AA                           u7281 2BEA  
                         u7601 0CFA                           u7521 0C28                           u7361 08A4  
                         u8081 201E                           u6490 290A                           u6730 2614  
                         u6650 24CE                           u6570 228A                           u6810 364C  
                         u5930 14BE                           u7290 2C2A                           u7610 0D28  
                         u7530 0C42                           u7450 0A1E                           u7370 08BA  
                         u8090 20D0                           u6491 2906                           u6731 2610  
                         u6571 2286                           u6811 3648                           u5931 14BA  
                         u7291 2C26                           u7275 2BC8                           u7611 0D24  
                         u7531 0C3E                           u7451 0A1A                           u7371 08B6  
                         u8091 20CC                           u6740 2642                           u6660 2528  
                         u6580 229C                           u6820 3732                           u6900 3870  
                         u5940 1500                           u7700 10F4                           u7620 0E72  
                         u7540 0C5E                           u7460 0AA2                           u7380 0902  
                         u6741 263E                           u6661 2524                           u6581 2298  
                         u6821 372E                           u6901 386C                           u5941 14FC  
                         u7701 10F0                           u7621 0E6E                           u7541 0C5A  
                         u7461 0A9E                           u7381 08FE                           u8157 2FD8  
                         u6750 267C                           u6670 2548                           u6590 22AC  
                         u6830 374C                           u6910 3226                           u5950 1516  
                         u5870 34E2                           u7710 1106                           u7630 0EDA  
                         u7550 0C94                           u7470 0B38                           u7390 0932  
                         u6751 2678                           u6671 2544                           u6655 24C4  
                         u6591 22A8                           u6831 3748                           u6911 3222  
                         u5951 1512                           u5871 34DE                           u7711 1102  
                         u7631 0ED6                           u7551 0C90                           u7471 0B34  
                         u7391 092C                           u6680 255A                           u6760 35AC  
                         u6840 3766                           u6920 3264                           u5960 1528  
                         u5880 34F4                           u7800 12DC                           u7720 1114  
                         u7640 0F20                           u7560 0CBA                           u7480 0BAC  
                         u6681 2556                           u6761 35A8                           u6841 3762  
                         u6921 3260                           u5961 1524                           u5881 34F0  
                         u7801 12D8                           u7721 1110                           u7641 0F1C  
                         u7561 0CB6                           u7481 0BA8                           u6690 2588  
                         u6770 35C6                           u6850 3784                           u6930 3282  
                         u5970 1538                           u5890 351C                           u7810 130A  
                         u7730 1130                           u7650 0F30                           u7570 0CCC  
                         u7490 0BD2                           u6691 2584                           u6771 35C2  
                         u6851 3780                           u6931 327E                           u5971 1534  
                         u5891 3518                           u7811 1306                           u7731 112C  
                         u7651 0F2C                           u7571 0CC8                           u7491 0BCE  
                         u7900 2E8A                           u6780 35EC                           u6860 379A  
                         u6940 32A2                           u5980 1574                           u7820 138E  
                         u7740 113E                           u7660 0FCC                           u7580 0CDA  
                         u7901 2E86                           u6781 35E8                           u6861 3796  
                         u6941 329E                           u5981 1570                           u7821 138A  
                         u7741 113A                           u7661 0FC8                           u7581 0CD6  
                         u7910 2F40                           u6790 360A                           u6870 37BE  
                         u6950 32F2                           u5990 1582                           u7830 13A8  
                         u7750 1196                           u7670 1018                           u7590 0CF0  
                         u7911 2F3A                           u6791 3606                           u6871 37BA  
                         u6951 32EE                           u5991 157E                           u7831 13A4  
                         u7751 1192                           u7671 1014                           u7591 0CEC  
                         u7920 2F42                           u6880 37FE                           u6960 3DBE  
                         u7840 13C0                           u7760 126A                           u7680 103E  
                         u6881 37FA                           u6961 3DBA                           u7841 13BC  
                         u7761 1266                           u7681 103A                           u6970 3106  
                         u7930 2F58                           u6890 383C                           u7850 141E  
                         u7770 1286                           u7690 10E0                           u6971 3102  
                         u7931 2F54                           u6891 3838                           u7851 1418  
                         u7771 1282                           u7691 10DC                           u6980 313A  
                         u7940 2F6A                           u7860 1420                           u7780 1298  
                         u7941 2F66                           u7781 1294                           u6990 3168  
                         u7870 1436                           u7790 12A6                           u7950 3424  
                         u6991 3164                           u7871 1432                           u7791 12A2  
                         u7951 3420                           u7880 2E38                           u7960 3456  
                         u6985 3130                           u7881 2E34                           u7961 3452  
                         u7890 2E6E                           u7970 3472                           u7891 2E6A  
                         u7971 346E                           u7980 3484                           u7981 3480  
                         u7990 34AC                           u7991 34A8                           _TMR2 000FCC  
                         _dbuf 0100                           _atoi 2E00                           _main 2F90  
      __end_of_USART_PutString 3EB0                           _prec 00F9                           _nout 00F5  
                         pad@i 0028                           pad@p 0025                           fsr1h 000FE2  
                         fsr2h 000FDA                           indf1 000FE7                           indf2 000FDF  
                         fsr1l 000FE1                           pad@w 002A                           fsr2l 000FD9  
                         btemp 004E                  ___fpclassifyf 32FC                           prodh 000FF4  
                         prodl 000FF3                           start 000E                ___fldiv@new_exp 0071  
                 _tolower$1483 001D                   ___param_bank 000000                          ??_ISR 0011  
                        ??_pad 0027                  ___fltol@sign1 003E                          ?_atoi 0018  
              __end_of___fladd 1942                          ?_main 0001                __end_of___fldiv 2A36  
              __end_of___awdiv 365E                __end_of___flneg 3DE0                          _ADRES 000FC3  
                        STR_10 081D                          STR_12 081D                __end_of___awmod 37D0  
              __end_of___flmul 269A                __end_of___flsub 3D2C                __end_of___fltol 31F6  
              __end_of___lldiv 391E                ___awdiv@divisor 0013                          _T2CON 000FCA  
                        i2l700 1D08                          i2l673 1B30                          i2l690 1C4A  
                        i2l682 1E00                          i2l674 1B1E                          i2l675 1AE4  
                        i2l699 1D1A                ___awdiv@counter 0015                   vfpfcnvrt@fmt 00D3  
                        _SPBRG 000FAF                          _TRISC 000F94                          _TXREG 000FAD  
                i2___fladd@grs 0010                          _flags 004C                          _fputc 34D0  
                        _fputs 3D2C                __end_of_isdigit 3E18                          atoi@n 0025  
                        pad@fp 0021                          atoi@s 0018                          _width 00F7  
                        _putch 3F1E                __end_of_isspace 3BFA                __end_of_isupper 3DA8  
                        tablat 000FF5                          ttemp5 004F                          ttemp6 0052  
                        ttemp7 0056                          status 000FD8                          wtemp8 004F  
              __end_of_sprintf 3BA8                 ?___fpclassifyf 0011                __end_of_tolower 3AF8  
              __end_of_strncmp 34D0             __size_ofi2___fladd 04C0                    ?_USART_init 001E  
              __initialization 3E4E                   __end_of_atoi 2F90                   __end_of_main 30EE  
        __end_of_analogic_read 3C4A                         ??_atoi 001A                         ??_main 00EF  
                __activetblptr 000002                   pwm_init@pwm1 0012                   pwm_init@pwm2 0011  
              ??_USART_PutChar 0011                         _ADCON0 000FC2                         _ADCON1 000FC1  
                       ?_fputc 0011                         ?_fputs 001A                         _CCPR1L 000FBE  
                       _CCPR2L 000FBB               ___awdiv@dividend 0011                         ?_putch 0001  
             __end_of_adc_init 3EF2                         i2l4301 1A4E                         i2l4311 1A62  
                       i2l4303 1A52                         i2l4401 1CB4                         i2l4321 1A76  
                       i2l4313 1A66                         i2l4305 1A56                         i2l4411 1CDC  
                       i2l4403 1CB8                         i2l4331 1AB0                         i2l4323 1A7A  
                       i2l4315 1A6A                         i2l4307 1A5A                         i2l4251 194E  
                       i2l4421 1D36                         i2l4413 1CEA                         i2l4405 1CC8  
                       i2l4341 1B02                         i2l4333 1ACC                         i2l4325 1A7E  
                       i2l4317 1A6E                         i2l4309 1A5E                         i2l4261 198E  
                       i2l4253 195C                         i2l4431 1DA0                         i2l4423 1D44  
                       i2l4415 1D00                         i2l4407 1CCA                         i2l4351 1B4E  
                       i2l4343 1B10                         i2l4335 1ADC                         i2l4319 1A72  
                       i2l4327 1A82                         i2l4271 19C0                         i2l4263 1990  
                       i2l4255 195E                         i2l4441 1DDA                         i2l4433 1DC0  
                       i2l4425 1D7E                         i2l4361 1B8E                         i2l4409 1CD8  
                       i2l4345 1B12                         i2l4337 1AF2                         i2l4329 1A86  
                       i2l4281 19E8                         i2l4273 19C2                         i2l4257 196E  
                       i2l4265 1998                         i2l4249 1942                         i2l4443 1DE0  
                       i2l4435 1DC4                         i2l4419 1D2A                         i2l4427 1D80  
                       i2l4371 1BB8                         i2l4363 1B9A                         i2l4355 1B62  
                       i2l4347 1B1C                         i2l4339 1AFE                         i2l4291 1A22  
                       i2l4283 19F8                         i2l4275 19C8                         i2l4267 19A8  
                       i2l4259 197E                         i2l4445 1DEE                         i2l4437 1DD2  
                       i2l4429 1D90                         i2l4381 1C2A                         i2l4365 1B9E  
                       i2l4357 1B72                         i2l4349 1B3E                         i2l4373 1BBE  
                       i2l4293 1A34                         i2l4285 1A08                         i2l4277 19D6  
                       i2l4269 19AE                         i2l4447 1DF0                         i2l4439 1DD8  
                       i2l4391 1C84                         i2l4375 1BE4                         i2l4383 1C3A  
                       i2l4367 1BAC                         i2l4359 1B80                         i2l4295 1A42  
                       i2l4287 1A0A                         i2l4279 19D8                         i2l4393 1C8E  
                       i2l4385 1C60                         i2l4377 1C18                         i2l4369 1BAE  
                       i2l4297 1A46                         i2l4289 1A12                         i2l4481 3CDE  
                       i2l4395 1C9C                         i2l4387 1C70                         i2l4379 1C1A  
                       i2l4299 1A4A                         i2l4397 1C9E                         i2l4477 3C9C  
                       i2l4399 1CAC                         i2l4479 3CAA               __end_of___xxtofl 2E00  
             ?_USART_PutString 0012                 i2___fladd@aexp 000E                 i2___fladd@bexp 000F  
                 vfprintf@cfmt 00ED                         ___flge 31F6                         ___fleq 37D0  
                       _cadena 0150                      ??___fladd 0019                         ___wmul 3EB0  
                    ??___fldiv 0068                      ??___awdiv 0015                      ??___flneg 0015  
                    ??___awmod 0015                      ??___flmul 002D                      ??___flsub 003E  
                    ??___fltol 007D                      ??___lldiv 0019                         _efgtoa 0822  
     config_interrup_cero@edge 0011                         _floorf 2A36                         clear_0 3E54  
                       clear_1 3E60                         clear_2 3E6C               ___awdiv@quotient 0017  
              ___awmod@divisor 0013                         isa$std 000001                ___awmod@counter 0015  
                       pad@buf 0023                         _pulses 00FB                         _strcpy 3AF8  
                       _strlen 3E18                         fputc@c 0011                         fputs@c 001E  
                       fputs@i 001F                         fputs@s 001A              __end_ofi2___fladd 1E02  
                    ??_isdigit 0013                ___fpclassifyf@e 0019                ___fpclassifyf@u 001B  
              ___fpclassifyf@x 0011                   __mediumconst 0000                      ??_isspace 0013  
                       tblptrh 000FF7                      ??_isupper 0013                         tblptrl 000FF6  
                       tblptru 000FF8               __end_of_pwm_init 39C0                         putch@c 0001  
             __end_of_vfprintf 3A98            __size_of_USART_init 0050                      ??_sprintf 0040  
                    ??_tolower 0019                      ??_strncmp 0017                     ___flge@ff1 0060  
              ??___fpclassifyf 0015                     ___flge@ff2 0064                   ___xxtofl@arg 001B  
            set_duty_cpp1@duty 0081                   ___xxtofl@exp 001A                   ___xxtofl@val 0011  
                   ___fleq@ff1 0011                     ___fleq@ff2 0015                     __accesstop 0060  
      __end_of__initialization 3E72                     ___flneg@f1 0011                  ___rparam_used 000001  
                   ___fltol@f1 0079                 __pcstackCOMRAM 0001                  __end_of_fputc 359A  
                __end_of_fputs 3D70          __end_of_set_duty_cpp1 3A36                  __end_of_putch 3F20  
                      ??_fputc 0015                        ??_fputs 001E                        ??_putch 0011  
                   __pbssBANK0 00F1                     __pbssBANK1 0100                        ?___flge 0060  
                      ?___fleq 0011                        ?___wmul 0011                        ?_efgtoa 008D  
                      _CCP1CON 000FBD                        _CCP2CON 000FBA                        ?_floorf 0079  
                    ?_adc_init 0001                        ?_strcpy 0011                        ?_strlen 0011  
                    ?___xxtofl 0011             __size_of_vfpfcnvrt 046E  __size_of_config_interrup_cero 0016  
              i2___fladd@signs 000D                        __Hparam 0000                        __Lparam 0000  
                 ??_USART_init 0020                __size_of___flge 0106                __size_of___fleq 00AA  
                      ___fladd 1482                        ___fldiv 269A                        ___awdiv 359A  
                      ___flneg 3DA8                        ___awmod 3720                        ___flmul 2270  
                      ___flsub 3CE4                        ___fltol 30EE                        ___lldiv 387A  
              __size_of___wmul 0026                      ?_pwm_init 0011                      ?_vfprintf 00E7  
                 __psmallconst 0800                __size_of_efgtoa 0C60                __size_of_floorf 0216  
                      __pcinit 3E4E                        __ramtop 0800                     ??_adc_init 0011  
                      __ptext0 2F90                        __ptext1 3B54                        __ptext2 3A36  
                      __ptext3 1E02                        __ptext4 33FA                        __ptext5 0822  
                      __ptext6 3A98                        __ptext7 3D70                        __ptext8 3AF8  
                      __ptext9 365E                __size_of_strcpy 005C                __size_of_strlen 0036  
                 __size_of_ISR 3CDC                      _T2CONbits 000FCA                   __size_of_pad 00C2  
                      _isdigit 3DE0                     ??___xxtofl 0015               ___awmod@dividend 0011  
                      _isspace 3BA8                        _isupper 3D70                        efgtoa@c 0093  
                      efgtoa@d 00B1                        efgtoa@e 00C9                        efgtoa@f 008F  
                      efgtoa@g 00C5                        efgtoa@h 00BB                        efgtoa@i 00C3  
                      efgtoa@l 00BF                        efgtoa@m 00AB                        efgtoa@n 00CB  
                      efgtoa@p 00B5                        efgtoa@t 00A5                        efgtoa@u 00CD  
                      efgtoa@w 00B7                        atoi@neg 001E                        _sprintf 3B54  
                      _tolower 3A98             __end_of_USART_init 3C9A                        _strncmp 33FA  
               __pintcode_body 3C9A           end_of_initialization 3E72                        floorf@e 0087  
                      floorf@m 0083                        floorf@u 0089                        floorf@x 0079  
                      fputc@fp 0013                  __Lmediumconst 0000                        int_func 3C9A  
                      fputs@fp 001C                ___lldiv@divisor 0015                ___lldiv@counter 001D  
            __end_of_vfpfcnvrt 2270                     efgtoa@mode 00BA                     efgtoa@sign 00B3  
                    _RCSTAbits 000FAB                        postdec2 000FDD                        postinc0 000FEE  
                      postinc1 000FE6                        postinc2 000FDE                     ??_pwm_init 0012  
                   ??_vfprintf 0040                        strcpy@d 0019                        strlen@a 0013  
                      strcpy@s 0017                        strlen@s 0011                    ___fladd@grs 0020  
                ___xxtofl@sign 0019                      _TRISAbits 000F92                      _TRISBbits 000F93  
                  ___fldiv@grs 0073                    ___fldiv@rem 006C                      i2___fladd 1942  
        __end_of_USART_PutChar 3F1E                    ___flmul@grs 0033         __size_of_analogic_read 0050  
                    _TXSTAbits 000FAC       __size_of_USART_PutString 0030                 __end_of___flge 32FC  
               __end_of___fleq 387A                    vfpfcnvrt@ap 00D5                    vfpfcnvrt@ct 00E3  
                  vfpfcnvrt@fp 00D1                 __end_of___wmul 3ED6                 __end_of_efgtoa 1482  
               __end_of_floorf 2C4C                     floorf@F527 0040                 __end_of_strcpy 3B54  
               __end_of_strlen 3E4E            start_initialization 3E4E                    __end_of_ISR 3CE4  
                  __end_of_pad 3720                     ?i2___fladd 0001           analogic_read@channel 0024  
        __end_of___fpclassifyf 33FA                    vfprintf@fmt 00E9                       ??___flge 0068  
                     ??___fleq 0019                       ??___wmul 0015                       ??_efgtoa 0094  
                     ??_floorf 007D                  _analogic_read 3BFA                       ??_strcpy 0015  
                     ??_strlen 0013                      ___fladd@a 0015                      ___fladd@b 0011  
                    ___fldiv@a 0064                      ___fldiv@b 0060              __size_of_adc_init 001C  
                    ___flmul@a 0029                      ___flmul@b 0025                    __pbssCOMRAM 0040  
                    ___flsub@a 0064                      ___flsub@b 0060             USART_PutString@str 0012  
                __pcstackBANK0 0060                  __pcstackBANK1 015F              __size_of___xxtofl 01B4  
       __size_of_set_duty_cpp1 0076                      _atoi$1390 0022                      _atoi$1388 0020  
                    _atoi$1389 0024                    _efgtoa$1330 009D                    _efgtoa$1324 0099  
                  _efgtoa$1325 009B                    _efgtoa$1334 009F                    _efgtoa$1335 00A1  
                  _efgtoa$1336 00A3                      __pintcode 0008                       ?___fladd 0011  
                     ?___fldiv 0060                       ?___awdiv 0011                       ?___flneg 0011  
                     ?___awmod 0011                       ?___flmul 0025                       ?___flsub 0060  
                     ?___fltol 0079                       ?___lldiv 0011   __end_of_config_interrup_cero 3F08  
               ?_analogic_read 001F              __size_of_pwm_init 00A2              __size_of_vfprintf 0062  
                  __smallconst 0800              ??_USART_PutString 0014                       ?_isdigit 0011  
                     ?_isspace 0011                       ?_isupper 0011                    ??i2___fladd 0009  
                     ?_sprintf 015F                       ?_tolower 0017                 __size_of_fputc 00CA  
               __size_of_fputs 0044                       ?_strncmp 0011                 __size_of_putch 0002  
               ___wmul@product 0015                       _PIE1bits 000F9D                       i2u550_40 19C0  
                     i2u550_41 19BC                       i2u551_40 19D6                       i2u551_41 19D2  
                     i2u560_40 1B10                       i2u552_40 19E8                       i2u560_41 1B0C  
                     i2u552_41 19E4                       i2u561_40 1B30                       i2u553_40 19F8  
                     i2u561_41 1B2C                       i2u553_41 19F4                       i2u570_40 1C70  
                     i2u562_40 1B3E                       i2u554_40 1A34                       i2u570_41 1C6C  
                     i2u562_41 1B3A                       i2u554_41 1A30                       i2u571_40 1C9C  
                     i2u563_40 1B4E                       i2u555_40 1A42                       i2u547_40 195C  
                     i2u571_41 1C98                       i2u563_41 1B4A                       i2u555_41 1A3E  
                     i2u547_41 1958                       i2u580_40 1D7E                       i2u572_40 1CAC  
                     i2u564_40 1B80                       i2u556_40 1AB0                       i2u548_40 196E  
                     i2u580_41 1D7A                       i2u572_41 1CA8                       i2u564_41 1B7C  
                     i2u556_41 1AAC                       i2u548_41 196A                       i2u581_40 1D90  
                     i2u573_40 1CC8                       i2u565_40 1B8E                       i2u557_40 1AC8  
                     i2u549_40 197E                       i2u581_41 1D8C                       i2u573_41 1CC4  
                     i2u565_41 1B8A                       i2u557_41 1AC2                       i2u549_41 197A  
                     i2u582_40 1DA0                       i2u574_40 1CD8                       i2u566_40 1BAC  
                     i2u558_40 1ACA                       i2u582_41 1D9C                       i2u574_41 1CD4  
                     i2u566_41 1BA8                       i2u583_40 1DC0                       i2u575_40 1CEA  
                     i2u567_40 1BE4                       i2u559_40 1AF2                       i2u583_41 1DBC  
                     i2u575_41 1CE6                       i2u567_41 1BE0                       i2u559_41 1AEE  
                     i2u584_40 1DD2                       i2u576_40 1D00                       i2u568_40 1C2A  
                     i2u584_41 1DCE                       i2u576_41 1CFC                       i2u568_41 1C26  
                     i2u585_40 1DEE                       i2u577_40 1D16                       i2u569_40 1C60  
                     i2u585_41 1DEA                       i2u577_41 1D12                       i2u569_41 1C5C  
                     i2u578_40 1D2A                       i2u586_40 3CAA                       i2u578_41 1D26  
                     i2u586_41 3CA6                       i2u579_40 1D44                       i2u579_41 1D40  
                    _velocidad 0048                      _vfpfcnvrt 1E02                  _set_duty_cpp1 39C0  
                   _ADCON0bits 000FC2                     _ADCON1bits 000FC1                     _ADCON2bits 000FC0  
            ___wmul@multiplier 0011                   _isspace$1419 0017                     vfpfcnvrt@c 00E6  
                   vfpfcnvrt@f 00DF                    _INTCON2bits 000FF1                    _INTCON3bits 000FF0  
                     __Hrparam 0000                     vfprintf@ap 00EB                       __Lrparam 0000  
                   vfprintf@fp 00E7                ??_analogic_read 0023               __size_of___fladd 04C0  
               ?_set_duty_cpp1 0081               __size_of___fldiv 039C               __size_of___awdiv 00C4  
             __size_of___flneg 0038               __size_of___awmod 00B0               __size_of___flmul 042A  
             __size_of___flsub 0048               __size_of___fltol 0108               __size_of___lldiv 00A4  
                   ?_vfpfcnvrt 00D1                       _adc_init 3ED6             ___fpclassifyf@F465 0044  
                   sprintf@fmt 0161                       ___xxtofl 2C4C               __size_of_isdigit 0038  
             __size_of_isspace 0052                       __ptext10 3E18                       __ptext11 3D2C  
                     __ptext20 37D0                       __ptext12 34D0                       __ptext21 3720  
                     __ptext13 3F1E                       __ptext30 269A                       __ptext22 359A  
                     __ptext14 2A36                       __ptext31 391E                       __ptext23 2E00  
                     __ptext15 32FC                       __ptext32 3EF2                       __ptext24 3BA8  
                     __ptext16 3CE4                       __ptext41 1942                       __ptext33 3BFA  
                     __ptext25 3DE0                       __ptext17 1482                       __ptext34 2C4C  
                     __ptext26 3EB0                       __ptext18 3DA8                       __ptext35 3ED6  
                     __ptext27 39C0                       __ptext19 31F6                       __ptext36 3C4A  
                     __ptext28 30EE                       __ptext37 387A                       __ptext29 2270  
                     __ptext38 3E80                       __ptext39 3F08               __size_of_isupper 0038  
             __size_of_sprintf 0054               __size_of_tolower 0060           _config_interrup_cero 3EF2  
                   strcpy@dest 0011               __size_of_strncmp 00D6                  __size_of_atoi 0190  
                __size_of_main 015E                       efgtoa@fp 008D                       efgtoa@ne 00A9  
                     efgtoa@pp 00A7                       efgtoa@ou 00AD                       isa$xinst 000000  
                     int$flags 004E                       _pwm_init 391E                       _vfprintf 3A36  
       __size_of_USART_PutChar 0016                 _vfpfcnvrt$1350 00DB                 _vfpfcnvrt$1354 00DD  
                   _INTCONbits 000FF2                       isdigit@c 0011          ?_config_interrup_cero 0001  
                     intlevel2 0000                      sprintf@ap 0167                       isspace@c 0011  
             ___lldiv@dividend 0011                USART_PutChar@Ch 0011                      strcpy@src 0013  
           USART_init@baudrate 001E                       isupper@c 0011                      strncmp@_l 0011  
                    strncmp@_r 0013                ??_set_duty_cpp1 0040                _USART_PutString 3E80  
                  efgtoa@nmode 00B9                    ??_vfpfcnvrt 00D7                       sprintf@f 0169  
                     tolower@c 0017                       sprintf@s 015F         __size_of___fpclassifyf 00FE  
             ___lldiv@quotient 0019                       strncmp@l 0018                       strncmp@n 0015  
                     strncmp@r 001A                  ___fladd@signs 001D                  _USART_PutChar 3F08  
                 ___fladd@aexp 001E                   ___fladd@bexp 001F                     _USART_init 3C4A  
